---
triple:          'arm64-apple-darwin'
binary-path:     'tests/Testes'
relocations:
  - { offsetInCU: 0x4863, offset: 0x4863, size: 0x8, addend: 0x0, symName: __ZNSt3__17advanceB8ue170006IPNS_4pairINS_12basic_stringIcNS_11char_traitsIcEENS_9allocatorIcEEEEiEEllvEEvRT_T0_, symObjAddr: 0x1BE0, symBinAddr: 0x100003B6C, symSize: 0x38 }
  - { offsetInCU: 0x50DB, offset: 0x50DB, size: 0x8, addend: 0x0, symName: __ZNSt3__124__put_character_sequenceB8ue170006IcNS_11char_traitsIcEEEERNS_13basic_ostreamIT_T0_EES7_PKS4_m, symObjAddr: 0x40A0, symBinAddr: 0x10000602C, symSize: 0x1EC }
  - { offsetInCU: 0x6C3B, offset: 0x6C3B, size: 0x8, addend: 0x0, symName: __ZNSt3__1lsB8ue170006INS_11char_traitsIcEEEERNS_13basic_ostreamIcT_EES6_PKc, symObjAddr: 0x9D4, symBinAddr: 0x100002960, symSize: 0x48 }
  - { offsetInCU: 0x6C81, offset: 0x6C81, size: 0x8, addend: 0x0, symName: __ZNSt3__14endlB8ue170006IcNS_11char_traitsIcEEEERNS_13basic_ostreamIT_T0_EES7_, symObjAddr: 0xA48, symBinAddr: 0x1000029D4, symSize: 0x58 }
  - { offsetInCU: 0x6CC1, offset: 0x6CC1, size: 0x8, addend: 0x0, symName: __ZNSt3__1lsB8ue170006IcNS_11char_traitsIcEENS_9allocatorIcEEEERNS_13basic_ostreamIT_T0_EES9_RKNS_12basic_stringIS6_S7_T1_EE, symObjAddr: 0xBD0, symBinAddr: 0x100002B5C, symSize: 0x4C }
  - { offsetInCU: 0x6D19, offset: 0x6D19, size: 0x8, addend: 0x0, symName: __ZNSt3__112__to_addressB8ue170006INS_4pairINS_12basic_stringIcNS_11char_traitsIcEENS_9allocatorIcEEEEiEEEEPT_SA_, symObjAddr: 0x137C, symBinAddr: 0x100003308, symSize: 0x14 }
  - { offsetInCU: 0x6D4E, offset: 0x6D4E, size: 0x8, addend: 0x0, symName: __ZNSt3__119__libcpp_deallocateB8ue170006EPvmm, symObjAddr: 0x1468, symBinAddr: 0x1000033F4, symSize: 0x30 }
  - { offsetInCU: 0x6D96, offset: 0x6D96, size: 0x8, addend: 0x0, symName: __ZNSt3__127__do_deallocate_handle_sizeB8ue170006IJEEEvPvmDpT_, symObjAddr: 0x1498, symBinAddr: 0x100003424, symSize: 0x28 }
  - { offsetInCU: 0x6DD4, offset: 0x6DD4, size: 0x8, addend: 0x0, symName: __ZNSt3__124__libcpp_operator_deleteB8ue170006IJPvEEEvDpT_, symObjAddr: 0x14C0, symBinAddr: 0x10000344C, symSize: 0x24 }
  - { offsetInCU: 0x6E09, offset: 0x6E09, size: 0x8, addend: 0x0, symName: __ZNSt3__18distanceB8ue170006IPNS_4pairINS_12basic_stringIcNS_11char_traitsIcEENS_9allocatorIcEEEEiEEEENS_15iterator_traitsIT_E15difference_typeESB_SB_, symObjAddr: 0x1830, symBinAddr: 0x1000037BC, symSize: 0x2C }
  - { offsetInCU: 0x6E4C, offset: 0x6E4C, size: 0x8, addend: 0x0, symName: __ZNSt3__14nextB8ue170006IPNS_4pairINS_12basic_stringIcNS_11char_traitsIcEENS_9allocatorIcEEEEiEEEENS_9enable_ifIXsr29__has_input_iterator_categoryIT_EE5valueESB_E4typeESB_NS_15iterator_traitsISB_E15difference_typeE, symObjAddr: 0x185C, symBinAddr: 0x1000037E8, symSize: 0x34 }
  - { offsetInCU: 0x6E8F, offset: 0x6E8F, size: 0x8, addend: 0x0, symName: __ZNSt3__14copyB8ue170006IPNS_4pairINS_12basic_stringIcNS_11char_traitsIcEENS_9allocatorIcEEEEiEES9_EET0_T_SB_SA_, symObjAddr: 0x1890, symBinAddr: 0x10000381C, symSize: 0x40 }
  - { offsetInCU: 0x6EE9, offset: 0x6EE9, size: 0x8, addend: 0x0, symName: __ZNSt3__16__copyB8ue170006INS_17_ClassicAlgPolicyEPNS_4pairINS_12basic_stringIcNS_11char_traitsIcEENS_9allocatorIcEEEEiEESA_SA_EENS2_IT0_T2_EESB_T1_SC_, symObjAddr: 0x195C, symBinAddr: 0x1000038E8, symSize: 0x44 }
  - { offsetInCU: 0x6F55, offset: 0x6F55, size: 0x8, addend: 0x0, symName: __ZNSt3__121__convert_to_integralB8ue170006El, symObjAddr: 0x1C18, symBinAddr: 0x100003BA4, symSize: 0x14 }
  - { offsetInCU: 0x6F81, offset: 0x6F81, size: 0x8, addend: 0x0, symName: __ZNSt3__19__advanceB8ue170006IPNS_4pairINS_12basic_stringIcNS_11char_traitsIcEENS_9allocatorIcEEEEiEEEEvRT_NS_15iterator_traitsISA_E15difference_typeENS_26random_access_iterator_tagE, symObjAddr: 0x1C2C, symBinAddr: 0x100003BB8, symSize: 0x28 }
  - { offsetInCU: 0x6FCA, offset: 0x6FCA, size: 0x8, addend: 0x0, symName: __ZNSt3__130__uninitialized_allocator_copyB8ue170006INS_9allocatorINS_4pairINS_12basic_stringIcNS_11char_traitsIcEENS1_IcEEEEiEEEEPS8_SA_SA_EET2_RT_T0_T1_SB_, symObjAddr: 0x1C90, symBinAddr: 0x100003C1C, symSize: 0x80 }
  - { offsetInCU: 0x7067, offset: 0x7067, size: 0x8, addend: 0x0, symName: __ZNSt3__114__unwrap_rangeB8ue170006IPNS_4pairINS_12basic_stringIcNS_11char_traitsIcEENS_9allocatorIcEEEEiEES9_EENS1_IT0_SA_EET_SC_, symObjAddr: 0x1D80, symBinAddr: 0x100003D0C, symSize: 0x60 }
  - { offsetInCU: 0x70B3, offset: 0x70B3, size: 0x8, addend: 0x0, symName: __ZNSt3__135__uninitialized_allocator_copy_implB8ue170006INS_9allocatorINS_4pairINS_12basic_stringIcNS_11char_traitsIcEENS1_IcEEEEiEEEEPS8_SA_SA_EET2_RT_T0_T1_SB_, symObjAddr: 0x1DE0, symBinAddr: 0x100003D6C, symSize: 0xF4 }
  - { offsetInCU: 0x7151, offset: 0x7151, size: 0x8, addend: 0x0, symName: __ZNSt3__113__unwrap_iterB8ue170006IPNS_4pairINS_12basic_stringIcNS_11char_traitsIcEENS_9allocatorIcEEEEiEENS_18__unwrap_iter_implIS9_Lb1EEELi0EEEDTclsrT0_8__unwrapclsr3stdE7declvalIT_EEEESD_, symObjAddr: 0x1ED4, symBinAddr: 0x100003E60, symSize: 0x24 }
  - { offsetInCU: 0x7195, offset: 0x7195, size: 0x8, addend: 0x0, symName: __ZNSt3__113__rewrap_iterB8ue170006IPNS_4pairINS_12basic_stringIcNS_11char_traitsIcEENS_9allocatorIcEEEEiEES9_NS_18__unwrap_iter_implIS9_Lb1EEEEET_SC_T0_, symObjAddr: 0x1EF8, symBinAddr: 0x100003E84, symSize: 0x3C }
  - { offsetInCU: 0x71EA, offset: 0x71EA, size: 0x8, addend: 0x0, symName: __ZNSt3__19make_pairB8ue170006IPNS_4pairINS_12basic_stringIcNS_11char_traitsIcEENS_9allocatorIcEEEEiEES9_EENS1_INS_18__unwrap_ref_decayIT_E4typeENSA_IT0_E4typeEEEOSB_OSE_, symObjAddr: 0x1F34, symBinAddr: 0x100003EC0, symSize: 0x38 }
  - { offsetInCU: 0x730D, offset: 0x730D, size: 0x8, addend: 0x0, symName: __ZNSt3__122__make_exception_guardB8ue170006INS_29_AllocatorDestroyRangeReverseINS_9allocatorINS_4pairINS_12basic_stringIcNS_11char_traitsIcEENS2_IcEEEEiEEEEPS9_EEEENS_28__exception_guard_exceptionsIT_EESE_, symObjAddr: 0x1FDC, symBinAddr: 0x100003F68, symSize: 0x4C }
  - { offsetInCU: 0x7343, offset: 0x7343, size: 0x8, addend: 0x0, symName: __ZNSt3__119__allocator_destroyB8ue170006INS_9allocatorINS_4pairINS_12basic_stringIcNS_11char_traitsIcEENS1_IcEEEEiEEEENS_16reverse_iteratorIPS8_EESC_EEvRT_T0_T1_, symObjAddr: 0x226C, symBinAddr: 0x1000041F8, symSize: 0x70 }
  - { offsetInCU: 0x73A6, offset: 0x73A6, size: 0x8, addend: 0x0, symName: __ZNSt3__1neB8ue170006IPNS_4pairINS_12basic_stringIcNS_11char_traitsIcEENS_9allocatorIcEEEEiEES9_EEbRKNS_16reverse_iteratorIT_EERKNSA_IT0_EE, symObjAddr: 0x2310, symBinAddr: 0x10000429C, symSize: 0x48 }
  - { offsetInCU: 0x73F2, offset: 0x73F2, size: 0x8, addend: 0x0, symName: __ZNSt3__112__to_addressB8ue170006INS_16reverse_iteratorIPNS_4pairINS_12basic_stringIcNS_11char_traitsIcEENS_9allocatorIcEEEEiEEEEvEEu7__decayIDTclsr19__to_address_helperIT_EE6__callclsr3stdE7declvalIRKSC_EEEEESE_, symObjAddr: 0x2358, symBinAddr: 0x1000042E4, symSize: 0x24 }
  - { offsetInCU: 0x74A4, offset: 0x74A4, size: 0x8, addend: 0x0, symName: __ZNSt3__123__dispatch_copy_or_moveB8ue170006INS_17_ClassicAlgPolicyENS_11__copy_loopIS1_EENS_14__copy_trivialEPNS_4pairINS_12basic_stringIcNS_11char_traitsIcEENS_9allocatorIcEEEEiEESD_SD_EENS5_IT2_T4_EESE_T3_SF_, symObjAddr: 0x24F4, symBinAddr: 0x100004480, symSize: 0x44 }
  - { offsetInCU: 0x7522, offset: 0x7522, size: 0x8, addend: 0x0, symName: __ZNSt3__121__unwrap_and_dispatchB8ue170006INS_10__overloadINS_11__copy_loopINS_17_ClassicAlgPolicyEEENS_14__copy_trivialEEEPNS_4pairINS_12basic_stringIcNS_11char_traitsIcEENS_9allocatorIcEEEEiEESF_SF_Li0EEENS7_IT0_T2_EESG_T1_SH_, symObjAddr: 0x2538, symBinAddr: 0x1000044C4, symSize: 0xB4 }
  - { offsetInCU: 0x760B, offset: 0x760B, size: 0x8, addend: 0x0, symName: __ZNSt3__114__rewrap_rangeB8ue170006IPNS_4pairINS_12basic_stringIcNS_11char_traitsIcEENS_9allocatorIcEEEEiEES9_EET_SA_T0_, symObjAddr: 0x2674, symBinAddr: 0x100004600, symSize: 0x2C }
  - { offsetInCU: 0x7657, offset: 0x7657, size: 0x8, addend: 0x0, symName: __ZNSt3__119__allocate_at_leastB8ue170006INS_9allocatorINS_4pairINS_12basic_stringIcNS_11char_traitsIcEENS1_IcEEEEiEEEEEENS_19__allocation_resultINS_16allocator_traitsIT_E7pointerEEERSC_m, symObjAddr: 0x27BC, symBinAddr: 0x100004748, symSize: 0x40 }
  - { offsetInCU: 0x769A, offset: 0x769A, size: 0x8, addend: 0x0, symName: __ZNSt3__13minB8ue170006ImEERKT_S3_S3_, symObjAddr: 0x28A8, symBinAddr: 0x100004834, symSize: 0x2C }
  - { offsetInCU: 0x78DE, offset: 0x78DE, size: 0x8, addend: 0x0, symName: __ZNSt3__13minB8ue170006ImNS_6__lessIvvEEEERKT_S5_S5_T0_, symObjAddr: 0x2934, symBinAddr: 0x1000048C0, symSize: 0x54 }
  - { offsetInCU: 0x797D, offset: 0x797D, size: 0x8, addend: 0x0, symName: __ZNSt3__120__throw_length_errorB8ue170006EPKc, symObjAddr: 0x2A10, symBinAddr: 0x10000499C, symSize: 0x64 }
  - { offsetInCU: 0x79A7, offset: 0x79A7, size: 0x8, addend: 0x0, symName: __ZNSt3__117__libcpp_allocateB8ue170006Emm, symObjAddr: 0x2B80, symBinAddr: 0x100004B0C, symSize: 0x28 }
  - { offsetInCU: 0x79E4, offset: 0x79E4, size: 0x8, addend: 0x0, symName: __ZNSt3__121__libcpp_operator_newB8ue170006IJmEEEPvDpT_, symObjAddr: 0x2BA8, symBinAddr: 0x100004B34, symSize: 0x24 }
  - { offsetInCU: 0x7A1D, offset: 0x7A1D, size: 0x8, addend: 0x0, symName: __ZNSt3__13maxB8ue170006ImEERKT_S3_S3_, symObjAddr: 0x2BCC, symBinAddr: 0x100004B58, symSize: 0x2C }
  - { offsetInCU: 0x7A60, offset: 0x7A60, size: 0x8, addend: 0x0, symName: __ZNSt3__13maxB8ue170006ImNS_6__lessIvvEEEERKT_S5_S5_T0_, symObjAddr: 0x2BF8, symBinAddr: 0x100004B84, symSize: 0x54 }
  - { offsetInCU: 0x7ABA, offset: 0x7ABA, size: 0x8, addend: 0x0, symName: __ZNSt3__110__distanceB8ue170006IPNS_4pairINS_12basic_stringIcNS_11char_traitsIcEENS_9allocatorIcEEEEiEEEENS_15iterator_traitsIT_E15difference_typeESB_SB_NS_26random_access_iterator_tagE, symObjAddr: 0x2C4C, symBinAddr: 0x100004BD8, symSize: 0x28 }
  - { offsetInCU: 0x7B07, offset: 0x7B07, size: 0x8, addend: 0x0, symName: __ZNSt3__142__uninitialized_allocator_move_if_noexceptB8ue170006INS_9allocatorINS_4pairINS_12basic_stringIcNS_11char_traitsIcEENS1_IcEEEEiEEEENS_16reverse_iteratorIPS8_EESC_SC_EET2_RT_T0_T1_SD_, symObjAddr: 0x31EC, symBinAddr: 0x100005178, symSize: 0x11C }
  - { offsetInCU: 0x7BA7, offset: 0x7BA7, size: 0x8, addend: 0x0, symName: __ZNSt3__14swapB8ue170006IPNS_4pairINS_12basic_stringIcNS_11char_traitsIcEENS_9allocatorIcEEEEiEEEENS_9enable_ifIXaasr21is_move_constructibleIT_EE5valuesr18is_move_assignableISB_EE5valueEvE4typeERSB_SE_, symObjAddr: 0x3308, symBinAddr: 0x100005294, symSize: 0x3C }
  - { offsetInCU: 0x7BF8, offset: 0x7BF8, size: 0x8, addend: 0x0, symName: __ZNSt3__122__make_exception_guardB8ue170006INS_29_AllocatorDestroyRangeReverseINS_9allocatorINS_4pairINS_12basic_stringIcNS_11char_traitsIcEENS2_IcEEEEiEEEENS_16reverse_iteratorIPS9_EEEEEENS_28__exception_guard_exceptionsIT_EESG_, symObjAddr: 0x3344, symBinAddr: 0x1000052D0, symSize: 0x4C }
  - { offsetInCU: 0x7C2E, offset: 0x7C2E, size: 0x8, addend: 0x0, symName: __ZNSt3__119__allocator_destroyB8ue170006INS_9allocatorINS_4pairINS_12basic_stringIcNS_11char_traitsIcEENS1_IcEEEEiEEEENS_16reverse_iteratorINSA_IPS8_EEEESD_EEvRT_T0_T1_, symObjAddr: 0x3710, symBinAddr: 0x10000569C, symSize: 0x70 }
  - { offsetInCU: 0x7C93, offset: 0x7C93, size: 0x8, addend: 0x0, symName: __ZNSt3__1neB8ue170006INS_16reverse_iteratorIPNS_4pairINS_12basic_stringIcNS_11char_traitsIcEENS_9allocatorIcEEEEiEEEESB_EEbRKNS1_IT_EERKNS1_IT0_EE, symObjAddr: 0x37BC, symBinAddr: 0x100005748, symSize: 0x60 }
  - { offsetInCU: 0x7CDF, offset: 0x7CDF, size: 0x8, addend: 0x0, symName: __ZNSt3__112__to_addressB8ue170006INS_16reverse_iteratorINS1_IPNS_4pairINS_12basic_stringIcNS_11char_traitsIcEENS_9allocatorIcEEEEiEEEEEEvEEu7__decayIDTclsr19__to_address_helperIT_EE6__callclsr3stdE7declvalIRKSD_EEEEESF_, symObjAddr: 0x381C, symBinAddr: 0x1000057A8, symSize: 0x24 }
  - { offsetInCU: 0x7D3E, offset: 0x7D3E, size: 0x8, addend: 0x0, symName: __ZNSt3__122__make_exception_guardB8ue170006INS_6vectorINS_4pairINS_12basic_stringIcNS_11char_traitsIcEENS_9allocatorIcEEEEiEENS6_IS9_EEE16__destroy_vectorEEENS_28__exception_guard_exceptionsIT_EESE_, symObjAddr: 0x3D50, symBinAddr: 0x100005CDC, symSize: 0x40 }
  - { offsetInCU: 0x7D73, offset: 0x7D73, size: 0x8, addend: 0x0, symName: __ZNSt3__120__throw_out_of_rangeB8ue170006EPKc, symObjAddr: 0x3E94, symBinAddr: 0x100005E20, symSize: 0x64 }
  - { offsetInCU: 0x7D9D, offset: 0x7D9D, size: 0x8, addend: 0x0, symName: __ZNSt3__118__constexpr_strlenB8ue170006EPKc, symObjAddr: 0x407C, symBinAddr: 0x100006008, symSize: 0x24 }
  - { offsetInCU: 0x7DC9, offset: 0x7DC9, size: 0x8, addend: 0x0, symName: __ZNSt3__116__pad_and_outputB8ue170006IcNS_11char_traitsIcEEEENS_19ostreambuf_iteratorIT_T0_EES6_PKS4_S8_S8_RNS_8ios_baseES4_, symObjAddr: 0x42A8, symBinAddr: 0x100006234, symSize: 0x240 }
  - { offsetInCU: 0x7E98, offset: 0x7E98, size: 0x8, addend: 0x0, symName: __ZNSt3__112__to_addressB8ue170006IKcEEPT_S3_, symObjAddr: 0x4718, symBinAddr: 0x1000066A4, symSize: 0x14 }
  - { offsetInCU: 0x7F00, offset: 0x7F00, size: 0x8, addend: 0x0, symName: __ZNSt3__19use_facetB8ue170006INS_5ctypeIcEEEERKT_RKNS_6localeE, symObjAddr: 0x4998, symBinAddr: 0x100006924, symSize: 0x2C }
  - { offsetInCU: 0x8777, offset: 0x8777, size: 0x8, addend: 0x0, symName: __ZSt28__throw_bad_array_new_lengthB8ue170006v, symObjAddr: 0x2B4C, symBinAddr: 0x100004AD8, symSize: 0x34 }
  - { offsetInCU: 0x8C68, offset: 0x8C68, size: 0x8, addend: 0x0, symName: __ZNSt3__16vectorINS_4pairINS_12basic_stringIcNS_11char_traitsIcEENS_9allocatorIcEEEEiEENS5_IS8_EEE26__swap_out_circular_bufferERNS_14__split_bufferIS8_RS9_EE, symObjAddr: 0x2E84, symBinAddr: 0x100004E10, symSize: 0x110 }
  - { offsetInCU: 0xB222, offset: 0xB222, size: 0x8, addend: 0x0, symName: __ZN6CartasC2Ev, symObjAddr: 0x0, symBinAddr: 0x100001F8C, symSize: 0xEC }
  - { offsetInCU: 0xB261, offset: 0xB261, size: 0x8, addend: 0x0, symName: __ZNSt3__112basic_stringIcNS_11char_traitsIcEENS_9allocatorIcEEEC1B8ue170006Ev, symObjAddr: 0xEC, symBinAddr: 0x100002078, symSize: 0x2C }
  - { offsetInCU: 0xB28A, offset: 0xB28A, size: 0x8, addend: 0x0, symName: __ZNSt3__16vectorINS_4pairINS_12basic_stringIcNS_11char_traitsIcEENS_9allocatorIcEEEEiEENS5_IS8_EEEC1B8ue170006Ev, symObjAddr: 0x118, symBinAddr: 0x1000020A4, symSize: 0x2C }
  - { offsetInCU: 0xB2B3, offset: 0xB2B3, size: 0x8, addend: 0x0, symName: __ZNSt3__112basic_stringIcNS_11char_traitsIcEENS_9allocatorIcEEEaSB8ue170006EPKc, symObjAddr: 0x144, symBinAddr: 0x1000020D0, symSize: 0x2C }
  - { offsetInCU: 0xB2E7, offset: 0xB2E7, size: 0x8, addend: 0x0, symName: __ZNSt3__16vectorINS_4pairINS_12basic_stringIcNS_11char_traitsIcEENS_9allocatorIcEEEEiEENS5_IS8_EEE5clearB8ue170006Ev, symObjAddr: 0x170, symBinAddr: 0x1000020FC, symSize: 0x44 }
  - { offsetInCU: 0xB31A, offset: 0xB31A, size: 0x8, addend: 0x0, symName: __ZNSt3__16vectorINS_4pairINS_12basic_stringIcNS_11char_traitsIcEENS_9allocatorIcEEEEiEENS5_IS8_EEEaSB8ue170006ERKSA_, symObjAddr: 0x1B4, symBinAddr: 0x100002140, symSize: 0x68 }
  - { offsetInCU: 0xB350, offset: 0xB350, size: 0x8, addend: 0x0, symName: __ZNSt3__16vectorINS_4pairINS_12basic_stringIcNS_11char_traitsIcEENS_9allocatorIcEEEEiEENS5_IS8_EEED1B8ue170006Ev, symObjAddr: 0x21C, symBinAddr: 0x1000021A8, symSize: 0x2C }
  - { offsetInCU: 0xB379, offset: 0xB379, size: 0x8, addend: 0x0, symName: __ZN6CartasC1Ev, symObjAddr: 0x248, symBinAddr: 0x1000021D4, symSize: 0x2C }
  - { offsetInCU: 0xB3A4, offset: 0xB3A4, size: 0x8, addend: 0x0, symName: __ZN6CartasC2ENSt3__112basic_stringIcNS0_11char_traitsIcEENS0_9allocatorIcEEEEiNS0_6vectorINS0_4pairIS6_iEENS4_IS9_EEEEiS6_i, symObjAddr: 0x274, symBinAddr: 0x100002200, symSize: 0x294 }
  - { offsetInCU: 0xB465, offset: 0xB465, size: 0x8, addend: 0x0, symName: __ZNSt3__16vectorINS_4pairINS_12basic_stringIcNS_11char_traitsIcEENS_9allocatorIcEEEEiEENS5_IS8_EEEixB8ue170006Em, symObjAddr: 0x508, symBinAddr: 0x100002494, symSize: 0x24 }
  - { offsetInCU: 0xB49A, offset: 0xB49A, size: 0x8, addend: 0x0, symName: __ZNSt3__16vectorINS_4pairINS_12basic_stringIcNS_11char_traitsIcEENS_9allocatorIcEEEEiEENS5_IS8_EEE9push_backB8ue170006ERKS8_, symObjAddr: 0x52C, symBinAddr: 0x1000024B8, symSize: 0x6C }
  - { offsetInCU: 0xB4D0, offset: 0xB4D0, size: 0x8, addend: 0x0, symName: __ZNSt3__14pairINS_12basic_stringIcNS_11char_traitsIcEENS_9allocatorIcEEEEiEC1B8ue170006ERKS7_, symObjAddr: 0x598, symBinAddr: 0x100002524, symSize: 0x34 }
  - { offsetInCU: 0xB503, offset: 0xB503, size: 0x8, addend: 0x0, symName: __ZNSt3__14pairINS_12basic_stringIcNS_11char_traitsIcEENS_9allocatorIcEEEEiED1Ev, symObjAddr: 0x5CC, symBinAddr: 0x100002558, symSize: 0x2C }
  - { offsetInCU: 0xB52E, offset: 0xB52E, size: 0x8, addend: 0x0, symName: __ZN6CartasC1ENSt3__112basic_stringIcNS0_11char_traitsIcEENS0_9allocatorIcEEEEiNS0_6vectorINS0_4pairIS6_iEENS4_IS9_EEEEiS6_i, symObjAddr: 0x5F8, symBinAddr: 0x100002584, symSize: 0x5C }
  - { offsetInCU: 0xB5B0, offset: 0xB5B0, size: 0x8, addend: 0x0, symName: __ZN6CartasD2Ev, symObjAddr: 0x654, symBinAddr: 0x1000025E0, symSize: 0x80 }
  - { offsetInCU: 0xB5DB, offset: 0xB5DB, size: 0x8, addend: 0x0, symName: __ZN6CartasD1Ev, symObjAddr: 0x6E0, symBinAddr: 0x10000266C, symSize: 0x2C }
  - { offsetInCU: 0xB606, offset: 0xB606, size: 0x8, addend: 0x0, symName: __ZN6Cartas7getNomeEv, symObjAddr: 0x70C, symBinAddr: 0x100002698, symSize: 0x38 }
  - { offsetInCU: 0xB62D, offset: 0xB62D, size: 0x8, addend: 0x0, symName: __ZN6Cartas10getAtaquesEv, symObjAddr: 0x744, symBinAddr: 0x1000026D0, symSize: 0x3C }
  - { offsetInCU: 0xB654, offset: 0xB654, size: 0x8, addend: 0x0, symName: __ZNSt3__16vectorINS_4pairINS_12basic_stringIcNS_11char_traitsIcEENS_9allocatorIcEEEEiEENS5_IS8_EEEC1ERKSA_, symObjAddr: 0x780, symBinAddr: 0x10000270C, symSize: 0x34 }
  - { offsetInCU: 0xB68E, offset: 0xB68E, size: 0x8, addend: 0x0, symName: __ZN6Cartas9getAtaqueEi, symObjAddr: 0x7B4, symBinAddr: 0x100002740, symSize: 0x9C }
  - { offsetInCU: 0xB6C2, offset: 0xB6C2, size: 0x8, addend: 0x0, symName: __ZNSt3__16vectorINS_4pairINS_12basic_stringIcNS_11char_traitsIcEENS_9allocatorIcEEEEiEENS5_IS8_EEE2atEm, symObjAddr: 0x850, symBinAddr: 0x1000027DC, symSize: 0x60 }
  - { offsetInCU: 0xB713, offset: 0xB713, size: 0x8, addend: 0x0, symName: __ZNSt3__14pairINS_12basic_stringIcNS_11char_traitsIcEENS_9allocatorIcEEEEiEC1B8ue170006IRA6_KciLPv0EEEOT_OT0_, symObjAddr: 0x8B0, symBinAddr: 0x10000283C, symSize: 0x3C }
  - { offsetInCU: 0xB770, offset: 0xB770, size: 0x8, addend: 0x0, symName: __ZN6Cartas9getDefesaEv, symObjAddr: 0x8EC, symBinAddr: 0x100002878, symSize: 0x18 }
  - { offsetInCU: 0xB797, offset: 0xB797, size: 0x8, addend: 0x0, symName: __ZN6Cartas7getTipoEv, symObjAddr: 0x904, symBinAddr: 0x100002890, symSize: 0x3C }
  - { offsetInCU: 0xB7BE, offset: 0xB7BE, size: 0x8, addend: 0x0, symName: __ZN6Cartas5getHpEv, symObjAddr: 0x940, symBinAddr: 0x1000028CC, symSize: 0x18 }
  - { offsetInCU: 0xB7E5, offset: 0xB7E5, size: 0x8, addend: 0x0, symName: __ZN6Cartas10sofrerDanoEi, symObjAddr: 0x958, symBinAddr: 0x1000028E4, symSize: 0x7C }
  - { offsetInCU: 0xB81A, offset: 0xB81A, size: 0x8, addend: 0x0, symName: __ZNSt3__113basic_ostreamIcNS_11char_traitsIcEEElsB8ue170006EPFRS3_S4_E, symObjAddr: 0xA1C, symBinAddr: 0x1000029A8, symSize: 0x2C }
  - { offsetInCU: 0xB84D, offset: 0xB84D, size: 0x8, addend: 0x0, symName: __ZN6Cartas11mostraCartaEv, symObjAddr: 0xAA0, symBinAddr: 0x100002A2C, symSize: 0x130 }
  - { offsetInCU: 0xB874, offset: 0xB874, size: 0x8, addend: 0x0, symName: __ZN6Cartas12destroiCartaEv, symObjAddr: 0xC1C, symBinAddr: 0x100002BA8, symSize: 0x90 }
  - { offsetInCU: 0xB8A9, offset: 0xB8A9, size: 0x8, addend: 0x0, symName: __ZNSt3__14pairINS_12basic_stringIcNS_11char_traitsIcEENS_9allocatorIcEEEEiEC2B8ue170006ERKS7_, symObjAddr: 0xCAC, symBinAddr: 0x100002C38, symSize: 0x40 }
  - { offsetInCU: 0xB8DC, offset: 0xB8DC, size: 0x8, addend: 0x0, symName: __ZNSt3__14pairINS_12basic_stringIcNS_11char_traitsIcEENS_9allocatorIcEEEEiED2Ev, symObjAddr: 0xCEC, symBinAddr: 0x100002C78, symSize: 0x2C }
  - { offsetInCU: 0xB907, offset: 0xB907, size: 0x8, addend: 0x0, symName: __ZNSt3__112basic_stringIcNS_11char_traitsIcEENS_9allocatorIcEEEC2B8ue170006Ev, symObjAddr: 0xD18, symBinAddr: 0x100002CA4, symSize: 0x48 }
  - { offsetInCU: 0xB935, offset: 0xB935, size: 0x8, addend: 0x0, symName: __ZNSt3__117__compressed_pairINS_12basic_stringIcNS_11char_traitsIcEENS_9allocatorIcEEE5__repES5_EC1B8ue170006INS_18__default_init_tagESA_EEOT_OT0_, symObjAddr: 0xD60, symBinAddr: 0x100002CEC, symSize: 0x3C }
  - { offsetInCU: 0xB98C, offset: 0xB98C, size: 0x8, addend: 0x0, symName: __ZNSt3__112basic_stringIcNS_11char_traitsIcEENS_9allocatorIcEEE14__default_initB8ue170006Ev, symObjAddr: 0xD9C, symBinAddr: 0x100002D28, symSize: 0x40 }
  - { offsetInCU: 0xB9B1, offset: 0xB9B1, size: 0x8, addend: 0x0, symName: __ZNSt3__117__compressed_pairINS_12basic_stringIcNS_11char_traitsIcEENS_9allocatorIcEEE5__repES5_EC2B8ue170006INS_18__default_init_tagESA_EEOT_OT0_, symObjAddr: 0xDDC, symBinAddr: 0x100002D68, symSize: 0x3C }
  - { offsetInCU: 0xBA08, offset: 0xBA08, size: 0x8, addend: 0x0, symName: __ZNSt3__122__compressed_pair_elemINS_12basic_stringIcNS_11char_traitsIcEENS_9allocatorIcEEE5__repELi0ELb0EEC2B8ue170006ENS_18__default_init_tagE, symObjAddr: 0xE18, symBinAddr: 0x100002DA4, symSize: 0x14 }
  - { offsetInCU: 0xBA3B, offset: 0xBA3B, size: 0x8, addend: 0x0, symName: __ZNSt3__122__compressed_pair_elemINS_9allocatorIcEELi1ELb1EEC2B8ue170006ENS_18__default_init_tagE, symObjAddr: 0xE2C, symBinAddr: 0x100002DB8, symSize: 0x2C }
  - { offsetInCU: 0xBA6E, offset: 0xBA6E, size: 0x8, addend: 0x0, symName: __ZNSt3__19allocatorIcEC2B8ue170006Ev, symObjAddr: 0xE58, symBinAddr: 0x100002DE4, symSize: 0x2C }
  - { offsetInCU: 0xBA97, offset: 0xBA97, size: 0x8, addend: 0x0, symName: __ZNSt3__116__non_trivial_ifILb1ENS_9allocatorIcEEEC2B8ue170006Ev, symObjAddr: 0xE84, symBinAddr: 0x100002E10, symSize: 0x14 }
  - { offsetInCU: 0xBAC0, offset: 0xBAC0, size: 0x8, addend: 0x0, symName: __ZNSt3__117__compressed_pairINS_12basic_stringIcNS_11char_traitsIcEENS_9allocatorIcEEE5__repES5_E5firstB8ue170006Ev, symObjAddr: 0xE98, symBinAddr: 0x100002E24, symSize: 0x24 }
  - { offsetInCU: 0xBAE5, offset: 0xBAE5, size: 0x8, addend: 0x0, symName: __ZNSt3__122__compressed_pair_elemINS_12basic_stringIcNS_11char_traitsIcEENS_9allocatorIcEEE5__repELi0ELb0EE5__getB8ue170006Ev, symObjAddr: 0xEBC, symBinAddr: 0x100002E48, symSize: 0x14 }
  - { offsetInCU: 0xBB0A, offset: 0xBB0A, size: 0x8, addend: 0x0, symName: __ZNSt3__16vectorINS_4pairINS_12basic_stringIcNS_11char_traitsIcEENS_9allocatorIcEEEEiEENS5_IS8_EEEC2B8ue170006Ev, symObjAddr: 0xED0, symBinAddr: 0x100002E5C, symSize: 0x4C }
  - { offsetInCU: 0xBB38, offset: 0xBB38, size: 0x8, addend: 0x0, symName: __ZNSt3__117__compressed_pairIPNS_4pairINS_12basic_stringIcNS_11char_traitsIcEENS_9allocatorIcEEEEiEENS5_IS8_EEEC1B8ue170006IDnNS_18__default_init_tagEEEOT_OT0_, symObjAddr: 0xF1C, symBinAddr: 0x100002EA8, symSize: 0x3C }
  - { offsetInCU: 0xBB8F, offset: 0xBB8F, size: 0x8, addend: 0x0, symName: __ZNSt3__117__compressed_pairIPNS_4pairINS_12basic_stringIcNS_11char_traitsIcEENS_9allocatorIcEEEEiEENS5_IS8_EEEC2B8ue170006IDnNS_18__default_init_tagEEEOT_OT0_, symObjAddr: 0xF58, symBinAddr: 0x100002EE4, symSize: 0x40 }
  - { offsetInCU: 0xBBE6, offset: 0xBBE6, size: 0x8, addend: 0x0, symName: __ZNSt3__122__compressed_pair_elemIPNS_4pairINS_12basic_stringIcNS_11char_traitsIcEENS_9allocatorIcEEEEiEELi0ELb0EEC2B8ue170006IDnvEEOT_, symObjAddr: 0xF98, symBinAddr: 0x100002F24, symSize: 0x1C }
  - { offsetInCU: 0xBC27, offset: 0xBC27, size: 0x8, addend: 0x0, symName: __ZNSt3__122__compressed_pair_elemINS_9allocatorINS_4pairINS_12basic_stringIcNS_11char_traitsIcEENS1_IcEEEEiEEEELi1ELb1EEC2B8ue170006ENS_18__default_init_tagE, symObjAddr: 0xFB4, symBinAddr: 0x100002F40, symSize: 0x2C }
  - { offsetInCU: 0xBC5A, offset: 0xBC5A, size: 0x8, addend: 0x0, symName: __ZNSt3__19allocatorINS_4pairINS_12basic_stringIcNS_11char_traitsIcEENS0_IcEEEEiEEEC2B8ue170006Ev, symObjAddr: 0xFE0, symBinAddr: 0x100002F6C, symSize: 0x2C }
  - { offsetInCU: 0xBC83, offset: 0xBC83, size: 0x8, addend: 0x0, symName: __ZNSt3__116__non_trivial_ifILb1ENS_9allocatorINS_4pairINS_12basic_stringIcNS_11char_traitsIcEENS1_IcEEEEiEEEEEC2B8ue170006Ev, symObjAddr: 0x100C, symBinAddr: 0x100002F98, symSize: 0x14 }
  - { offsetInCU: 0xBCAC, offset: 0xBCAC, size: 0x8, addend: 0x0, symName: __ZNSt3__16vectorINS_4pairINS_12basic_stringIcNS_11char_traitsIcEENS_9allocatorIcEEEEiEENS5_IS8_EEED2B8ue170006Ev, symObjAddr: 0x1020, symBinAddr: 0x100002FAC, symSize: 0x44 }
  - { offsetInCU: 0xBCD5, offset: 0xBCD5, size: 0x8, addend: 0x0, symName: __ZNSt3__16vectorINS_4pairINS_12basic_stringIcNS_11char_traitsIcEENS_9allocatorIcEEEEiEENS5_IS8_EEE16__destroy_vectorC1B8ue170006ERSA_, symObjAddr: 0x1064, symBinAddr: 0x100002FF0, symSize: 0x34 }
  - { offsetInCU: 0xBD0D, offset: 0xBD0D, size: 0x8, addend: 0x0, symName: __ZNSt3__16vectorINS_4pairINS_12basic_stringIcNS_11char_traitsIcEENS_9allocatorIcEEEEiEENS5_IS8_EEE16__destroy_vectorclB8ue170006Ev, symObjAddr: 0x1098, symBinAddr: 0x100003024, symSize: 0x90 }
  - { offsetInCU: 0xBD32, offset: 0xBD32, size: 0x8, addend: 0x0, symName: __ZNSt3__16vectorINS_4pairINS_12basic_stringIcNS_11char_traitsIcEENS_9allocatorIcEEEEiEENS5_IS8_EEE16__destroy_vectorC2B8ue170006ERSA_, symObjAddr: 0x1128, symBinAddr: 0x1000030B4, symSize: 0x20 }
  - { offsetInCU: 0xBD6A, offset: 0xBD6A, size: 0x8, addend: 0x0, symName: __ZNSt3__16vectorINS_4pairINS_12basic_stringIcNS_11char_traitsIcEENS_9allocatorIcEEEEiEENS5_IS8_EEE7__clearB8ue170006Ev, symObjAddr: 0x1148, symBinAddr: 0x1000030D4, symSize: 0x28 }
  - { offsetInCU: 0xBD8F, offset: 0xBD8F, size: 0x8, addend: 0x0, symName: __ZNKSt3__16vectorINS_4pairINS_12basic_stringIcNS_11char_traitsIcEENS_9allocatorIcEEEEiEENS5_IS8_EEE17__annotate_deleteB8ue170006Ev, symObjAddr: 0x1170, symBinAddr: 0x1000030FC, symSize: 0xB8 }
  - { offsetInCU: 0xBDB4, offset: 0xBDB4, size: 0x8, addend: 0x0, symName: __ZNSt3__116allocator_traitsINS_9allocatorINS_4pairINS_12basic_stringIcNS_11char_traitsIcEENS1_IcEEEEiEEEEE10deallocateB8ue170006ERS9_PS8_m, symObjAddr: 0x1228, symBinAddr: 0x1000031B4, symSize: 0x34 }
  - { offsetInCU: 0xBDF6, offset: 0xBDF6, size: 0x8, addend: 0x0, symName: __ZNSt3__16vectorINS_4pairINS_12basic_stringIcNS_11char_traitsIcEENS_9allocatorIcEEEEiEENS5_IS8_EEE7__allocB8ue170006Ev, symObjAddr: 0x125C, symBinAddr: 0x1000031E8, symSize: 0x28 }
  - { offsetInCU: 0xBE1B, offset: 0xBE1B, size: 0x8, addend: 0x0, symName: __ZNKSt3__16vectorINS_4pairINS_12basic_stringIcNS_11char_traitsIcEENS_9allocatorIcEEEEiEENS5_IS8_EEE8capacityB8ue170006Ev, symObjAddr: 0x1284, symBinAddr: 0x100003210, symSize: 0x40 }
  - { offsetInCU: 0xBE40, offset: 0xBE40, size: 0x8, addend: 0x0, symName: __ZNSt3__16vectorINS_4pairINS_12basic_stringIcNS_11char_traitsIcEENS_9allocatorIcEEEEiEENS5_IS8_EEE22__base_destruct_at_endB8ue170006EPS8_, symObjAddr: 0x12C4, symBinAddr: 0x100003250, symSize: 0x8C }
  - { offsetInCU: 0xBE83, offset: 0xBE83, size: 0x8, addend: 0x0, symName: __ZNSt3__116allocator_traitsINS_9allocatorINS_4pairINS_12basic_stringIcNS_11char_traitsIcEENS1_IcEEEEiEEEEE7destroyB8ue170006IS8_vEEvRS9_PT_, symObjAddr: 0x1350, symBinAddr: 0x1000032DC, symSize: 0x2C }
  - { offsetInCU: 0xBEC0, offset: 0xBEC0, size: 0x8, addend: 0x0, symName: __ZNSt3__19allocatorINS_4pairINS_12basic_stringIcNS_11char_traitsIcEENS0_IcEEEEiEEE7destroyB8ue170006EPS7_, symObjAddr: 0x1390, symBinAddr: 0x10000331C, symSize: 0x28 }
  - { offsetInCU: 0xBEF3, offset: 0xBEF3, size: 0x8, addend: 0x0, symName: __ZNKSt3__16vectorINS_4pairINS_12basic_stringIcNS_11char_traitsIcEENS_9allocatorIcEEEEiEENS5_IS8_EEE31__annotate_contiguous_containerB8ue170006EPKvSC_SC_SC_, symObjAddr: 0x13B8, symBinAddr: 0x100003344, symSize: 0x20 }
  - { offsetInCU: 0xBF48, offset: 0xBF48, size: 0x8, addend: 0x0, symName: __ZNKSt3__16vectorINS_4pairINS_12basic_stringIcNS_11char_traitsIcEENS_9allocatorIcEEEEiEENS5_IS8_EEE4dataB8ue170006Ev, symObjAddr: 0x13D8, symBinAddr: 0x100003364, symSize: 0x28 }
  - { offsetInCU: 0xBF6D, offset: 0xBF6D, size: 0x8, addend: 0x0, symName: __ZNKSt3__16vectorINS_4pairINS_12basic_stringIcNS_11char_traitsIcEENS_9allocatorIcEEEEiEENS5_IS8_EEE4sizeB8ue170006Ev, symObjAddr: 0x1400, symBinAddr: 0x10000338C, symSize: 0x28 }
  - { offsetInCU: 0xBF92, offset: 0xBF92, size: 0x8, addend: 0x0, symName: __ZNSt3__19allocatorINS_4pairINS_12basic_stringIcNS_11char_traitsIcEENS0_IcEEEEiEEE10deallocateB8ue170006EPS7_m, symObjAddr: 0x1428, symBinAddr: 0x1000033B4, symSize: 0x40 }
  - { offsetInCU: 0xBFD3, offset: 0xBFD3, size: 0x8, addend: 0x0, symName: __ZNSt3__117__compressed_pairIPNS_4pairINS_12basic_stringIcNS_11char_traitsIcEENS_9allocatorIcEEEEiEENS5_IS8_EEE6secondB8ue170006Ev, symObjAddr: 0x14E4, symBinAddr: 0x100003470, symSize: 0x24 }
  - { offsetInCU: 0xBFF8, offset: 0xBFF8, size: 0x8, addend: 0x0, symName: __ZNSt3__122__compressed_pair_elemINS_9allocatorINS_4pairINS_12basic_stringIcNS_11char_traitsIcEENS1_IcEEEEiEEEELi1ELb1EE5__getB8ue170006Ev, symObjAddr: 0x1508, symBinAddr: 0x100003494, symSize: 0x14 }
  - { offsetInCU: 0xC01D, offset: 0xC01D, size: 0x8, addend: 0x0, symName: __ZNKSt3__16vectorINS_4pairINS_12basic_stringIcNS_11char_traitsIcEENS_9allocatorIcEEEEiEENS5_IS8_EEE9__end_capB8ue170006Ev, symObjAddr: 0x151C, symBinAddr: 0x1000034A8, symSize: 0x28 }
  - { offsetInCU: 0xC042, offset: 0xC042, size: 0x8, addend: 0x0, symName: __ZNKSt3__117__compressed_pairIPNS_4pairINS_12basic_stringIcNS_11char_traitsIcEENS_9allocatorIcEEEEiEENS5_IS8_EEE5firstB8ue170006Ev, symObjAddr: 0x1544, symBinAddr: 0x1000034D0, symSize: 0x24 }
  - { offsetInCU: 0xC067, offset: 0xC067, size: 0x8, addend: 0x0, symName: __ZNKSt3__122__compressed_pair_elemIPNS_4pairINS_12basic_stringIcNS_11char_traitsIcEENS_9allocatorIcEEEEiEELi0ELb0EE5__getB8ue170006Ev, symObjAddr: 0x1568, symBinAddr: 0x1000034F4, symSize: 0x14 }
  - { offsetInCU: 0xC08C, offset: 0xC08C, size: 0x8, addend: 0x0, symName: __ZNKSt3__16vectorINS_4pairINS_12basic_stringIcNS_11char_traitsIcEENS_9allocatorIcEEEEiEENS5_IS8_EEE17__annotate_shrinkB8ue170006Em, symObjAddr: 0x157C, symBinAddr: 0x100003508, symSize: 0xB4 }
  - { offsetInCU: 0xC0C0, offset: 0xC0C0, size: 0x8, addend: 0x0, symName: __ZNSt3__16vectorINS_4pairINS_12basic_stringIcNS_11char_traitsIcEENS_9allocatorIcEEEEiEENS5_IS8_EEE19__copy_assign_allocB8ue170006ERKSA_, symObjAddr: 0x1630, symBinAddr: 0x1000035BC, symSize: 0x2C }
  - { offsetInCU: 0xC0F3, offset: 0xC0F3, size: 0x8, addend: 0x0, symName: __ZNSt3__16vectorINS_4pairINS_12basic_stringIcNS_11char_traitsIcEENS_9allocatorIcEEEEiEENS5_IS8_EEE6assignIPS8_Li0EEEvT_SD_, symObjAddr: 0x165C, symBinAddr: 0x1000035E8, symSize: 0x5C }
  - { offsetInCU: 0xC147, offset: 0xC147, size: 0x8, addend: 0x0, symName: __ZNSt3__16vectorINS_4pairINS_12basic_stringIcNS_11char_traitsIcEENS_9allocatorIcEEEEiEENS5_IS8_EEE19__copy_assign_allocB8ue170006ERKSA_NS_17integral_constantIbLb0EEE, symObjAddr: 0x16B8, symBinAddr: 0x100003644, symSize: 0x14 }
  - { offsetInCU: 0xC183, offset: 0xC183, size: 0x8, addend: 0x0, symName: __ZNSt3__16vectorINS_4pairINS_12basic_stringIcNS_11char_traitsIcEENS_9allocatorIcEEEEiEENS5_IS8_EEE18__assign_with_sizeB8ue170006IPS8_SC_EEvT_T0_l, symObjAddr: 0x16CC, symBinAddr: 0x100003658, symSize: 0x164 }
  - { offsetInCU: 0xC233, offset: 0xC233, size: 0x8, addend: 0x0, symName: __ZNSt3__16vectorINS_4pairINS_12basic_stringIcNS_11char_traitsIcEENS_9allocatorIcEEEEiEENS5_IS8_EEE18__construct_at_endIPS8_SC_EEvT_T0_m, symObjAddr: 0x18D0, symBinAddr: 0x10000385C, symSize: 0x8C }
  - { offsetInCU: 0xC2A8, offset: 0xC2A8, size: 0x8, addend: 0x0, symName: __ZNSt3__16vectorINS_4pairINS_12basic_stringIcNS_11char_traitsIcEENS_9allocatorIcEEEEiEENS5_IS8_EEE17__destruct_at_endB8ue170006EPS8_, symObjAddr: 0x19A0, symBinAddr: 0x10000392C, symSize: 0x4C }
  - { offsetInCU: 0xC2EA, offset: 0xC2EA, size: 0x8, addend: 0x0, symName: __ZNSt3__16vectorINS_4pairINS_12basic_stringIcNS_11char_traitsIcEENS_9allocatorIcEEEEiEENS5_IS8_EEE13__vdeallocateEv, symObjAddr: 0x19EC, symBinAddr: 0x100003978, symSize: 0x94 }
  - { offsetInCU: 0xC311, offset: 0xC311, size: 0x8, addend: 0x0, symName: __ZNSt3__16vectorINS_4pairINS_12basic_stringIcNS_11char_traitsIcEENS_9allocatorIcEEEEiEENS5_IS8_EEE11__vallocateB8ue170006Em, symObjAddr: 0x1A80, symBinAddr: 0x100003A0C, symSize: 0xAC }
  - { offsetInCU: 0xC353, offset: 0xC353, size: 0x8, addend: 0x0, symName: __ZNKSt3__16vectorINS_4pairINS_12basic_stringIcNS_11char_traitsIcEENS_9allocatorIcEEEEiEENS5_IS8_EEE11__recommendB8ue170006Em, symObjAddr: 0x1B2C, symBinAddr: 0x100003AB8, symSize: 0xB4 }
  - { offsetInCU: 0xC3C0, offset: 0xC3C0, size: 0x8, addend: 0x0, symName: __ZNSt3__16vectorINS_4pairINS_12basic_stringIcNS_11char_traitsIcEENS_9allocatorIcEEEEiEENS5_IS8_EEE21_ConstructTransactionC1B8ue170006ERSA_m, symObjAddr: 0x1C54, symBinAddr: 0x100003BE0, symSize: 0x3C }
  - { offsetInCU: 0xC407, offset: 0xC407, size: 0x8, addend: 0x0, symName: __ZNSt3__16vectorINS_4pairINS_12basic_stringIcNS_11char_traitsIcEENS_9allocatorIcEEEEiEENS5_IS8_EEE21_ConstructTransactionD1B8ue170006Ev, symObjAddr: 0x1D10, symBinAddr: 0x100003C9C, symSize: 0x2C }
  - { offsetInCU: 0xC430, offset: 0xC430, size: 0x8, addend: 0x0, symName: __ZNSt3__16vectorINS_4pairINS_12basic_stringIcNS_11char_traitsIcEENS_9allocatorIcEEEEiEENS5_IS8_EEE21_ConstructTransactionC2B8ue170006ERSA_m, symObjAddr: 0x1D3C, symBinAddr: 0x100003CC8, symSize: 0x44 }
  - { offsetInCU: 0xC495, offset: 0xC495, size: 0x8, addend: 0x0, symName: __ZNSt3__14pairIPNS0_INS_12basic_stringIcNS_11char_traitsIcEENS_9allocatorIcEEEEiEES8_EC1B8ue170006IS8_S8_LPv0EEEOT_OT0_, symObjAddr: 0x1F6C, symBinAddr: 0x100003EF8, symSize: 0x3C }
  - { offsetInCU: 0xC4F2, offset: 0xC4F2, size: 0x8, addend: 0x0, symName: __ZNSt3__14pairIPNS0_INS_12basic_stringIcNS_11char_traitsIcEENS_9allocatorIcEEEEiEES8_EC2B8ue170006IS8_S8_LPv0EEEOT_OT0_, symObjAddr: 0x1FA8, symBinAddr: 0x100003F34, symSize: 0x34 }
  - { offsetInCU: 0xC54F, offset: 0xC54F, size: 0x8, addend: 0x0, symName: __ZNSt3__129_AllocatorDestroyRangeReverseINS_9allocatorINS_4pairINS_12basic_stringIcNS_11char_traitsIcEENS1_IcEEEEiEEEEPS8_EC1B8ue170006ERS9_RSA_SD_, symObjAddr: 0x2028, symBinAddr: 0x100003FB4, symSize: 0x44 }
  - { offsetInCU: 0xC5A5, offset: 0xC5A5, size: 0x8, addend: 0x0, symName: __ZNSt3__116allocator_traitsINS_9allocatorINS_4pairINS_12basic_stringIcNS_11char_traitsIcEENS1_IcEEEEiEEEEE9constructB8ue170006IS8_JRS8_EvEEvRS9_PT_DpOT0_, symObjAddr: 0x206C, symBinAddr: 0x100003FF8, symSize: 0x34 }
  - { offsetInCU: 0xC5FC, offset: 0xC5FC, size: 0x8, addend: 0x0, symName: __ZNSt3__128__exception_guard_exceptionsINS_29_AllocatorDestroyRangeReverseINS_9allocatorINS_4pairINS_12basic_stringIcNS_11char_traitsIcEENS2_IcEEEEiEEEEPS9_EEE10__completeB8ue170006Ev, symObjAddr: 0x20A0, symBinAddr: 0x10000402C, symSize: 0x1C }
  - { offsetInCU: 0xC621, offset: 0xC621, size: 0x8, addend: 0x0, symName: __ZNSt3__128__exception_guard_exceptionsINS_29_AllocatorDestroyRangeReverseINS_9allocatorINS_4pairINS_12basic_stringIcNS_11char_traitsIcEENS2_IcEEEEiEEEEPS9_EEED1B8ue170006Ev, symObjAddr: 0x20BC, symBinAddr: 0x100004048, symSize: 0x2C }
  - { offsetInCU: 0xC64A, offset: 0xC64A, size: 0x8, addend: 0x0, symName: __ZNSt3__128__exception_guard_exceptionsINS_29_AllocatorDestroyRangeReverseINS_9allocatorINS_4pairINS_12basic_stringIcNS_11char_traitsIcEENS2_IcEEEEiEEEEPS9_EEEC1B8ue170006ESC_, symObjAddr: 0x20E8, symBinAddr: 0x100004074, symSize: 0x34 }
  - { offsetInCU: 0xC682, offset: 0xC682, size: 0x8, addend: 0x0, symName: __ZNSt3__128__exception_guard_exceptionsINS_29_AllocatorDestroyRangeReverseINS_9allocatorINS_4pairINS_12basic_stringIcNS_11char_traitsIcEENS2_IcEEEEiEEEEPS9_EEEC2B8ue170006ESC_, symObjAddr: 0x211C, symBinAddr: 0x1000040A8, symSize: 0x30 }
  - { offsetInCU: 0xC6BA, offset: 0xC6BA, size: 0x8, addend: 0x0, symName: __ZNSt3__129_AllocatorDestroyRangeReverseINS_9allocatorINS_4pairINS_12basic_stringIcNS_11char_traitsIcEENS1_IcEEEEiEEEEPS8_EC2B8ue170006ERS9_RSA_SD_, symObjAddr: 0x214C, symBinAddr: 0x1000040D8, symSize: 0x38 }
  - { offsetInCU: 0xC710, offset: 0xC710, size: 0x8, addend: 0x0, symName: __ZNSt3__19allocatorINS_4pairINS_12basic_stringIcNS_11char_traitsIcEENS0_IcEEEEiEEE9constructB8ue170006IS7_JRS7_EEEvPT_DpOT0_, symObjAddr: 0x2184, symBinAddr: 0x100004110, symSize: 0x30 }
  - { offsetInCU: 0xC765, offset: 0xC765, size: 0x8, addend: 0x0, symName: __ZNSt3__128__exception_guard_exceptionsINS_29_AllocatorDestroyRangeReverseINS_9allocatorINS_4pairINS_12basic_stringIcNS_11char_traitsIcEENS2_IcEEEEiEEEEPS9_EEED2B8ue170006Ev, symObjAddr: 0x21B4, symBinAddr: 0x100004140, symSize: 0x50 }
  - { offsetInCU: 0xC78E, offset: 0xC78E, size: 0x8, addend: 0x0, symName: __ZNKSt3__129_AllocatorDestroyRangeReverseINS_9allocatorINS_4pairINS_12basic_stringIcNS_11char_traitsIcEENS1_IcEEEEiEEEEPS8_EclB8ue170006Ev, symObjAddr: 0x2204, symBinAddr: 0x100004190, symSize: 0x68 }
  - { offsetInCU: 0xC7B3, offset: 0xC7B3, size: 0x8, addend: 0x0, symName: __ZNSt3__116reverse_iteratorIPNS_4pairINS_12basic_stringIcNS_11char_traitsIcEENS_9allocatorIcEEEEiEEEC1B8ue170006ES9_, symObjAddr: 0x22DC, symBinAddr: 0x100004268, symSize: 0x34 }
  - { offsetInCU: 0xC7EA, offset: 0xC7EA, size: 0x8, addend: 0x0, symName: __ZNSt3__116reverse_iteratorIPNS_4pairINS_12basic_stringIcNS_11char_traitsIcEENS_9allocatorIcEEEEiEEEppB8ue170006Ev, symObjAddr: 0x237C, symBinAddr: 0x100004308, symSize: 0x20 }
  - { offsetInCU: 0xC80F, offset: 0xC80F, size: 0x8, addend: 0x0, symName: __ZNKSt3__116reverse_iteratorIPNS_4pairINS_12basic_stringIcNS_11char_traitsIcEENS_9allocatorIcEEEEiEEE4baseB8ue170006Ev, symObjAddr: 0x239C, symBinAddr: 0x100004328, symSize: 0x18 }
  - { offsetInCU: 0xC839, offset: 0xC839, size: 0x8, addend: 0x0, symName: __ZNSt3__119__to_address_helperINS_16reverse_iteratorIPNS_4pairINS_12basic_stringIcNS_11char_traitsIcEENS_9allocatorIcEEEEiEEEEvE6__callB8ue170006ERKSB_, symObjAddr: 0x23B4, symBinAddr: 0x100004340, symSize: 0x38 }
  - { offsetInCU: 0xC85C, offset: 0xC85C, size: 0x8, addend: 0x0, symName: __ZNKSt3__116reverse_iteratorIPNS_4pairINS_12basic_stringIcNS_11char_traitsIcEENS_9allocatorIcEEEEiEEEptB8ue170006Ev, symObjAddr: 0x23EC, symBinAddr: 0x100004378, symSize: 0x24 }
  - { offsetInCU: 0xC881, offset: 0xC881, size: 0x8, addend: 0x0, symName: __ZNKSt3__116reverse_iteratorIPNS_4pairINS_12basic_stringIcNS_11char_traitsIcEENS_9allocatorIcEEEEiEEEdeB8ue170006Ev, symObjAddr: 0x2410, symBinAddr: 0x10000439C, symSize: 0x28 }
  - { offsetInCU: 0xC8B4, offset: 0xC8B4, size: 0x8, addend: 0x0, symName: __ZNSt3__116reverse_iteratorIPNS_4pairINS_12basic_stringIcNS_11char_traitsIcEENS_9allocatorIcEEEEiEEEC2B8ue170006ES9_, symObjAddr: 0x2438, symBinAddr: 0x1000043C4, symSize: 0x28 }
  - { offsetInCU: 0xC8EB, offset: 0xC8EB, size: 0x8, addend: 0x0, symName: __ZNSt3__118__unwrap_iter_implIPNS_4pairINS_12basic_stringIcNS_11char_traitsIcEENS_9allocatorIcEEEEiEELb1EE8__unwrapB8ue170006ES9_, symObjAddr: 0x2460, symBinAddr: 0x1000043EC, symSize: 0x24 }
  - { offsetInCU: 0xC90E, offset: 0xC90E, size: 0x8, addend: 0x0, symName: __ZNSt3__118__unwrap_iter_implIPNS_4pairINS_12basic_stringIcNS_11char_traitsIcEENS_9allocatorIcEEEEiEELb1EE8__rewrapB8ue170006ES9_S9_, symObjAddr: 0x2484, symBinAddr: 0x100004410, symSize: 0x50 }
  - { offsetInCU: 0xC93F, offset: 0xC93F, size: 0x8, addend: 0x0, symName: __ZNSt3__16vectorINS_4pairINS_12basic_stringIcNS_11char_traitsIcEENS_9allocatorIcEEEEiEENS5_IS8_EEE21_ConstructTransactionD2B8ue170006Ev, symObjAddr: 0x24D4, symBinAddr: 0x100004460, symSize: 0x20 }
  - { offsetInCU: 0xC972, offset: 0xC972, size: 0x8, addend: 0x0, symName: __ZNKSt3__111__copy_loopINS_17_ClassicAlgPolicyEEclB8ue170006IPNS_4pairINS_12basic_stringIcNS_11char_traitsIcEENS_9allocatorIcEEEEiEESC_SC_EENS4_IT_T1_EESD_T0_SE_, symObjAddr: 0x25EC, symBinAddr: 0x100004578, symSize: 0x88 }
  - { offsetInCU: 0xC9DC, offset: 0xC9DC, size: 0x8, addend: 0x0, symName: __ZNSt3__14pairINS_12basic_stringIcNS_11char_traitsIcEENS_9allocatorIcEEEEiEaSB8ue170006ERKS7_, symObjAddr: 0x26A0, symBinAddr: 0x10000462C, symSize: 0x40 }
  - { offsetInCU: 0xCA10, offset: 0xCA10, size: 0x8, addend: 0x0, symName: __ZNSt3__16vectorINS_4pairINS_12basic_stringIcNS_11char_traitsIcEENS_9allocatorIcEEEEiEENS5_IS8_EEE9__end_capB8ue170006Ev, symObjAddr: 0x26E0, symBinAddr: 0x10000466C, symSize: 0x28 }
  - { offsetInCU: 0xCA35, offset: 0xCA35, size: 0x8, addend: 0x0, symName: __ZNSt3__117__compressed_pairIPNS_4pairINS_12basic_stringIcNS_11char_traitsIcEENS_9allocatorIcEEEEiEENS5_IS8_EEE5firstB8ue170006Ev, symObjAddr: 0x2708, symBinAddr: 0x100004694, symSize: 0x24 }
  - { offsetInCU: 0xCA5A, offset: 0xCA5A, size: 0x8, addend: 0x0, symName: __ZNSt3__122__compressed_pair_elemIPNS_4pairINS_12basic_stringIcNS_11char_traitsIcEENS_9allocatorIcEEEEiEELi0ELb0EE5__getB8ue170006Ev, symObjAddr: 0x272C, symBinAddr: 0x1000046B8, symSize: 0x14 }
  - { offsetInCU: 0xCA7E, offset: 0xCA7E, size: 0x8, addend: 0x0, symName: __ZNKSt3__16vectorINS_4pairINS_12basic_stringIcNS_11char_traitsIcEENS_9allocatorIcEEEEiEENS5_IS8_EEE8max_sizeEv, symObjAddr: 0x2740, symBinAddr: 0x1000046CC, symSize: 0x60 }
  - { offsetInCU: 0xCAA5, offset: 0xCAA5, size: 0x8, addend: 0x0, symName: __ZNKSt3__16vectorINS_4pairINS_12basic_stringIcNS_11char_traitsIcEENS_9allocatorIcEEEEiEENS5_IS8_EEE20__throw_length_errorB8ue170006Ev, symObjAddr: 0x27A0, symBinAddr: 0x10000472C, symSize: 0x1C }
  - { offsetInCU: 0xCACA, offset: 0xCACA, size: 0x8, addend: 0x0, symName: __ZNKSt3__16vectorINS_4pairINS_12basic_stringIcNS_11char_traitsIcEENS_9allocatorIcEEEEiEENS5_IS8_EEE14__annotate_newB8ue170006Em, symObjAddr: 0x27FC, symBinAddr: 0x100004788, symSize: 0xAC }
  - { offsetInCU: 0xCB08, offset: 0xCB08, size: 0x8, addend: 0x0, symName: __ZNSt3__116allocator_traitsINS_9allocatorINS_4pairINS_12basic_stringIcNS_11char_traitsIcEENS1_IcEEEEiEEEEE8max_sizeB8ue170006IS9_vEEmRKS9_, symObjAddr: 0x28D4, symBinAddr: 0x100004860, symSize: 0x24 }
  - { offsetInCU: 0xCB36, offset: 0xCB36, size: 0x8, addend: 0x0, symName: __ZNKSt3__16vectorINS_4pairINS_12basic_stringIcNS_11char_traitsIcEENS_9allocatorIcEEEEiEENS5_IS8_EEE7__allocB8ue170006Ev, symObjAddr: 0x28F8, symBinAddr: 0x100004884, symSize: 0x28 }
  - { offsetInCU: 0xCB5B, offset: 0xCB5B, size: 0x8, addend: 0x0, symName: __ZNSt3__114numeric_limitsIlE3maxB8ue170006Ev, symObjAddr: 0x2920, symBinAddr: 0x1000048AC, symSize: 0x14 }
  - { offsetInCU: 0xCB83, offset: 0xCB83, size: 0x8, addend: 0x0, symName: __ZNKSt3__16__lessIvvEclB8ue170006ImmEEbRKT_RKT0_, symObjAddr: 0x2988, symBinAddr: 0x100004914, symSize: 0x34 }
  - { offsetInCU: 0xCBD6, offset: 0xCBD6, size: 0x8, addend: 0x0, symName: __ZNKSt3__19allocatorINS_4pairINS_12basic_stringIcNS_11char_traitsIcEENS0_IcEEEEiEEE8max_sizeB8ue170006Ev, symObjAddr: 0x29BC, symBinAddr: 0x100004948, symSize: 0x14 }
  - { offsetInCU: 0xCBFB, offset: 0xCBFB, size: 0x8, addend: 0x0, symName: __ZNKSt3__117__compressed_pairIPNS_4pairINS_12basic_stringIcNS_11char_traitsIcEENS_9allocatorIcEEEEiEENS5_IS8_EEE6secondB8ue170006Ev, symObjAddr: 0x29D0, symBinAddr: 0x10000495C, symSize: 0x24 }
  - { offsetInCU: 0xCC20, offset: 0xCC20, size: 0x8, addend: 0x0, symName: __ZNKSt3__122__compressed_pair_elemINS_9allocatorINS_4pairINS_12basic_stringIcNS_11char_traitsIcEENS1_IcEEEEiEEEELi1ELb1EE5__getB8ue170006Ev, symObjAddr: 0x29F4, symBinAddr: 0x100004980, symSize: 0x14 }
  - { offsetInCU: 0xCC45, offset: 0xCC45, size: 0x8, addend: 0x0, symName: __ZNSt3__123__libcpp_numeric_limitsIlLb1EE3maxB8ue170006Ev, symObjAddr: 0x2A08, symBinAddr: 0x100004994, symSize: 0x8 }
  - { offsetInCU: 0xCC59, offset: 0xCC59, size: 0x8, addend: 0x0, symName: __ZNSt12length_errorC1B8ue170006EPKc, symObjAddr: 0x2A74, symBinAddr: 0x100004A00, symSize: 0x34 }
  - { offsetInCU: 0xCC90, offset: 0xCC90, size: 0x8, addend: 0x0, symName: __ZNSt12length_errorC2B8ue170006EPKc, symObjAddr: 0x2AA8, symBinAddr: 0x100004A34, symSize: 0x4C }
  - { offsetInCU: 0xCCC7, offset: 0xCCC7, size: 0x8, addend: 0x0, symName: __ZNSt3__19allocatorINS_4pairINS_12basic_stringIcNS_11char_traitsIcEENS0_IcEEEEiEEE8allocateB8ue170006Em, symObjAddr: 0x2AF4, symBinAddr: 0x100004A80, symSize: 0x58 }
  - { offsetInCU: 0xCCFA, offset: 0xCCFA, size: 0x8, addend: 0x0, symName: __ZNSt3__16vectorINS_4pairINS_12basic_stringIcNS_11char_traitsIcEENS_9allocatorIcEEEEiEENS5_IS8_EEE22__construct_one_at_endB8ue170006IJRKS8_EEEvDpOT_, symObjAddr: 0x2C74, symBinAddr: 0x100004C00, symSize: 0x90 }
  - { offsetInCU: 0xCD47, offset: 0xCD47, size: 0x8, addend: 0x0, symName: __ZNSt3__16vectorINS_4pairINS_12basic_stringIcNS_11char_traitsIcEENS_9allocatorIcEEEEiEENS5_IS8_EEE21__push_back_slow_pathIRKS8_EEvOT_, symObjAddr: 0x2D04, symBinAddr: 0x100004C90, symSize: 0xD8 }
  - { offsetInCU: 0xCDA4, offset: 0xCDA4, size: 0x8, addend: 0x0, symName: __ZNSt3__116allocator_traitsINS_9allocatorINS_4pairINS_12basic_stringIcNS_11char_traitsIcEENS1_IcEEEEiEEEEE9constructB8ue170006IS8_JRKS8_EvEEvRS9_PT_DpOT0_, symObjAddr: 0x2DDC, symBinAddr: 0x100004D68, symSize: 0x34 }
  - { offsetInCU: 0xCDFB, offset: 0xCDFB, size: 0x8, addend: 0x0, symName: __ZNSt3__19allocatorINS_4pairINS_12basic_stringIcNS_11char_traitsIcEENS0_IcEEEEiEEE9constructB8ue170006IS7_JRKS7_EEEvPT_DpOT0_, symObjAddr: 0x2E10, symBinAddr: 0x100004D9C, symSize: 0x30 }
  - { offsetInCU: 0xCE50, offset: 0xCE50, size: 0x8, addend: 0x0, symName: __ZNSt3__114__split_bufferINS_4pairINS_12basic_stringIcNS_11char_traitsIcEENS_9allocatorIcEEEEiEERNS5_IS8_EEEC1EmmSA_, symObjAddr: 0x2E40, symBinAddr: 0x100004DCC, symSize: 0x44 }
  - { offsetInCU: 0xCEA5, offset: 0xCEA5, size: 0x8, addend: 0x0, symName: __ZNSt3__114__split_bufferINS_4pairINS_12basic_stringIcNS_11char_traitsIcEENS_9allocatorIcEEEEiEERNS5_IS8_EEED1Ev, symObjAddr: 0x2F94, symBinAddr: 0x100004F20, symSize: 0x2C }
  - { offsetInCU: 0xCED0, offset: 0xCED0, size: 0x8, addend: 0x0, symName: __ZNSt3__114__split_bufferINS_4pairINS_12basic_stringIcNS_11char_traitsIcEENS_9allocatorIcEEEEiEERNS5_IS8_EEEC2EmmSA_, symObjAddr: 0x2FC0, symBinAddr: 0x100004F4C, symSize: 0xD4 }
  - { offsetInCU: 0xCF43, offset: 0xCF43, size: 0x8, addend: 0x0, symName: __ZNSt3__117__compressed_pairIPNS_4pairINS_12basic_stringIcNS_11char_traitsIcEENS_9allocatorIcEEEEiEERNS5_IS8_EEEC1B8ue170006IDnSB_EEOT_OT0_, symObjAddr: 0x3094, symBinAddr: 0x100005020, symSize: 0x3C }
  - { offsetInCU: 0xCF9A, offset: 0xCF9A, size: 0x8, addend: 0x0, symName: __ZNSt3__114__split_bufferINS_4pairINS_12basic_stringIcNS_11char_traitsIcEENS_9allocatorIcEEEEiEERNS5_IS8_EEE7__allocB8ue170006Ev, symObjAddr: 0x30D0, symBinAddr: 0x10000505C, symSize: 0x28 }
  - { offsetInCU: 0xCFBF, offset: 0xCFBF, size: 0x8, addend: 0x0, symName: __ZNSt3__114__split_bufferINS_4pairINS_12basic_stringIcNS_11char_traitsIcEENS_9allocatorIcEEEEiEERNS5_IS8_EEE9__end_capB8ue170006Ev, symObjAddr: 0x30F8, symBinAddr: 0x100005084, symSize: 0x28 }
  - { offsetInCU: 0xCFE4, offset: 0xCFE4, size: 0x8, addend: 0x0, symName: __ZNSt3__117__compressed_pairIPNS_4pairINS_12basic_stringIcNS_11char_traitsIcEENS_9allocatorIcEEEEiEERNS5_IS8_EEEC2B8ue170006IDnSB_EEOT_OT0_, symObjAddr: 0x3120, symBinAddr: 0x1000050AC, symSize: 0x48 }
  - { offsetInCU: 0xD03B, offset: 0xD03B, size: 0x8, addend: 0x0, symName: __ZNSt3__122__compressed_pair_elemIRNS_9allocatorINS_4pairINS_12basic_stringIcNS_11char_traitsIcEENS1_IcEEEEiEEEELi1ELb0EEC2B8ue170006ISA_vEEOT_, symObjAddr: 0x3168, symBinAddr: 0x1000050F4, symSize: 0x20 }
  - { offsetInCU: 0xD07C, offset: 0xD07C, size: 0x8, addend: 0x0, symName: __ZNSt3__117__compressed_pairIPNS_4pairINS_12basic_stringIcNS_11char_traitsIcEENS_9allocatorIcEEEEiEERNS5_IS8_EEE6secondB8ue170006Ev, symObjAddr: 0x3188, symBinAddr: 0x100005114, symSize: 0x28 }
  - { offsetInCU: 0xD0A1, offset: 0xD0A1, size: 0x8, addend: 0x0, symName: __ZNSt3__122__compressed_pair_elemIRNS_9allocatorINS_4pairINS_12basic_stringIcNS_11char_traitsIcEENS1_IcEEEEiEEEELi1ELb0EE5__getB8ue170006Ev, symObjAddr: 0x31B0, symBinAddr: 0x10000513C, symSize: 0x18 }
  - { offsetInCU: 0xD0C6, offset: 0xD0C6, size: 0x8, addend: 0x0, symName: __ZNSt3__117__compressed_pairIPNS_4pairINS_12basic_stringIcNS_11char_traitsIcEENS_9allocatorIcEEEEiEERNS5_IS8_EEE5firstB8ue170006Ev, symObjAddr: 0x31C8, symBinAddr: 0x100005154, symSize: 0x24 }
  - { offsetInCU: 0xD0EB, offset: 0xD0EB, size: 0x8, addend: 0x0, symName: __ZNSt3__129_AllocatorDestroyRangeReverseINS_9allocatorINS_4pairINS_12basic_stringIcNS_11char_traitsIcEENS1_IcEEEEiEEEENS_16reverse_iteratorIPS8_EEEC1B8ue170006ERS9_RSC_SF_, symObjAddr: 0x3390, symBinAddr: 0x10000531C, symSize: 0x44 }
  - { offsetInCU: 0xD141, offset: 0xD141, size: 0x8, addend: 0x0, symName: __ZNSt3__116allocator_traitsINS_9allocatorINS_4pairINS_12basic_stringIcNS_11char_traitsIcEENS1_IcEEEEiEEEEE9constructB8ue170006IS8_JS8_EvEEvRS9_PT_DpOT0_, symObjAddr: 0x33D4, symBinAddr: 0x100005360, symSize: 0x34 }
  - { offsetInCU: 0xD198, offset: 0xD198, size: 0x8, addend: 0x0, symName: __ZNSt3__128__exception_guard_exceptionsINS_29_AllocatorDestroyRangeReverseINS_9allocatorINS_4pairINS_12basic_stringIcNS_11char_traitsIcEENS2_IcEEEEiEEEENS_16reverse_iteratorIPS9_EEEEE10__completeB8ue170006Ev, symObjAddr: 0x3408, symBinAddr: 0x100005394, symSize: 0x1C }
  - { offsetInCU: 0xD1BD, offset: 0xD1BD, size: 0x8, addend: 0x0, symName: __ZNSt3__128__exception_guard_exceptionsINS_29_AllocatorDestroyRangeReverseINS_9allocatorINS_4pairINS_12basic_stringIcNS_11char_traitsIcEENS2_IcEEEEiEEEENS_16reverse_iteratorIPS9_EEEEED1B8ue170006Ev, symObjAddr: 0x3424, symBinAddr: 0x1000053B0, symSize: 0x2C }
  - { offsetInCU: 0xD1E6, offset: 0xD1E6, size: 0x8, addend: 0x0, symName: __ZNSt3__128__exception_guard_exceptionsINS_29_AllocatorDestroyRangeReverseINS_9allocatorINS_4pairINS_12basic_stringIcNS_11char_traitsIcEENS2_IcEEEEiEEEENS_16reverse_iteratorIPS9_EEEEEC1B8ue170006ESE_, symObjAddr: 0x3450, symBinAddr: 0x1000053DC, symSize: 0x34 }
  - { offsetInCU: 0xD21E, offset: 0xD21E, size: 0x8, addend: 0x0, symName: __ZNSt3__128__exception_guard_exceptionsINS_29_AllocatorDestroyRangeReverseINS_9allocatorINS_4pairINS_12basic_stringIcNS_11char_traitsIcEENS2_IcEEEEiEEEENS_16reverse_iteratorIPS9_EEEEEC2B8ue170006ESE_, symObjAddr: 0x3484, symBinAddr: 0x100005410, symSize: 0x30 }
  - { offsetInCU: 0xD256, offset: 0xD256, size: 0x8, addend: 0x0, symName: __ZNSt3__129_AllocatorDestroyRangeReverseINS_9allocatorINS_4pairINS_12basic_stringIcNS_11char_traitsIcEENS1_IcEEEEiEEEENS_16reverse_iteratorIPS8_EEEC2B8ue170006ERS9_RSC_SF_, symObjAddr: 0x34B4, symBinAddr: 0x100005440, symSize: 0x38 }
  - { offsetInCU: 0xD2AC, offset: 0xD2AC, size: 0x8, addend: 0x0, symName: __ZNSt3__19allocatorINS_4pairINS_12basic_stringIcNS_11char_traitsIcEENS0_IcEEEEiEEE9constructB8ue170006IS7_JS7_EEEvPT_DpOT0_, symObjAddr: 0x34EC, symBinAddr: 0x100005478, symSize: 0x30 }
  - { offsetInCU: 0xD301, offset: 0xD301, size: 0x8, addend: 0x0, symName: __ZNSt3__14pairINS_12basic_stringIcNS_11char_traitsIcEENS_9allocatorIcEEEEiEC1B8ue170006EOS7_, symObjAddr: 0x351C, symBinAddr: 0x1000054A8, symSize: 0x34 }
  - { offsetInCU: 0xD334, offset: 0xD334, size: 0x8, addend: 0x0, symName: __ZNSt3__14pairINS_12basic_stringIcNS_11char_traitsIcEENS_9allocatorIcEEEEiEC2B8ue170006EOS7_, symObjAddr: 0x3550, symBinAddr: 0x1000054DC, symSize: 0x40 }
  - { offsetInCU: 0xD367, offset: 0xD367, size: 0x8, addend: 0x0, symName: __ZNSt3__112basic_stringIcNS_11char_traitsIcEENS_9allocatorIcEEEC1B8ue170006EOS5_, symObjAddr: 0x3590, symBinAddr: 0x10000551C, symSize: 0x34 }
  - { offsetInCU: 0xD39F, offset: 0xD39F, size: 0x8, addend: 0x0, symName: __ZNSt3__112basic_stringIcNS_11char_traitsIcEENS_9allocatorIcEEEC2B8ue170006EOS5_, symObjAddr: 0x35C4, symBinAddr: 0x100005550, symSize: 0x48 }
  - { offsetInCU: 0xD3D7, offset: 0xD3D7, size: 0x8, addend: 0x0, symName: __ZNSt3__128__exception_guard_exceptionsINS_29_AllocatorDestroyRangeReverseINS_9allocatorINS_4pairINS_12basic_stringIcNS_11char_traitsIcEENS2_IcEEEEiEEEENS_16reverse_iteratorIPS9_EEEEED2B8ue170006Ev, symObjAddr: 0x360C, symBinAddr: 0x100005598, symSize: 0x50 }
  - { offsetInCU: 0xD400, offset: 0xD400, size: 0x8, addend: 0x0, symName: __ZNKSt3__129_AllocatorDestroyRangeReverseINS_9allocatorINS_4pairINS_12basic_stringIcNS_11char_traitsIcEENS1_IcEEEEiEEEENS_16reverse_iteratorIPS8_EEEclB8ue170006Ev, symObjAddr: 0x365C, symBinAddr: 0x1000055E8, symSize: 0xB4 }
  - { offsetInCU: 0xD426, offset: 0xD426, size: 0x8, addend: 0x0, symName: __ZNSt3__116reverse_iteratorINS0_IPNS_4pairINS_12basic_stringIcNS_11char_traitsIcEENS_9allocatorIcEEEEiEEEEEC1B8ue170006ESA_, symObjAddr: 0x3780, symBinAddr: 0x10000570C, symSize: 0x3C }
  - { offsetInCU: 0xD45D, offset: 0xD45D, size: 0x8, addend: 0x0, symName: __ZNSt3__116reverse_iteratorINS0_IPNS_4pairINS_12basic_stringIcNS_11char_traitsIcEENS_9allocatorIcEEEEiEEEEEppB8ue170006Ev, symObjAddr: 0x3840, symBinAddr: 0x1000057CC, symSize: 0x30 }
  - { offsetInCU: 0xD482, offset: 0xD482, size: 0x8, addend: 0x0, symName: __ZNKSt3__116reverse_iteratorINS0_IPNS_4pairINS_12basic_stringIcNS_11char_traitsIcEENS_9allocatorIcEEEEiEEEEE4baseB8ue170006Ev, symObjAddr: 0x3870, symBinAddr: 0x1000057FC, symSize: 0x24 }
  - { offsetInCU: 0xD4AC, offset: 0xD4AC, size: 0x8, addend: 0x0, symName: __ZNSt3__119__to_address_helperINS_16reverse_iteratorINS1_IPNS_4pairINS_12basic_stringIcNS_11char_traitsIcEENS_9allocatorIcEEEEiEEEEEEvE6__callB8ue170006ERKSC_, symObjAddr: 0x3894, symBinAddr: 0x100005820, symSize: 0x38 }
  - { offsetInCU: 0xD4CF, offset: 0xD4CF, size: 0x8, addend: 0x0, symName: __ZNKSt3__116reverse_iteratorINS0_IPNS_4pairINS_12basic_stringIcNS_11char_traitsIcEENS_9allocatorIcEEEEiEEEEEptB8ue170006Ev, symObjAddr: 0x38CC, symBinAddr: 0x100005858, symSize: 0x24 }
  - { offsetInCU: 0xD4F4, offset: 0xD4F4, size: 0x8, addend: 0x0, symName: __ZNKSt3__116reverse_iteratorINS0_IPNS_4pairINS_12basic_stringIcNS_11char_traitsIcEENS_9allocatorIcEEEEiEEEEEdeB8ue170006Ev, symObjAddr: 0x38F0, symBinAddr: 0x10000587C, symSize: 0x34 }
  - { offsetInCU: 0xD527, offset: 0xD527, size: 0x8, addend: 0x0, symName: __ZNSt3__116reverse_iteratorIPNS_4pairINS_12basic_stringIcNS_11char_traitsIcEENS_9allocatorIcEEEEiEEEmmB8ue170006Ev, symObjAddr: 0x3924, symBinAddr: 0x1000058B0, symSize: 0x20 }
  - { offsetInCU: 0xD54C, offset: 0xD54C, size: 0x8, addend: 0x0, symName: __ZNSt3__116reverse_iteratorINS0_IPNS_4pairINS_12basic_stringIcNS_11char_traitsIcEENS_9allocatorIcEEEEiEEEEEC2B8ue170006ESA_, symObjAddr: 0x3944, symBinAddr: 0x1000058D0, symSize: 0x2C }
  - { offsetInCU: 0xD583, offset: 0xD583, size: 0x8, addend: 0x0, symName: __ZNSt3__114__split_bufferINS_4pairINS_12basic_stringIcNS_11char_traitsIcEENS_9allocatorIcEEEEiEERNS5_IS8_EEED2Ev, symObjAddr: 0x3970, symBinAddr: 0x1000058FC, symSize: 0x8C }
  - { offsetInCU: 0xD5AE, offset: 0xD5AE, size: 0x8, addend: 0x0, symName: __ZNSt3__114__split_bufferINS_4pairINS_12basic_stringIcNS_11char_traitsIcEENS_9allocatorIcEEEEiEERNS5_IS8_EEE5clearB8ue170006Ev, symObjAddr: 0x39FC, symBinAddr: 0x100005988, symSize: 0x28 }
  - { offsetInCU: 0xD5D3, offset: 0xD5D3, size: 0x8, addend: 0x0, symName: __ZNKSt3__114__split_bufferINS_4pairINS_12basic_stringIcNS_11char_traitsIcEENS_9allocatorIcEEEEiEERNS5_IS8_EEE8capacityB8ue170006Ev, symObjAddr: 0x3A24, symBinAddr: 0x1000059B0, symSize: 0x40 }
  - { offsetInCU: 0xD5F8, offset: 0xD5F8, size: 0x8, addend: 0x0, symName: __ZNSt3__114__split_bufferINS_4pairINS_12basic_stringIcNS_11char_traitsIcEENS_9allocatorIcEEEEiEERNS5_IS8_EEE17__destruct_at_endB8ue170006EPS8_, symObjAddr: 0x3A64, symBinAddr: 0x1000059F0, symSize: 0x2C }
  - { offsetInCU: 0xD62A, offset: 0xD62A, size: 0x8, addend: 0x0, symName: __ZNSt3__114__split_bufferINS_4pairINS_12basic_stringIcNS_11char_traitsIcEENS_9allocatorIcEEEEiEERNS5_IS8_EEE17__destruct_at_endB8ue170006EPS8_NS_17integral_constantIbLb0EEE, symObjAddr: 0x3A90, symBinAddr: 0x100005A1C, symSize: 0x80 }
  - { offsetInCU: 0xD669, offset: 0xD669, size: 0x8, addend: 0x0, symName: __ZNKSt3__114__split_bufferINS_4pairINS_12basic_stringIcNS_11char_traitsIcEENS_9allocatorIcEEEEiEERNS5_IS8_EEE9__end_capB8ue170006Ev, symObjAddr: 0x3B10, symBinAddr: 0x100005A9C, symSize: 0x28 }
  - { offsetInCU: 0xD68E, offset: 0xD68E, size: 0x8, addend: 0x0, symName: __ZNKSt3__117__compressed_pairIPNS_4pairINS_12basic_stringIcNS_11char_traitsIcEENS_9allocatorIcEEEEiEERNS5_IS8_EEE5firstB8ue170006Ev, symObjAddr: 0x3B38, symBinAddr: 0x100005AC4, symSize: 0x24 }
  - { offsetInCU: 0xD6B3, offset: 0xD6B3, size: 0x8, addend: 0x0, symName: __ZNSt3__16vectorINS_4pairINS_12basic_stringIcNS_11char_traitsIcEENS_9allocatorIcEEEEiEENS5_IS8_EEEC2ERKSA_, symObjAddr: 0x3B5C, symBinAddr: 0x100005AE8, symSize: 0x94 }
  - { offsetInCU: 0xD6ED, offset: 0xD6ED, size: 0x8, addend: 0x0, symName: __ZNSt3__116allocator_traitsINS_9allocatorINS_4pairINS_12basic_stringIcNS_11char_traitsIcEENS1_IcEEEEiEEEEE37select_on_container_copy_constructionB8ue170006IS9_vvEES9_RKS9_, symObjAddr: 0x3BF0, symBinAddr: 0x100005B7C, symSize: 0x10 }
  - { offsetInCU: 0xD721, offset: 0xD721, size: 0x8, addend: 0x0, symName: __ZNSt3__117__compressed_pairIPNS_4pairINS_12basic_stringIcNS_11char_traitsIcEENS_9allocatorIcEEEEiEENS5_IS8_EEEC1B8ue170006IDnSA_EEOT_OT0_, symObjAddr: 0x3C00, symBinAddr: 0x100005B8C, symSize: 0x3C }
  - { offsetInCU: 0xD778, offset: 0xD778, size: 0x8, addend: 0x0, symName: __ZNSt3__16vectorINS_4pairINS_12basic_stringIcNS_11char_traitsIcEENS_9allocatorIcEEEEiEENS5_IS8_EEE16__init_with_sizeB8ue170006IPS8_SC_EEvT_T0_m, symObjAddr: 0x3C3C, symBinAddr: 0x100005BC8, symSize: 0xB8 }
  - { offsetInCU: 0xD7EB, offset: 0xD7EB, size: 0x8, addend: 0x0, symName: __ZNSt3__117__compressed_pairIPNS_4pairINS_12basic_stringIcNS_11char_traitsIcEENS_9allocatorIcEEEEiEENS5_IS8_EEEC2B8ue170006IDnSA_EEOT_OT0_, symObjAddr: 0x3CF4, symBinAddr: 0x100005C80, symSize: 0x44 }
  - { offsetInCU: 0xD842, offset: 0xD842, size: 0x8, addend: 0x0, symName: __ZNSt3__122__compressed_pair_elemINS_9allocatorINS_4pairINS_12basic_stringIcNS_11char_traitsIcEENS1_IcEEEEiEEEELi1ELb1EEC2B8ue170006IS9_vEEOT_, symObjAddr: 0x3D38, symBinAddr: 0x100005CC4, symSize: 0x18 }
  - { offsetInCU: 0xD883, offset: 0xD883, size: 0x8, addend: 0x0, symName: __ZNSt3__128__exception_guard_exceptionsINS_6vectorINS_4pairINS_12basic_stringIcNS_11char_traitsIcEENS_9allocatorIcEEEEiEENS6_IS9_EEE16__destroy_vectorEE10__completeB8ue170006Ev, symObjAddr: 0x3D90, symBinAddr: 0x100005D1C, symSize: 0x1C }
  - { offsetInCU: 0xD8A8, offset: 0xD8A8, size: 0x8, addend: 0x0, symName: __ZNSt3__128__exception_guard_exceptionsINS_6vectorINS_4pairINS_12basic_stringIcNS_11char_traitsIcEENS_9allocatorIcEEEEiEENS6_IS9_EEE16__destroy_vectorEED1B8ue170006Ev, symObjAddr: 0x3DAC, symBinAddr: 0x100005D38, symSize: 0x2C }
  - { offsetInCU: 0xD8D1, offset: 0xD8D1, size: 0x8, addend: 0x0, symName: __ZNSt3__128__exception_guard_exceptionsINS_6vectorINS_4pairINS_12basic_stringIcNS_11char_traitsIcEENS_9allocatorIcEEEEiEENS6_IS9_EEE16__destroy_vectorEEC1B8ue170006ESC_, symObjAddr: 0x3DD8, symBinAddr: 0x100005D64, symSize: 0x34 }
  - { offsetInCU: 0xD908, offset: 0xD908, size: 0x8, addend: 0x0, symName: __ZNSt3__128__exception_guard_exceptionsINS_6vectorINS_4pairINS_12basic_stringIcNS_11char_traitsIcEENS_9allocatorIcEEEEiEENS6_IS9_EEE16__destroy_vectorEEC2B8ue170006ESC_, symObjAddr: 0x3E0C, symBinAddr: 0x100005D98, symSize: 0x24 }
  - { offsetInCU: 0xD93F, offset: 0xD93F, size: 0x8, addend: 0x0, symName: __ZNSt3__128__exception_guard_exceptionsINS_6vectorINS_4pairINS_12basic_stringIcNS_11char_traitsIcEENS_9allocatorIcEEEEiEENS6_IS9_EEE16__destroy_vectorEED2B8ue170006Ev, symObjAddr: 0x3E30, symBinAddr: 0x100005DBC, symSize: 0x48 }
  - { offsetInCU: 0xD968, offset: 0xD968, size: 0x8, addend: 0x0, symName: __ZNKSt3__16vectorINS_4pairINS_12basic_stringIcNS_11char_traitsIcEENS_9allocatorIcEEEEiEENS5_IS8_EEE20__throw_out_of_rangeB8ue170006Ev, symObjAddr: 0x3E78, symBinAddr: 0x100005E04, symSize: 0x1C }
  - { offsetInCU: 0xD98D, offset: 0xD98D, size: 0x8, addend: 0x0, symName: __ZNSt12out_of_rangeC1B8ue170006EPKc, symObjAddr: 0x3EF8, symBinAddr: 0x100005E84, symSize: 0x34 }
  - { offsetInCU: 0xD9C4, offset: 0xD9C4, size: 0x8, addend: 0x0, symName: __ZNSt12out_of_rangeC2B8ue170006EPKc, symObjAddr: 0x3F2C, symBinAddr: 0x100005EB8, symSize: 0x4C }
  - { offsetInCU: 0xD9FB, offset: 0xD9FB, size: 0x8, addend: 0x0, symName: __ZNSt3__14pairINS_12basic_stringIcNS_11char_traitsIcEENS_9allocatorIcEEEEiEC2B8ue170006IRA6_KciLPv0EEEOT_OT0_, symObjAddr: 0x3F78, symBinAddr: 0x100005F04, symSize: 0x44 }
  - { offsetInCU: 0xDA5D, offset: 0xDA5D, size: 0x8, addend: 0x0, symName: __ZNSt3__112basic_stringIcNS_11char_traitsIcEENS_9allocatorIcEEEC1B8ue170006ILi0EEEPKc, symObjAddr: 0x3FBC, symBinAddr: 0x100005F48, symSize: 0x34 }
  - { offsetInCU: 0xDA9B, offset: 0xDA9B, size: 0x8, addend: 0x0, symName: __ZNSt3__112basic_stringIcNS_11char_traitsIcEENS_9allocatorIcEEEC2B8ue170006ILi0EEEPKc, symObjAddr: 0x3FF0, symBinAddr: 0x100005F7C, symSize: 0x58 }
  - { offsetInCU: 0xDAD9, offset: 0xDAD9, size: 0x8, addend: 0x0, symName: __ZNSt3__111char_traitsIcE6lengthB8ue170006EPKc, symObjAddr: 0x4048, symBinAddr: 0x100005FD4, symSize: 0x34 }
  - { offsetInCU: 0xDB1A, offset: 0xDB1A, size: 0x8, addend: 0x0, symName: __ZNKSt3__113basic_ostreamIcNS_11char_traitsIcEEE6sentrycvbB8ue170006Ev, symObjAddr: 0x428C, symBinAddr: 0x100006218, symSize: 0x1C }
  - { offsetInCU: 0xDB3F, offset: 0xDB3F, size: 0x8, addend: 0x0, symName: __ZNSt3__119ostreambuf_iteratorIcNS_11char_traitsIcEEEC1B8ue170006ERNS_13basic_ostreamIcS2_EE, symObjAddr: 0x44E8, symBinAddr: 0x100006474, symSize: 0x34 }
  - { offsetInCU: 0xDB76, offset: 0xDB76, size: 0x8, addend: 0x0, symName: __ZNKSt3__18ios_base5flagsB8ue170006Ev, symObjAddr: 0x451C, symBinAddr: 0x1000064A8, symSize: 0x18 }
  - { offsetInCU: 0xDB9C, offset: 0xDB9C, size: 0x8, addend: 0x0, symName: __ZNKSt3__19basic_iosIcNS_11char_traitsIcEEE4fillB8ue170006Ev, symObjAddr: 0x4534, symBinAddr: 0x1000064C0, symSize: 0x64 }
  - { offsetInCU: 0xDBC3, offset: 0xDBC3, size: 0x8, addend: 0x0, symName: __ZNKSt3__119ostreambuf_iteratorIcNS_11char_traitsIcEEE6failedB8ue170006Ev, symObjAddr: 0x4598, symBinAddr: 0x100006524, symSize: 0x24 }
  - { offsetInCU: 0xDBE8, offset: 0xDBE8, size: 0x8, addend: 0x0, symName: __ZNSt3__19basic_iosIcNS_11char_traitsIcEEE8setstateB8ue170006Ej, symObjAddr: 0x45BC, symBinAddr: 0x100006548, symSize: 0x2C }
  - { offsetInCU: 0xDC1C, offset: 0xDC1C, size: 0x8, addend: 0x0, symName: __ZNKSt3__18ios_base5widthB8ue170006Ev, symObjAddr: 0x45E8, symBinAddr: 0x100006574, symSize: 0x18 }
  - { offsetInCU: 0xDC43, offset: 0xDC43, size: 0x8, addend: 0x0, symName: __ZNSt3__115basic_streambufIcNS_11char_traitsIcEEE5sputnB8ue170006EPKcl, symObjAddr: 0x4600, symBinAddr: 0x10000658C, symSize: 0x3C }
  - { offsetInCU: 0xDC84, offset: 0xDC84, size: 0x8, addend: 0x0, symName: __ZNSt3__112basic_stringIcNS_11char_traitsIcEENS_9allocatorIcEEEC1B8ue170006Emc, symObjAddr: 0x463C, symBinAddr: 0x1000065C8, symSize: 0x3C }
  - { offsetInCU: 0xDCCB, offset: 0xDCCB, size: 0x8, addend: 0x0, symName: __ZNKSt3__112basic_stringIcNS_11char_traitsIcEENS_9allocatorIcEEE4dataB8ue170006Ev, symObjAddr: 0x4678, symBinAddr: 0x100006604, symSize: 0x28 }
  - { offsetInCU: 0xDCF0, offset: 0xDCF0, size: 0x8, addend: 0x0, symName: __ZNSt3__18ios_base5widthB8ue170006El, symObjAddr: 0x46A0, symBinAddr: 0x10000662C, symSize: 0x2C }
  - { offsetInCU: 0xDD35, offset: 0xDD35, size: 0x8, addend: 0x0, symName: __ZNSt3__112basic_stringIcNS_11char_traitsIcEENS_9allocatorIcEEEC2B8ue170006Emc, symObjAddr: 0x46CC, symBinAddr: 0x100006658, symSize: 0x4C }
  - { offsetInCU: 0xDD7C, offset: 0xDD7C, size: 0x8, addend: 0x0, symName: __ZNKSt3__112basic_stringIcNS_11char_traitsIcEENS_9allocatorIcEEE13__get_pointerB8ue170006Ev, symObjAddr: 0x472C, symBinAddr: 0x1000066B8, symSize: 0x54 }
  - { offsetInCU: 0xDDA1, offset: 0xDDA1, size: 0x8, addend: 0x0, symName: __ZNKSt3__112basic_stringIcNS_11char_traitsIcEENS_9allocatorIcEEE9__is_longB8ue170006Ev, symObjAddr: 0x4780, symBinAddr: 0x10000670C, symSize: 0x38 }
  - { offsetInCU: 0xDDC6, offset: 0xDDC6, size: 0x8, addend: 0x0, symName: __ZNKSt3__112basic_stringIcNS_11char_traitsIcEENS_9allocatorIcEEE18__get_long_pointerB8ue170006Ev, symObjAddr: 0x47B8, symBinAddr: 0x100006744, symSize: 0x28 }
  - { offsetInCU: 0xDDEB, offset: 0xDDEB, size: 0x8, addend: 0x0, symName: __ZNKSt3__112basic_stringIcNS_11char_traitsIcEENS_9allocatorIcEEE19__get_short_pointerB8ue170006Ev, symObjAddr: 0x47E0, symBinAddr: 0x10000676C, symSize: 0x28 }
  - { offsetInCU: 0xDE10, offset: 0xDE10, size: 0x8, addend: 0x0, symName: __ZNKSt3__117__compressed_pairINS_12basic_stringIcNS_11char_traitsIcEENS_9allocatorIcEEE5__repES5_E5firstB8ue170006Ev, symObjAddr: 0x4808, symBinAddr: 0x100006794, symSize: 0x24 }
  - { offsetInCU: 0xDE35, offset: 0xDE35, size: 0x8, addend: 0x0, symName: __ZNKSt3__122__compressed_pair_elemINS_12basic_stringIcNS_11char_traitsIcEENS_9allocatorIcEEE5__repELi0ELb0EE5__getB8ue170006Ev, symObjAddr: 0x482C, symBinAddr: 0x1000067B8, symSize: 0x14 }
  - { offsetInCU: 0xDE5A, offset: 0xDE5A, size: 0x8, addend: 0x0, symName: __ZNSt3__114pointer_traitsIPKcE10pointer_toB8ue170006ERS1_, symObjAddr: 0x4840, symBinAddr: 0x1000067CC, symSize: 0x14 }
  - { offsetInCU: 0xDE7D, offset: 0xDE7D, size: 0x8, addend: 0x0, symName: __ZNSt3__119ostreambuf_iteratorIcNS_11char_traitsIcEEEC2B8ue170006ERNS_13basic_ostreamIcS2_EE, symObjAddr: 0x4854, symBinAddr: 0x1000067E0, symSize: 0x54 }
  - { offsetInCU: 0xDEB3, offset: 0xDEB3, size: 0x8, addend: 0x0, symName: __ZNKSt3__19basic_iosIcNS_11char_traitsIcEEE5rdbufB8ue170006Ev, symObjAddr: 0x48A8, symBinAddr: 0x100006834, symSize: 0x24 }
  - { offsetInCU: 0xDEDA, offset: 0xDEDA, size: 0x8, addend: 0x0, symName: __ZNKSt3__18ios_base5rdbufB8ue170006Ev, symObjAddr: 0x48CC, symBinAddr: 0x100006858, symSize: 0x18 }
  - { offsetInCU: 0xDEFF, offset: 0xDEFF, size: 0x8, addend: 0x0, symName: __ZNSt3__111char_traitsIcE11eq_int_typeB8ue170006Eii, symObjAddr: 0x48E4, symBinAddr: 0x100006870, symSize: 0x28 }
  - { offsetInCU: 0xDF32, offset: 0xDF32, size: 0x8, addend: 0x0, symName: __ZNSt3__111char_traitsIcE3eofB8ue170006Ev, symObjAddr: 0x490C, symBinAddr: 0x100006898, symSize: 0x8 }
  - { offsetInCU: 0xDF45, offset: 0xDF45, size: 0x8, addend: 0x0, symName: __ZNKSt3__19basic_iosIcNS_11char_traitsIcEEE5widenB8ue170006Ec, symObjAddr: 0x4914, symBinAddr: 0x1000068A0, symSize: 0x84 }
  - { offsetInCU: 0xDFB2, offset: 0xDFB2, size: 0x8, addend: 0x0, symName: __ZNKSt3__15ctypeIcE5widenB8ue170006Ec, symObjAddr: 0x49C4, symBinAddr: 0x100006950, symSize: 0x38 }
  - { offsetInCU: 0xDFE5, offset: 0xDFE5, size: 0x8, addend: 0x0, symName: __ZNSt3__18ios_base8setstateB8ue170006Ej, symObjAddr: 0x49FC, symBinAddr: 0x100006988, symSize: 0x34 }
  - { offsetInCU: 0xE01B, offset: 0xE01B, size: 0x8, addend: 0x0, symName: __ZNKSt3__112basic_stringIcNS_11char_traitsIcEENS_9allocatorIcEEE4sizeB8ue170006Ev, symObjAddr: 0x4A30, symBinAddr: 0x1000069BC, symSize: 0x54 }
  - { offsetInCU: 0xE040, offset: 0xE040, size: 0x8, addend: 0x0, symName: __ZNKSt3__112basic_stringIcNS_11char_traitsIcEENS_9allocatorIcEEE15__get_long_sizeB8ue170006Ev, symObjAddr: 0x4A84, symBinAddr: 0x100006A10, symSize: 0x28 }
  - { offsetInCU: 0xE065, offset: 0xE065, size: 0x8, addend: 0x0, symName: __ZNKSt3__112basic_stringIcNS_11char_traitsIcEENS_9allocatorIcEEE16__get_short_sizeB8ue170006Ev, symObjAddr: 0x4AAC, symBinAddr: 0x100006A38, symSize: 0x34 }
  - { offsetInCU: 0x6079, offset: 0x141ED, size: 0x8, addend: 0x0, symName: __ZNSt3__17advanceB8ue170006IP6CartasllvEEvRT_T0_, symObjAddr: 0x7540, symBinAddr: 0x10000AF94, symSize: 0x38 }
  - { offsetInCU: 0x6DD3, offset: 0x14F47, size: 0x8, addend: 0x0, symName: __ZNSt3__1rsB8ue170006IcNS_11char_traitsIcEENS_9allocatorIcEEEERNS_13basic_istreamIT_T0_EES9_RNS_12basic_stringIS6_S7_T1_EE, symObjAddr: 0x548, symBinAddr: 0x100006F5C, symSize: 0x31C }
  - { offsetInCU: 0x6EA2, offset: 0x15016, size: 0x8, addend: 0x0, symName: __ZNSt3__1eqB8ue170006INS_9allocatorIcEEEEbRKNS_12basic_stringIcNS_11char_traitsIcEET_EES9_, symObjAddr: 0x8CC, symBinAddr: 0x1000072E0, symSize: 0x148 }
  - { offsetInCU: 0x6FE9, offset: 0x1515D, size: 0x8, addend: 0x0, symName: __ZNSt3__112__to_addressB8ue170006I6CartasEEPT_S3_, symObjAddr: 0x31B8, symBinAddr: 0x100008068, symSize: 0x14 }
  - { offsetInCU: 0x77DE, offset: 0x15952, size: 0x8, addend: 0x0, symName: __ZNSt3__119__allocate_at_leastB8ue170006INS_9allocatorI6CartasEEEENS_19__allocation_resultINS_16allocator_traitsIT_E7pointerEEERS6_m, symObjAddr: 0x45D0, symBinAddr: 0x100008FCC, symSize: 0x40 }
  - { offsetInCU: 0x7821, offset: 0x15995, size: 0x8, addend: 0x0, symName: __ZNSt3__142__uninitialized_allocator_move_if_noexceptB8ue170006INS_9allocatorI6CartasEENS_16reverse_iteratorIPS2_EES6_S6_EET2_RT_T0_T1_S7_, symObjAddr: 0x4788, symBinAddr: 0x100009184, symSize: 0x12C }
  - { offsetInCU: 0x78C1, offset: 0x15A35, size: 0x8, addend: 0x0, symName: __ZNSt3__14swapB8ue170006IP6CartasEENS_9enable_ifIXaasr21is_move_constructibleIT_EE5valuesr18is_move_assignableIS4_EE5valueEvE4typeERS4_S7_, symObjAddr: 0x4900, symBinAddr: 0x1000092FC, symSize: 0x3C }
  - { offsetInCU: 0x7912, offset: 0x15A86, size: 0x8, addend: 0x0, symName: __ZNSt3__122__make_exception_guardB8ue170006INS_29_AllocatorDestroyRangeReverseINS_9allocatorI6CartasEENS_16reverse_iteratorIPS3_EEEEEENS_28__exception_guard_exceptionsIT_EESA_, symObjAddr: 0x4A04, symBinAddr: 0x100009400, symSize: 0x4C }
  - { offsetInCU: 0x7948, offset: 0x15ABC, size: 0x8, addend: 0x0, symName: __ZNSt3__1neB8ue170006IP6CartasS2_EEbRKNS_16reverse_iteratorIT_EERKNS3_IT0_EE, symObjAddr: 0x4A94, symBinAddr: 0x100009490, symSize: 0x48 }
  - { offsetInCU: 0x7994, offset: 0x15B08, size: 0x8, addend: 0x0, symName: __ZNSt3__112__to_addressB8ue170006INS_16reverse_iteratorIP6CartasEEvEEu7__decayIDTclsr19__to_address_helperIT_EE6__callclsr3stdE7declvalIRKS5_EEEEES7_, symObjAddr: 0x4ADC, symBinAddr: 0x1000094D8, symSize: 0x24 }
  - { offsetInCU: 0x79F3, offset: 0x15B67, size: 0x8, addend: 0x0, symName: __ZNSt3__119__allocator_destroyB8ue170006INS_9allocatorI6CartasEENS_16reverse_iteratorINS4_IPS2_EEEES7_EEvRT_T0_T1_, symObjAddr: 0x4D8C, symBinAddr: 0x100009788, symSize: 0x70 }
  - { offsetInCU: 0x7A58, offset: 0x15BCC, size: 0x8, addend: 0x0, symName: __ZNSt3__1neB8ue170006INS_16reverse_iteratorIP6CartasEES4_EEbRKNS1_IT_EERKNS1_IT0_EE, symObjAddr: 0x4E38, symBinAddr: 0x100009834, symSize: 0x60 }
  - { offsetInCU: 0x7AA4, offset: 0x15C18, size: 0x8, addend: 0x0, symName: __ZNSt3__112__to_addressB8ue170006INS_16reverse_iteratorINS1_IP6CartasEEEEvEEu7__decayIDTclsr19__to_address_helperIT_EE6__callclsr3stdE7declvalIRKS6_EEEEES8_, symObjAddr: 0x4E98, symBinAddr: 0x100009894, symSize: 0x24 }
  - { offsetInCU: 0x7B03, offset: 0x15C77, size: 0x8, addend: 0x0, symName: __ZNSt3__122__make_exception_guardB8ue170006INS_6vectorI6CartasNS_9allocatorIS2_EEE16__destroy_vectorEEENS_28__exception_guard_exceptionsIT_EES8_, symObjAddr: 0x5B3C, symBinAddr: 0x100009DF0, symSize: 0x40 }
  - { offsetInCU: 0x7B38, offset: 0x15CAC, size: 0x8, addend: 0x0, symName: __ZNSt3__130__uninitialized_allocator_copyB8ue170006INS_9allocatorI6CartasEEPS2_S4_S4_EET2_RT_T0_T1_S5_, symObjAddr: 0x5D5C, symBinAddr: 0x10000A010, symSize: 0x80 }
  - { offsetInCU: 0x7BD5, offset: 0x15D49, size: 0x8, addend: 0x0, symName: __ZNSt3__114__unwrap_rangeB8ue170006IP6CartasS2_EENS_4pairIT0_S4_EET_S6_, symObjAddr: 0x5DDC, symBinAddr: 0x10000A090, symSize: 0x60 }
  - { offsetInCU: 0x7C21, offset: 0x15D95, size: 0x8, addend: 0x0, symName: __ZNSt3__135__uninitialized_allocator_copy_implB8ue170006INS_9allocatorI6CartasEEPS2_S4_S4_EET2_RT_T0_T1_S5_, symObjAddr: 0x5E3C, symBinAddr: 0x10000A0F0, symSize: 0xF4 }
  - { offsetInCU: 0x7CBF, offset: 0x15E33, size: 0x8, addend: 0x0, symName: __ZNSt3__113__unwrap_iterB8ue170006IP6CartasNS_18__unwrap_iter_implIS2_Lb1EEELi0EEEDTclsrT0_8__unwrapclsr3stdE7declvalIT_EEEES6_, symObjAddr: 0x5F30, symBinAddr: 0x10000A1E4, symSize: 0x24 }
  - { offsetInCU: 0x7D03, offset: 0x15E77, size: 0x8, addend: 0x0, symName: __ZNSt3__113__rewrap_iterB8ue170006IP6CartasS2_NS_18__unwrap_iter_implIS2_Lb1EEEEET_S5_T0_, symObjAddr: 0x5F54, symBinAddr: 0x10000A208, symSize: 0x3C }
  - { offsetInCU: 0x7D58, offset: 0x15ECC, size: 0x8, addend: 0x0, symName: __ZNSt3__19make_pairB8ue170006IP6CartasS2_EENS_4pairINS_18__unwrap_ref_decayIT_E4typeENS4_IT0_E4typeEEEOS5_OS8_, symObjAddr: 0x5F90, symBinAddr: 0x10000A244, symSize: 0x38 }
  - { offsetInCU: 0x7E7B, offset: 0x15FEF, size: 0x8, addend: 0x0, symName: __ZNSt3__122__make_exception_guardB8ue170006INS_29_AllocatorDestroyRangeReverseINS_9allocatorI6CartasEEPS3_EEEENS_28__exception_guard_exceptionsIT_EES8_, symObjAddr: 0x6038, symBinAddr: 0x10000A2EC, symSize: 0x4C }
  - { offsetInCU: 0x7EB1, offset: 0x16025, size: 0x8, addend: 0x0, symName: __ZNSt3__119__allocator_destroyB8ue170006INS_9allocatorI6CartasEENS_16reverse_iteratorIPS2_EES6_EEvRT_T0_T1_, symObjAddr: 0x62C8, symBinAddr: 0x10000A57C, symSize: 0x70 }
  - { offsetInCU: 0x7F67, offset: 0x160DB, size: 0x8, addend: 0x0, symName: __ZNSt3__1miB8ue170006IPK6CartasS3_EEDTmicldtfp_4baseEcldtfp0_4baseEERKNS_11__wrap_iterIT_EERKNS5_IT0_EE, symObjAddr: 0x64A0, symBinAddr: 0x10000A754, symSize: 0x48 }
  - { offsetInCU: 0x7FB3, offset: 0x16127, size: 0x8, addend: 0x0, symName: __ZNSt3__14moveB8ue170006IP6CartasS2_EET0_T_S4_S3_, symObjAddr: 0x6560, symBinAddr: 0x10000A814, symSize: 0x40 }
  - { offsetInCU: 0x800D, offset: 0x16181, size: 0x8, addend: 0x0, symName: __ZNSt3__16__moveB8ue170006INS_17_ClassicAlgPolicyEP6CartasS3_S3_EENS_4pairIT0_T2_EES5_T1_S6_, symObjAddr: 0x666C, symBinAddr: 0x10000A920, symSize: 0x44 }
  - { offsetInCU: 0x8079, offset: 0x161ED, size: 0x8, addend: 0x0, symName: __ZNSt3__123__dispatch_copy_or_moveB8ue170006INS_17_ClassicAlgPolicyENS_11__move_loopIS1_EENS_14__move_trivialEP6CartasS6_S6_EENS_4pairIT2_T4_EES8_T3_S9_, symObjAddr: 0x66B0, symBinAddr: 0x10000A964, symSize: 0x44 }
  - { offsetInCU: 0x80F7, offset: 0x1626B, size: 0x8, addend: 0x0, symName: __ZNSt3__121__unwrap_and_dispatchB8ue170006INS_10__overloadINS_11__move_loopINS_17_ClassicAlgPolicyEEENS_14__move_trivialEEEP6CartasS8_S8_Li0EEENS_4pairIT0_T2_EESA_T1_SB_, symObjAddr: 0x66F4, symBinAddr: 0x10000A9A8, symSize: 0xB4 }
  - { offsetInCU: 0x81D7, offset: 0x1634B, size: 0x8, addend: 0x0, symName: __ZNSt3__114__rewrap_rangeB8ue170006IP6CartasS2_EET_S3_T0_, symObjAddr: 0x6838, symBinAddr: 0x10000AAEC, symSize: 0x2C }
  - { offsetInCU: 0x831E, offset: 0x16492, size: 0x8, addend: 0x0, symName: __ZNSt3__18distanceB8ue170006IP6CartasEENS_15iterator_traitsIT_E15difference_typeES4_S4_, symObjAddr: 0x73C8, symBinAddr: 0x10000AE1C, symSize: 0x2C }
  - { offsetInCU: 0x8361, offset: 0x164D5, size: 0x8, addend: 0x0, symName: __ZNSt3__14nextB8ue170006IP6CartasEENS_9enable_ifIXsr29__has_input_iterator_categoryIT_EE5valueES4_E4typeES4_NS_15iterator_traitsIS4_E15difference_typeE, symObjAddr: 0x73F4, symBinAddr: 0x10000AE48, symSize: 0x34 }
  - { offsetInCU: 0x83A4, offset: 0x16518, size: 0x8, addend: 0x0, symName: __ZNSt3__14copyB8ue170006IP6CartasS2_EET0_T_S4_S3_, symObjAddr: 0x7428, symBinAddr: 0x10000AE7C, symSize: 0x40 }
  - { offsetInCU: 0x83FE, offset: 0x16572, size: 0x8, addend: 0x0, symName: __ZNSt3__16__copyB8ue170006INS_17_ClassicAlgPolicyEP6CartasS3_S3_EENS_4pairIT0_T2_EES5_T1_S6_, symObjAddr: 0x7468, symBinAddr: 0x10000AEBC, symSize: 0x44 }
  - { offsetInCU: 0x846A, offset: 0x165DE, size: 0x8, addend: 0x0, symName: __ZNSt3__19__advanceB8ue170006IP6CartasEEvRT_NS_15iterator_traitsIS3_E15difference_typeENS_26random_access_iterator_tagE, symObjAddr: 0x7578, symBinAddr: 0x10000AFCC, symSize: 0x30 }
  - { offsetInCU: 0x84B3, offset: 0x16627, size: 0x8, addend: 0x0, symName: __ZNSt3__123__dispatch_copy_or_moveB8ue170006INS_17_ClassicAlgPolicyENS_11__copy_loopIS1_EENS_14__copy_trivialEP6CartasS6_S6_EENS_4pairIT2_T4_EES8_T3_S9_, symObjAddr: 0x75A8, symBinAddr: 0x10000AFFC, symSize: 0x44 }
  - { offsetInCU: 0x8531, offset: 0x166A5, size: 0x8, addend: 0x0, symName: __ZNSt3__121__unwrap_and_dispatchB8ue170006INS_10__overloadINS_11__copy_loopINS_17_ClassicAlgPolicyEEENS_14__copy_trivialEEEP6CartasS8_S8_Li0EEENS_4pairIT0_T2_EESA_T1_SB_, symObjAddr: 0x75EC, symBinAddr: 0x10000B040, symSize: 0xB4 }
  - { offsetInCU: 0x85BF, offset: 0x16733, size: 0x8, addend: 0x0, symName: __ZNSt3__110__distanceB8ue170006IP6CartasEENS_15iterator_traitsIT_E15difference_typeES4_S4_NS_26random_access_iterator_tagE, symObjAddr: 0x7728, symBinAddr: 0x10000B17C, symSize: 0x28 }
  - { offsetInCU: 0x8D18, offset: 0x16E8C, size: 0x8, addend: 0x0, symName: __ZNSt3__16vectorI6CartasNS_9allocatorIS1_EEE26__swap_out_circular_bufferERNS_14__split_bufferIS1_RS3_EE, symObjAddr: 0x41E0, symBinAddr: 0x100008C5C, symSize: 0x110 }
  - { offsetInCU: 0xAD4D, offset: 0x18EC1, size: 0x8, addend: 0x0, symName: __ZN7BaralhoC2Ev, symObjAddr: 0x0, symBinAddr: 0x100006A6C, symSize: 0x88 }
  - { offsetInCU: 0xAD78, offset: 0x18EEC, size: 0x8, addend: 0x0, symName: __ZNSt3__16vectorI6CartasNS_9allocatorIS1_EEEC1B8ue170006Ev, symObjAddr: 0x88, symBinAddr: 0x100006AF4, symSize: 0x2C }
  - { offsetInCU: 0xADA1, offset: 0x18F15, size: 0x8, addend: 0x0, symName: __ZNSt3__16vectorI6CartasNS_9allocatorIS1_EEE5clearB8ue170006Ev, symObjAddr: 0x10C, symBinAddr: 0x100006B20, symSize: 0x44 }
  - { offsetInCU: 0xADD5, offset: 0x18F49, size: 0x8, addend: 0x0, symName: __ZNSt3__16vectorI6CartasNS_9allocatorIS1_EEED1B8ue170006Ev, symObjAddr: 0x150, symBinAddr: 0x100006B64, symSize: 0x2C }
  - { offsetInCU: 0xADFE, offset: 0x18F72, size: 0x8, addend: 0x0, symName: __ZN7BaralhoC1Ev, symObjAddr: 0x17C, symBinAddr: 0x100006B90, symSize: 0x2C }
  - { offsetInCU: 0xAE29, offset: 0x18F9D, size: 0x8, addend: 0x0, symName: __ZN7BaralhoC2ENSt3__112basic_stringIcNS0_11char_traitsIcEENS0_9allocatorIcEEEERNS0_6vectorI6CartasNS4_IS8_EEEE, symObjAddr: 0x1A8, symBinAddr: 0x100006BBC, symSize: 0x378 }
  - { offsetInCU: 0xAF34, offset: 0x190A8, size: 0x8, addend: 0x0, symName: __ZNKSt3__16vectorI6CartasNS_9allocatorIS1_EEE4sizeB8ue170006Ev, symObjAddr: 0x520, symBinAddr: 0x100006F34, symSize: 0x28 }
  - { offsetInCU: 0xAF58, offset: 0x190CC, size: 0x8, addend: 0x0, symName: __ZNSt3__16vectorI6CartasNS_9allocatorIS1_EEE2atEm, symObjAddr: 0x864, symBinAddr: 0x100007278, symSize: 0x68 }
  - { offsetInCU: 0xAF8D, offset: 0x19101, size: 0x8, addend: 0x0, symName: __ZNSt3__16vectorI6CartasNS_9allocatorIS1_EEE9push_backB8ue170006ERKS1_, symObjAddr: 0xA14, symBinAddr: 0x100007428, symSize: 0x6C }
  - { offsetInCU: 0xAFC3, offset: 0x19137, size: 0x8, addend: 0x0, symName: __ZN7BaralhoC1ENSt3__112basic_stringIcNS0_11char_traitsIcEENS0_9allocatorIcEEEERNS0_6vectorI6CartasNS4_IS8_EEEE, symObjAddr: 0xB4C, symBinAddr: 0x100007494, symSize: 0x3C }
  - { offsetInCU: 0xB00B, offset: 0x1917F, size: 0x8, addend: 0x0, symName: __ZN7BaralhoD2Ev, symObjAddr: 0xB88, symBinAddr: 0x1000074D0, symSize: 0x5C }
  - { offsetInCU: 0xB036, offset: 0x191AA, size: 0x8, addend: 0x0, symName: __ZN7BaralhoD1Ev, symObjAddr: 0xBF0, symBinAddr: 0x10000752C, symSize: 0x2C }
  - { offsetInCU: 0xB061, offset: 0x191D5, size: 0x8, addend: 0x0, symName: __ZN7Baralho7getNomeEv, symObjAddr: 0xC1C, symBinAddr: 0x100007558, symSize: 0x3C }
  - { offsetInCU: 0xB088, offset: 0x191FC, size: 0x8, addend: 0x0, symName: __ZN7Baralho16getCartasBaralhoEv, symObjAddr: 0xC58, symBinAddr: 0x100007594, symSize: 0x38 }
  - { offsetInCU: 0xB0AF, offset: 0x19223, size: 0x8, addend: 0x0, symName: __ZNSt3__16vectorI6CartasNS_9allocatorIS1_EEEC1ERKS4_, symObjAddr: 0xC90, symBinAddr: 0x1000075CC, symSize: 0x34 }
  - { offsetInCU: 0xB0E9, offset: 0x1925D, size: 0x8, addend: 0x0, symName: __ZN7Baralho7setNomeENSt3__112basic_stringIcNS0_11char_traitsIcEENS0_9allocatorIcEEEE, symObjAddr: 0xCC4, symBinAddr: 0x100007600, symSize: 0x30 }
  - { offsetInCU: 0xB11F, offset: 0x19293, size: 0x8, addend: 0x0, symName: __ZN7Baralho8getCartaEi, symObjAddr: 0xCF4, symBinAddr: 0x100007630, symSize: 0x40 }
  - { offsetInCU: 0xB154, offset: 0x192C8, size: 0x8, addend: 0x0, symName: __ZN6CartasC1ERKS_, symObjAddr: 0xD34, symBinAddr: 0x100007670, symSize: 0x34 }
  - { offsetInCU: 0xB188, offset: 0x192FC, size: 0x8, addend: 0x0, symName: __ZN7Baralho11removeCartaENSt3__112basic_stringIcNS0_11char_traitsIcEENS0_9allocatorIcEEEE, symObjAddr: 0xD68, symBinAddr: 0x1000076A4, symSize: 0xD8 }
  - { offsetInCU: 0xB1F6, offset: 0x1936A, size: 0x8, addend: 0x0, symName: __ZNSt3__16vectorI6CartasNS_9allocatorIS1_EEE5beginB8ue170006Ev, symObjAddr: 0xE40, symBinAddr: 0x10000777C, symSize: 0x30 }
  - { offsetInCU: 0xB21C, offset: 0x19390, size: 0x8, addend: 0x0, symName: __ZNSt3__16vectorI6CartasNS_9allocatorIS1_EEE5eraseB8ue170006ENS_11__wrap_iterIPKS1_EE, symObjAddr: 0xE70, symBinAddr: 0x1000077AC, symSize: 0x9C }
  - { offsetInCU: 0xB27A, offset: 0x193EE, size: 0x8, addend: 0x0, symName: __ZNSt3__111__wrap_iterIPK6CartasEC1B8ue170006IPS1_EERKNS0_IT_EEPNS_9enable_ifIXsr14is_convertibleIS7_S3_EE5valueEvE4typeE, symObjAddr: 0xF0C, symBinAddr: 0x100007848, symSize: 0x3C }
  - { offsetInCU: 0xB2C4, offset: 0x19438, size: 0x8, addend: 0x0, symName: __ZNSt3__111__wrap_iterIP6CartasEppB8ue170006Ei, symObjAddr: 0xF48, symBinAddr: 0x100007884, symSize: 0x34 }
  - { offsetInCU: 0xB301, offset: 0x19475, size: 0x8, addend: 0x0, symName: __ZN7Baralho7getSizeEv, symObjAddr: 0xF7C, symBinAddr: 0x1000078B8, symSize: 0x24 }
  - { offsetInCU: 0xB328, offset: 0x1949C, size: 0x8, addend: 0x0, symName: __ZN7Baralho9setCartasENSt3__16vectorI6CartasNS0_9allocatorIS2_EEEE, symObjAddr: 0xFA0, symBinAddr: 0x1000078DC, symSize: 0x2C }
  - { offsetInCU: 0xB35D, offset: 0x194D1, size: 0x8, addend: 0x0, symName: __ZNSt3__16vectorI6CartasNS_9allocatorIS1_EEEaSB8ue170006ERKS4_, symObjAddr: 0xFCC, symBinAddr: 0x100007908, symSize: 0x68 }
  - { offsetInCU: 0xB393, offset: 0x19507, size: 0x8, addend: 0x0, symName: __ZN7Baralho13mostraBaralhoEv, symObjAddr: 0x1034, symBinAddr: 0x100007970, symSize: 0x70 }
  - { offsetInCU: 0xB3E5, offset: 0x19559, size: 0x8, addend: 0x0, symName: __ZN7Baralho17mostraNomesCartasEv, symObjAddr: 0x10A4, symBinAddr: 0x1000079E0, symSize: 0xF4 }
  - { offsetInCU: 0xB42E, offset: 0x195A2, size: 0x8, addend: 0x0, symName: __ZN6CartasC2ERKS_, symObjAddr: 0x11E4, symBinAddr: 0x100007AD4, symSize: 0xCC }
  - { offsetInCU: 0xB4A8, offset: 0x1961C, size: 0x8, addend: 0x0, symName: __ZNSt3__16vectorI6CartasNS_9allocatorIS1_EEEC2B8ue170006Ev, symObjAddr: 0x2B38, symBinAddr: 0x100007BA0, symSize: 0x4C }
  - { offsetInCU: 0xB4D6, offset: 0x1964A, size: 0x8, addend: 0x0, symName: __ZNSt3__117__compressed_pairIP6CartasNS_9allocatorIS1_EEEC1B8ue170006IDnNS_18__default_init_tagEEEOT_OT0_, symObjAddr: 0x2B84, symBinAddr: 0x100007BEC, symSize: 0x3C }
  - { offsetInCU: 0xB52D, offset: 0x196A1, size: 0x8, addend: 0x0, symName: __ZNSt3__117__compressed_pairIP6CartasNS_9allocatorIS1_EEEC2B8ue170006IDnNS_18__default_init_tagEEEOT_OT0_, symObjAddr: 0x2BC0, symBinAddr: 0x100007C28, symSize: 0x40 }
  - { offsetInCU: 0xB584, offset: 0x196F8, size: 0x8, addend: 0x0, symName: __ZNSt3__122__compressed_pair_elemIP6CartasLi0ELb0EEC2B8ue170006IDnvEEOT_, symObjAddr: 0x2C00, symBinAddr: 0x100007C68, symSize: 0x1C }
  - { offsetInCU: 0xB5C5, offset: 0x19739, size: 0x8, addend: 0x0, symName: __ZNSt3__122__compressed_pair_elemINS_9allocatorI6CartasEELi1ELb1EEC2B8ue170006ENS_18__default_init_tagE, symObjAddr: 0x2C1C, symBinAddr: 0x100007C84, symSize: 0x2C }
  - { offsetInCU: 0xB5F8, offset: 0x1976C, size: 0x8, addend: 0x0, symName: __ZNSt3__19allocatorI6CartasEC2B8ue170006Ev, symObjAddr: 0x2C48, symBinAddr: 0x100007CB0, symSize: 0x2C }
  - { offsetInCU: 0xB621, offset: 0x19795, size: 0x8, addend: 0x0, symName: __ZNSt3__116__non_trivial_ifILb1ENS_9allocatorI6CartasEEEC2B8ue170006Ev, symObjAddr: 0x2C74, symBinAddr: 0x100007CDC, symSize: 0x14 }
  - { offsetInCU: 0xB64A, offset: 0x197BE, size: 0x8, addend: 0x0, symName: __ZNSt3__16vectorI6CartasNS_9allocatorIS1_EEED2B8ue170006Ev, symObjAddr: 0x2E40, symBinAddr: 0x100007CF0, symSize: 0x44 }
  - { offsetInCU: 0xB673, offset: 0x197E7, size: 0x8, addend: 0x0, symName: __ZNSt3__16vectorI6CartasNS_9allocatorIS1_EEE16__destroy_vectorC1B8ue170006ERS4_, symObjAddr: 0x2E84, symBinAddr: 0x100007D34, symSize: 0x34 }
  - { offsetInCU: 0xB6AB, offset: 0x1981F, size: 0x8, addend: 0x0, symName: __ZNSt3__16vectorI6CartasNS_9allocatorIS1_EEE16__destroy_vectorclB8ue170006Ev, symObjAddr: 0x2EB8, symBinAddr: 0x100007D68, symSize: 0x90 }
  - { offsetInCU: 0xB6D0, offset: 0x19844, size: 0x8, addend: 0x0, symName: __ZNSt3__16vectorI6CartasNS_9allocatorIS1_EEE16__destroy_vectorC2B8ue170006ERS4_, symObjAddr: 0x2F48, symBinAddr: 0x100007DF8, symSize: 0x20 }
  - { offsetInCU: 0xB708, offset: 0x1987C, size: 0x8, addend: 0x0, symName: __ZNSt3__16vectorI6CartasNS_9allocatorIS1_EEE7__clearB8ue170006Ev, symObjAddr: 0x2F68, symBinAddr: 0x100007E18, symSize: 0x28 }
  - { offsetInCU: 0xB72D, offset: 0x198A1, size: 0x8, addend: 0x0, symName: __ZNKSt3__16vectorI6CartasNS_9allocatorIS1_EEE17__annotate_deleteB8ue170006Ev, symObjAddr: 0x2F90, symBinAddr: 0x100007E40, symSize: 0xD4 }
  - { offsetInCU: 0xB752, offset: 0x198C6, size: 0x8, addend: 0x0, symName: __ZNSt3__116allocator_traitsINS_9allocatorI6CartasEEE10deallocateB8ue170006ERS3_PS2_m, symObjAddr: 0x3064, symBinAddr: 0x100007F14, symSize: 0x34 }
  - { offsetInCU: 0xB794, offset: 0x19908, size: 0x8, addend: 0x0, symName: __ZNSt3__16vectorI6CartasNS_9allocatorIS1_EEE7__allocB8ue170006Ev, symObjAddr: 0x3098, symBinAddr: 0x100007F48, symSize: 0x28 }
  - { offsetInCU: 0xB7B9, offset: 0x1992D, size: 0x8, addend: 0x0, symName: __ZNKSt3__16vectorI6CartasNS_9allocatorIS1_EEE8capacityB8ue170006Ev, symObjAddr: 0x30C0, symBinAddr: 0x100007F70, symSize: 0x40 }
  - { offsetInCU: 0xB7DE, offset: 0x19952, size: 0x8, addend: 0x0, symName: __ZNSt3__16vectorI6CartasNS_9allocatorIS1_EEE22__base_destruct_at_endB8ue170006EPS1_, symObjAddr: 0x3100, symBinAddr: 0x100007FB0, symSize: 0x8C }
  - { offsetInCU: 0xB821, offset: 0x19995, size: 0x8, addend: 0x0, symName: __ZNSt3__116allocator_traitsINS_9allocatorI6CartasEEE7destroyB8ue170006IS2_vEEvRS3_PT_, symObjAddr: 0x318C, symBinAddr: 0x10000803C, symSize: 0x2C }
  - { offsetInCU: 0xB85E, offset: 0x199D2, size: 0x8, addend: 0x0, symName: __ZNSt3__19allocatorI6CartasE7destroyB8ue170006EPS1_, symObjAddr: 0x31CC, symBinAddr: 0x10000807C, symSize: 0x28 }
  - { offsetInCU: 0xB891, offset: 0x19A05, size: 0x8, addend: 0x0, symName: __ZNKSt3__16vectorI6CartasNS_9allocatorIS1_EEE31__annotate_contiguous_containerB8ue170006EPKvS6_S6_S6_, symObjAddr: 0x31F4, symBinAddr: 0x1000080A4, symSize: 0x20 }
  - { offsetInCU: 0xB8E6, offset: 0x19A5A, size: 0x8, addend: 0x0, symName: __ZNKSt3__16vectorI6CartasNS_9allocatorIS1_EEE4dataB8ue170006Ev, symObjAddr: 0x3214, symBinAddr: 0x1000080C4, symSize: 0x28 }
  - { offsetInCU: 0xB90B, offset: 0x19A7F, size: 0x8, addend: 0x0, symName: __ZNSt3__19allocatorI6CartasE10deallocateB8ue170006EPS1_m, symObjAddr: 0x323C, symBinAddr: 0x1000080EC, symSize: 0x44 }
  - { offsetInCU: 0xB94C, offset: 0x19AC0, size: 0x8, addend: 0x0, symName: __ZNSt3__117__compressed_pairIP6CartasNS_9allocatorIS1_EEE6secondB8ue170006Ev, symObjAddr: 0x3280, symBinAddr: 0x100008130, symSize: 0x24 }
  - { offsetInCU: 0xB971, offset: 0x19AE5, size: 0x8, addend: 0x0, symName: __ZNSt3__122__compressed_pair_elemINS_9allocatorI6CartasEELi1ELb1EE5__getB8ue170006Ev, symObjAddr: 0x32A4, symBinAddr: 0x100008154, symSize: 0x14 }
  - { offsetInCU: 0xB996, offset: 0x19B0A, size: 0x8, addend: 0x0, symName: __ZNKSt3__16vectorI6CartasNS_9allocatorIS1_EEE9__end_capB8ue170006Ev, symObjAddr: 0x32B8, symBinAddr: 0x100008168, symSize: 0x28 }
  - { offsetInCU: 0xB9BB, offset: 0x19B2F, size: 0x8, addend: 0x0, symName: __ZNKSt3__117__compressed_pairIP6CartasNS_9allocatorIS1_EEE5firstB8ue170006Ev, symObjAddr: 0x32E0, symBinAddr: 0x100008190, symSize: 0x24 }
  - { offsetInCU: 0xB9E0, offset: 0x19B54, size: 0x8, addend: 0x0, symName: __ZNKSt3__122__compressed_pair_elemIP6CartasLi0ELb0EE5__getB8ue170006Ev, symObjAddr: 0x3304, symBinAddr: 0x1000081B4, symSize: 0x14 }
  - { offsetInCU: 0xBA05, offset: 0x19B79, size: 0x8, addend: 0x0, symName: __ZNKSt3__16vectorI6CartasNS_9allocatorIS1_EEE17__annotate_shrinkB8ue170006Em, symObjAddr: 0x3318, symBinAddr: 0x1000081C8, symSize: 0xD0 }
  - { offsetInCU: 0xBAE0, offset: 0x19C54, size: 0x8, addend: 0x0, symName: __ZNKSt3__113basic_istreamIcNS_11char_traitsIcEEE6sentrycvbB8ue170006Ev, symObjAddr: 0x33E8, symBinAddr: 0x100008298, symSize: 0x1C }
  - { offsetInCU: 0xBB04, offset: 0x19C78, size: 0x8, addend: 0x0, symName: __ZNSt3__112basic_stringIcNS_11char_traitsIcEENS_9allocatorIcEEE5clearB8ue170006Ev, symObjAddr: 0x3404, symBinAddr: 0x1000082B4, symSize: 0x78 }
  - { offsetInCU: 0xBB2B, offset: 0x19C9F, size: 0x8, addend: 0x0, symName: __ZNKSt3__112basic_stringIcNS_11char_traitsIcEENS_9allocatorIcEEE8max_sizeB8ue170006Ev, symObjAddr: 0x3494, symBinAddr: 0x10000832C, symSize: 0xAC }
  - { offsetInCU: 0xBB7D, offset: 0x19CF1, size: 0x8, addend: 0x0, symName: __ZNSt3__115basic_streambufIcNS_11char_traitsIcEEE5sgetcB8ue170006Ev, symObjAddr: 0x3590, symBinAddr: 0x1000083D8, symSize: 0x70 }
  - { offsetInCU: 0xBBA2, offset: 0x19D16, size: 0x8, addend: 0x0, symName: __ZNSt3__111char_traitsIcE12to_char_typeB8ue170006Ei, symObjAddr: 0x3630, symBinAddr: 0x100008448, symSize: 0x18 }
  - { offsetInCU: 0xBBCA, offset: 0x19D3E, size: 0x8, addend: 0x0, symName: __ZNKSt3__15ctypeIcE2isB8ue170006Ejc, symObjAddr: 0x3648, symBinAddr: 0x100008460, symSize: 0x7C }
  - { offsetInCU: 0xBC0D, offset: 0x19D81, size: 0x8, addend: 0x0, symName: __ZNSt3__115basic_streambufIcNS_11char_traitsIcEEE6sbumpcB8ue170006Ev, symObjAddr: 0x36C4, symBinAddr: 0x1000084DC, symSize: 0x78 }
  - { offsetInCU: 0xBC32, offset: 0x19DA6, size: 0x8, addend: 0x0, symName: __ZNSt3__18ios_base18__setstate_nothrowB8ue170006Ej, symObjAddr: 0x3768, symBinAddr: 0x100008554, symSize: 0x64 }
  - { offsetInCU: 0xBC66, offset: 0x19DDA, size: 0x8, addend: 0x0, symName: __ZNKSt3__19basic_iosIcNS_11char_traitsIcEEE10exceptionsB8ue170006Ev, symObjAddr: 0x37CC, symBinAddr: 0x1000085B8, symSize: 0x24 }
  - { offsetInCU: 0xBC8B, offset: 0x19DFF, size: 0x8, addend: 0x0, symName: __ZNSt3__111char_traitsIcE6assignB8ue170006ERcRKc, symObjAddr: 0x3854, symBinAddr: 0x1000085DC, symSize: 0x24 }
  - { offsetInCU: 0xBCBC, offset: 0x19E30, size: 0x8, addend: 0x0, symName: __ZNSt3__112basic_stringIcNS_11char_traitsIcEENS_9allocatorIcEEE18__get_long_pointerB8ue170006Ev, symObjAddr: 0x3878, symBinAddr: 0x100008600, symSize: 0x28 }
  - { offsetInCU: 0xBCE1, offset: 0x19E55, size: 0x8, addend: 0x0, symName: __ZNSt3__112basic_stringIcNS_11char_traitsIcEENS_9allocatorIcEEE15__set_long_sizeB8ue170006Em, symObjAddr: 0x38A0, symBinAddr: 0x100008628, symSize: 0x38 }
  - { offsetInCU: 0xBD15, offset: 0x19E89, size: 0x8, addend: 0x0, symName: __ZNSt3__112basic_stringIcNS_11char_traitsIcEENS_9allocatorIcEEE19__get_short_pointerB8ue170006Ev, symObjAddr: 0x38D8, symBinAddr: 0x100008660, symSize: 0x28 }
  - { offsetInCU: 0xBD3A, offset: 0x19EAE, size: 0x8, addend: 0x0, symName: __ZNSt3__112basic_stringIcNS_11char_traitsIcEENS_9allocatorIcEEE16__set_short_sizeB8ue170006Em, symObjAddr: 0x3900, symBinAddr: 0x100008688, symSize: 0x78 }
  - { offsetInCU: 0xBD6E, offset: 0x19EE2, size: 0x8, addend: 0x0, symName: __ZNSt3__114pointer_traitsIPcE10pointer_toB8ue170006ERc, symObjAddr: 0x39B0, symBinAddr: 0x100008700, symSize: 0x14 }
  - { offsetInCU: 0xBD9B, offset: 0x19F0F, size: 0x8, addend: 0x0, symName: __ZNSt3__116allocator_traitsINS_9allocatorIcEEE8max_sizeB8ue170006IS2_vEEmRKS2_, symObjAddr: 0x39C4, symBinAddr: 0x100008714, symSize: 0x24 }
  - { offsetInCU: 0xBDC9, offset: 0x19F3D, size: 0x8, addend: 0x0, symName: __ZNKSt3__112basic_stringIcNS_11char_traitsIcEENS_9allocatorIcEEE7__allocB8ue170006Ev, symObjAddr: 0x39E8, symBinAddr: 0x100008738, symSize: 0x24 }
  - { offsetInCU: 0xBDEE, offset: 0x19F62, size: 0x8, addend: 0x0, symName: __ZNSt3__114numeric_limitsImE3maxB8ue170006Ev, symObjAddr: 0x3A0C, symBinAddr: 0x10000875C, symSize: 0x14 }
  - { offsetInCU: 0xBE02, offset: 0x19F76, size: 0x8, addend: 0x0, symName: __ZNKSt3__19allocatorIcE8max_sizeB8ue170006Ev, symObjAddr: 0x3A20, symBinAddr: 0x100008770, symSize: 0x14 }
  - { offsetInCU: 0xBE27, offset: 0x19F9B, size: 0x8, addend: 0x0, symName: __ZNKSt3__117__compressed_pairINS_12basic_stringIcNS_11char_traitsIcEENS_9allocatorIcEEE5__repES5_E6secondB8ue170006Ev, symObjAddr: 0x3A34, symBinAddr: 0x100008784, symSize: 0x24 }
  - { offsetInCU: 0xBE4C, offset: 0x19FC0, size: 0x8, addend: 0x0, symName: __ZNKSt3__122__compressed_pair_elemINS_9allocatorIcEELi1ELb1EE5__getB8ue170006Ev, symObjAddr: 0x3A58, symBinAddr: 0x1000087A8, symSize: 0x14 }
  - { offsetInCU: 0xBE71, offset: 0x19FE5, size: 0x8, addend: 0x0, symName: __ZNSt3__123__libcpp_numeric_limitsImLb1EE3maxB8ue170006Ev, symObjAddr: 0x3A6C, symBinAddr: 0x1000087BC, symSize: 0x8 }
  - { offsetInCU: 0xBE85, offset: 0x19FF9, size: 0x8, addend: 0x0, symName: __ZNSt3__111char_traitsIcE11to_int_typeB8ue170006Ec, symObjAddr: 0x3A8C, symBinAddr: 0x1000087C4, symSize: 0x14 }
  - { offsetInCU: 0xBEA8, offset: 0x1A01C, size: 0x8, addend: 0x0, symName: __Z7isasciii, symObjAddr: 0x3AA0, symBinAddr: 0x1000087D8, symSize: 0x24 }
  - { offsetInCU: 0xBED5, offset: 0x1A049, size: 0x8, addend: 0x0, symName: __ZNKSt3__18ios_base10exceptionsB8ue170006Ev, symObjAddr: 0x3AC4, symBinAddr: 0x1000087FC, symSize: 0x18 }
  - { offsetInCU: 0xBEFC, offset: 0x1A070, size: 0x8, addend: 0x0, symName: __ZNKSt3__16vectorI6CartasNS_9allocatorIS1_EEE20__throw_out_of_rangeB8ue170006Ev, symObjAddr: 0x3B10, symBinAddr: 0x100008814, symSize: 0x1C }
  - { offsetInCU: 0xBF21, offset: 0x1A095, size: 0x8, addend: 0x0, symName: __ZNSt3__111char_traitsIcE7compareB8ue170006EPKcS3_m, symObjAddr: 0x3C8C, symBinAddr: 0x100008830, symSize: 0x34 }
  - { offsetInCU: 0xBF60, offset: 0x1A0D4, size: 0x8, addend: 0x0, symName: __ZNSt3__16vectorI6CartasNS_9allocatorIS1_EEE9__end_capB8ue170006Ev, symObjAddr: 0x3DE8, symBinAddr: 0x100008864, symSize: 0x28 }
  - { offsetInCU: 0xBF85, offset: 0x1A0F9, size: 0x8, addend: 0x0, symName: __ZNSt3__16vectorI6CartasNS_9allocatorIS1_EEE22__construct_one_at_endB8ue170006IJRKS1_EEEvDpOT_, symObjAddr: 0x3E10, symBinAddr: 0x10000888C, symSize: 0x90 }
  - { offsetInCU: 0xBFD2, offset: 0x1A146, size: 0x8, addend: 0x0, symName: __ZNSt3__16vectorI6CartasNS_9allocatorIS1_EEE21__push_back_slow_pathIRKS1_EEvOT_, symObjAddr: 0x3EA0, symBinAddr: 0x10000891C, symSize: 0xD8 }
  - { offsetInCU: 0xC02F, offset: 0x1A1A3, size: 0x8, addend: 0x0, symName: __ZNSt3__117__compressed_pairIP6CartasNS_9allocatorIS1_EEE5firstB8ue170006Ev, symObjAddr: 0x3F78, symBinAddr: 0x1000089F4, symSize: 0x24 }
  - { offsetInCU: 0xC054, offset: 0x1A1C8, size: 0x8, addend: 0x0, symName: __ZNSt3__122__compressed_pair_elemIP6CartasLi0ELb0EE5__getB8ue170006Ev, symObjAddr: 0x3F9C, symBinAddr: 0x100008A18, symSize: 0x14 }
  - { offsetInCU: 0xC092, offset: 0x1A206, size: 0x8, addend: 0x0, symName: __ZNSt3__16vectorI6CartasNS_9allocatorIS1_EEE21_ConstructTransactionC1B8ue170006ERS4_m, symObjAddr: 0x3FB0, symBinAddr: 0x100008A2C, symSize: 0x3C }
  - { offsetInCU: 0xC0D9, offset: 0x1A24D, size: 0x8, addend: 0x0, symName: __ZNSt3__116allocator_traitsINS_9allocatorI6CartasEEE9constructB8ue170006IS2_JRKS2_EvEEvRS3_PT_DpOT0_, symObjAddr: 0x3FEC, symBinAddr: 0x100008A68, symSize: 0x34 }
  - { offsetInCU: 0xC130, offset: 0x1A2A4, size: 0x8, addend: 0x0, symName: __ZNSt3__16vectorI6CartasNS_9allocatorIS1_EEE21_ConstructTransactionD1B8ue170006Ev, symObjAddr: 0x4020, symBinAddr: 0x100008A9C, symSize: 0x2C }
  - { offsetInCU: 0xC159, offset: 0x1A2CD, size: 0x8, addend: 0x0, symName: __ZNSt3__16vectorI6CartasNS_9allocatorIS1_EEE21_ConstructTransactionC2B8ue170006ERS4_m, symObjAddr: 0x404C, symBinAddr: 0x100008AC8, symSize: 0x4C }
  - { offsetInCU: 0xC1A0, offset: 0x1A314, size: 0x8, addend: 0x0, symName: __ZNSt3__19allocatorI6CartasE9constructB8ue170006IS1_JRKS1_EEEvPT_DpOT0_, symObjAddr: 0x4098, symBinAddr: 0x100008B14, symSize: 0x30 }
  - { offsetInCU: 0xC1F5, offset: 0x1A369, size: 0x8, addend: 0x0, symName: __ZNSt3__16vectorI6CartasNS_9allocatorIS1_EEE21_ConstructTransactionD2B8ue170006Ev, symObjAddr: 0x40C8, symBinAddr: 0x100008B44, symSize: 0x20 }
  - { offsetInCU: 0xC21D, offset: 0x1A391, size: 0x8, addend: 0x0, symName: __ZNKSt3__16vectorI6CartasNS_9allocatorIS1_EEE11__recommendB8ue170006Em, symObjAddr: 0x40E8, symBinAddr: 0x100008B64, symSize: 0xB4 }
  - { offsetInCU: 0xC271, offset: 0x1A3E5, size: 0x8, addend: 0x0, symName: __ZNSt3__114__split_bufferI6CartasRNS_9allocatorIS1_EEEC1EmmS4_, symObjAddr: 0x419C, symBinAddr: 0x100008C18, symSize: 0x44 }
  - { offsetInCU: 0xC2C6, offset: 0x1A43A, size: 0x8, addend: 0x0, symName: __ZNSt3__114__split_bufferI6CartasRNS_9allocatorIS1_EEED1Ev, symObjAddr: 0x42F0, symBinAddr: 0x100008D6C, symSize: 0x2C }
  - { offsetInCU: 0xC2F0, offset: 0x1A464, size: 0x8, addend: 0x0, symName: __ZNKSt3__16vectorI6CartasNS_9allocatorIS1_EEE8max_sizeEv, symObjAddr: 0x431C, symBinAddr: 0x100008D98, symSize: 0x60 }
  - { offsetInCU: 0xC317, offset: 0x1A48B, size: 0x8, addend: 0x0, symName: __ZNKSt3__16vectorI6CartasNS_9allocatorIS1_EEE20__throw_length_errorB8ue170006Ev, symObjAddr: 0x437C, symBinAddr: 0x100008DF8, symSize: 0x1C }
  - { offsetInCU: 0xC346, offset: 0x1A4BA, size: 0x8, addend: 0x0, symName: __ZNSt3__116allocator_traitsINS_9allocatorI6CartasEEE8max_sizeB8ue170006IS3_vEEmRKS3_, symObjAddr: 0x43C4, symBinAddr: 0x100008E14, symSize: 0x24 }
  - { offsetInCU: 0xC374, offset: 0x1A4E8, size: 0x8, addend: 0x0, symName: __ZNKSt3__16vectorI6CartasNS_9allocatorIS1_EEE7__allocB8ue170006Ev, symObjAddr: 0x43E8, symBinAddr: 0x100008E38, symSize: 0x28 }
  - { offsetInCU: 0xC399, offset: 0x1A50D, size: 0x8, addend: 0x0, symName: __ZNKSt3__19allocatorI6CartasE8max_sizeB8ue170006Ev, symObjAddr: 0x4410, symBinAddr: 0x100008E60, symSize: 0x18 }
  - { offsetInCU: 0xC3BE, offset: 0x1A532, size: 0x8, addend: 0x0, symName: __ZNKSt3__117__compressed_pairIP6CartasNS_9allocatorIS1_EEE6secondB8ue170006Ev, symObjAddr: 0x4428, symBinAddr: 0x100008E78, symSize: 0x24 }
  - { offsetInCU: 0xC3E3, offset: 0x1A557, size: 0x8, addend: 0x0, symName: __ZNKSt3__122__compressed_pair_elemINS_9allocatorI6CartasEELi1ELb1EE5__getB8ue170006Ev, symObjAddr: 0x444C, symBinAddr: 0x100008E9C, symSize: 0x14 }
  - { offsetInCU: 0xC408, offset: 0x1A57C, size: 0x8, addend: 0x0, symName: __ZNSt3__114__split_bufferI6CartasRNS_9allocatorIS1_EEEC2EmmS4_, symObjAddr: 0x44B4, symBinAddr: 0x100008EB0, symSize: 0xE0 }
  - { offsetInCU: 0xC47B, offset: 0x1A5EF, size: 0x8, addend: 0x0, symName: __ZNSt3__117__compressed_pairIP6CartasRNS_9allocatorIS1_EEEC1B8ue170006IDnS5_EEOT_OT0_, symObjAddr: 0x4594, symBinAddr: 0x100008F90, symSize: 0x3C }
  - { offsetInCU: 0xC4D2, offset: 0x1A646, size: 0x8, addend: 0x0, symName: __ZNSt3__114__split_bufferI6CartasRNS_9allocatorIS1_EEE7__allocB8ue170006Ev, symObjAddr: 0x4610, symBinAddr: 0x10000900C, symSize: 0x28 }
  - { offsetInCU: 0xC4F7, offset: 0x1A66B, size: 0x8, addend: 0x0, symName: __ZNSt3__114__split_bufferI6CartasRNS_9allocatorIS1_EEE9__end_capB8ue170006Ev, symObjAddr: 0x4638, symBinAddr: 0x100009034, symSize: 0x28 }
  - { offsetInCU: 0xC51C, offset: 0x1A690, size: 0x8, addend: 0x0, symName: __ZNSt3__117__compressed_pairIP6CartasRNS_9allocatorIS1_EEEC2B8ue170006IDnS5_EEOT_OT0_, symObjAddr: 0x4660, symBinAddr: 0x10000905C, symSize: 0x48 }
  - { offsetInCU: 0xC573, offset: 0x1A6E7, size: 0x8, addend: 0x0, symName: __ZNSt3__122__compressed_pair_elemIRNS_9allocatorI6CartasEELi1ELb0EEC2B8ue170006IS4_vEEOT_, symObjAddr: 0x46A8, symBinAddr: 0x1000090A4, symSize: 0x20 }
  - { offsetInCU: 0xC5B4, offset: 0x1A728, size: 0x8, addend: 0x0, symName: __ZNSt3__19allocatorI6CartasE8allocateB8ue170006Em, symObjAddr: 0x46C8, symBinAddr: 0x1000090C4, symSize: 0x5C }
  - { offsetInCU: 0xC5E7, offset: 0x1A75B, size: 0x8, addend: 0x0, symName: __ZNSt3__117__compressed_pairIP6CartasRNS_9allocatorIS1_EEE6secondB8ue170006Ev, symObjAddr: 0x4724, symBinAddr: 0x100009120, symSize: 0x28 }
  - { offsetInCU: 0xC60C, offset: 0x1A780, size: 0x8, addend: 0x0, symName: __ZNSt3__122__compressed_pair_elemIRNS_9allocatorI6CartasEELi1ELb0EE5__getB8ue170006Ev, symObjAddr: 0x474C, symBinAddr: 0x100009148, symSize: 0x18 }
  - { offsetInCU: 0xC631, offset: 0x1A7A5, size: 0x8, addend: 0x0, symName: __ZNSt3__117__compressed_pairIP6CartasRNS_9allocatorIS1_EEE5firstB8ue170006Ev, symObjAddr: 0x4764, symBinAddr: 0x100009160, symSize: 0x24 }
  - { offsetInCU: 0xC656, offset: 0x1A7CA, size: 0x8, addend: 0x0, symName: __ZNSt3__116reverse_iteratorIP6CartasEC1B8ue170006ES2_, symObjAddr: 0x48B4, symBinAddr: 0x1000092B0, symSize: 0x34 }
  - { offsetInCU: 0xC68D, offset: 0x1A801, size: 0x8, addend: 0x0, symName: __ZNKSt3__116reverse_iteratorIP6CartasE4baseB8ue170006Ev, symObjAddr: 0x48E8, symBinAddr: 0x1000092E4, symSize: 0x18 }
  - { offsetInCU: 0xC6B2, offset: 0x1A826, size: 0x8, addend: 0x0, symName: __ZNKSt3__16vectorI6CartasNS_9allocatorIS1_EEE14__annotate_newB8ue170006Em, symObjAddr: 0x493C, symBinAddr: 0x100009338, symSize: 0xC8 }
  - { offsetInCU: 0xC6E6, offset: 0x1A85A, size: 0x8, addend: 0x0, symName: __ZNSt3__129_AllocatorDestroyRangeReverseINS_9allocatorI6CartasEENS_16reverse_iteratorIPS2_EEEC1B8ue170006ERS3_RS6_S9_, symObjAddr: 0x4A50, symBinAddr: 0x10000944C, symSize: 0x44 }
  - { offsetInCU: 0xC73C, offset: 0x1A8B0, size: 0x8, addend: 0x0, symName: __ZNKSt3__116reverse_iteratorIP6CartasEdeB8ue170006Ev, symObjAddr: 0x4B00, symBinAddr: 0x1000094FC, symSize: 0x28 }
  - { offsetInCU: 0xC76F, offset: 0x1A8E3, size: 0x8, addend: 0x0, symName: __ZNSt3__116reverse_iteratorIP6CartasEppB8ue170006Ev, symObjAddr: 0x4B28, symBinAddr: 0x100009524, symSize: 0x20 }
  - { offsetInCU: 0xC794, offset: 0x1A908, size: 0x8, addend: 0x0, symName: __ZNSt3__128__exception_guard_exceptionsINS_29_AllocatorDestroyRangeReverseINS_9allocatorI6CartasEENS_16reverse_iteratorIPS3_EEEEE10__completeB8ue170006Ev, symObjAddr: 0x4B48, symBinAddr: 0x100009544, symSize: 0x1C }
  - { offsetInCU: 0xC7B9, offset: 0x1A92D, size: 0x8, addend: 0x0, symName: __ZNSt3__128__exception_guard_exceptionsINS_29_AllocatorDestroyRangeReverseINS_9allocatorI6CartasEENS_16reverse_iteratorIPS3_EEEEED1B8ue170006Ev, symObjAddr: 0x4B64, symBinAddr: 0x100009560, symSize: 0x2C }
  - { offsetInCU: 0xC7E2, offset: 0x1A956, size: 0x8, addend: 0x0, symName: __ZNSt3__128__exception_guard_exceptionsINS_29_AllocatorDestroyRangeReverseINS_9allocatorI6CartasEENS_16reverse_iteratorIPS3_EEEEEC1B8ue170006ES8_, symObjAddr: 0x4B90, symBinAddr: 0x10000958C, symSize: 0x34 }
  - { offsetInCU: 0xC81A, offset: 0x1A98E, size: 0x8, addend: 0x0, symName: __ZNSt3__128__exception_guard_exceptionsINS_29_AllocatorDestroyRangeReverseINS_9allocatorI6CartasEENS_16reverse_iteratorIPS3_EEEEEC2B8ue170006ES8_, symObjAddr: 0x4BC4, symBinAddr: 0x1000095C0, symSize: 0x30 }
  - { offsetInCU: 0xC852, offset: 0x1A9C6, size: 0x8, addend: 0x0, symName: __ZNSt3__129_AllocatorDestroyRangeReverseINS_9allocatorI6CartasEENS_16reverse_iteratorIPS2_EEEC2B8ue170006ERS3_RS6_S9_, symObjAddr: 0x4BF4, symBinAddr: 0x1000095F0, symSize: 0x38 }
  - { offsetInCU: 0xC8AD, offset: 0x1AA21, size: 0x8, addend: 0x0, symName: __ZNSt3__119__to_address_helperINS_16reverse_iteratorIP6CartasEEvE6__callB8ue170006ERKS4_, symObjAddr: 0x4C2C, symBinAddr: 0x100009628, symSize: 0x38 }
  - { offsetInCU: 0xC8D0, offset: 0x1AA44, size: 0x8, addend: 0x0, symName: __ZNKSt3__116reverse_iteratorIP6CartasEptB8ue170006Ev, symObjAddr: 0x4C64, symBinAddr: 0x100009660, symSize: 0x24 }
  - { offsetInCU: 0xC8F5, offset: 0x1AA69, size: 0x8, addend: 0x0, symName: __ZNSt3__128__exception_guard_exceptionsINS_29_AllocatorDestroyRangeReverseINS_9allocatorI6CartasEENS_16reverse_iteratorIPS3_EEEEED2B8ue170006Ev, symObjAddr: 0x4C88, symBinAddr: 0x100009684, symSize: 0x50 }
  - { offsetInCU: 0xC91E, offset: 0x1AA92, size: 0x8, addend: 0x0, symName: __ZNKSt3__129_AllocatorDestroyRangeReverseINS_9allocatorI6CartasEENS_16reverse_iteratorIPS2_EEEclB8ue170006Ev, symObjAddr: 0x4CD8, symBinAddr: 0x1000096D4, symSize: 0xB4 }
  - { offsetInCU: 0xC944, offset: 0x1AAB8, size: 0x8, addend: 0x0, symName: __ZNSt3__116reverse_iteratorINS0_IP6CartasEEEC1B8ue170006ES3_, symObjAddr: 0x4DFC, symBinAddr: 0x1000097F8, symSize: 0x3C }
  - { offsetInCU: 0xC97B, offset: 0x1AAEF, size: 0x8, addend: 0x0, symName: __ZNSt3__116reverse_iteratorINS0_IP6CartasEEEppB8ue170006Ev, symObjAddr: 0x4EBC, symBinAddr: 0x1000098B8, symSize: 0x30 }
  - { offsetInCU: 0xC9A0, offset: 0x1AB14, size: 0x8, addend: 0x0, symName: __ZNKSt3__116reverse_iteratorINS0_IP6CartasEEE4baseB8ue170006Ev, symObjAddr: 0x4EEC, symBinAddr: 0x1000098E8, symSize: 0x24 }
  - { offsetInCU: 0xC9CA, offset: 0x1AB3E, size: 0x8, addend: 0x0, symName: __ZNSt3__119__to_address_helperINS_16reverse_iteratorINS1_IP6CartasEEEEvE6__callB8ue170006ERKS5_, symObjAddr: 0x4F10, symBinAddr: 0x10000990C, symSize: 0x38 }
  - { offsetInCU: 0xC9ED, offset: 0x1AB61, size: 0x8, addend: 0x0, symName: __ZNKSt3__116reverse_iteratorINS0_IP6CartasEEEptB8ue170006Ev, symObjAddr: 0x4F48, symBinAddr: 0x100009944, symSize: 0x24 }
  - { offsetInCU: 0xCA12, offset: 0x1AB86, size: 0x8, addend: 0x0, symName: __ZNKSt3__116reverse_iteratorINS0_IP6CartasEEEdeB8ue170006Ev, symObjAddr: 0x4F6C, symBinAddr: 0x100009968, symSize: 0x34 }
  - { offsetInCU: 0xCA45, offset: 0x1ABB9, size: 0x8, addend: 0x0, symName: __ZNSt3__116reverse_iteratorIP6CartasEmmB8ue170006Ev, symObjAddr: 0x4FA0, symBinAddr: 0x10000999C, symSize: 0x20 }
  - { offsetInCU: 0xCA6A, offset: 0x1ABDE, size: 0x8, addend: 0x0, symName: __ZNSt3__116reverse_iteratorINS0_IP6CartasEEEC2B8ue170006ES3_, symObjAddr: 0x4FC0, symBinAddr: 0x1000099BC, symSize: 0x2C }
  - { offsetInCU: 0xCAA1, offset: 0x1AC15, size: 0x8, addend: 0x0, symName: __ZNSt3__116reverse_iteratorIP6CartasEC2B8ue170006ES2_, symObjAddr: 0x4FEC, symBinAddr: 0x1000099E8, symSize: 0x28 }
  - { offsetInCU: 0xCAD8, offset: 0x1AC4C, size: 0x8, addend: 0x0, symName: __ZNSt3__114__split_bufferI6CartasRNS_9allocatorIS1_EEED2Ev, symObjAddr: 0x5014, symBinAddr: 0x100009A10, symSize: 0x8C }
  - { offsetInCU: 0xCB03, offset: 0x1AC77, size: 0x8, addend: 0x0, symName: __ZNSt3__114__split_bufferI6CartasRNS_9allocatorIS1_EEE5clearB8ue170006Ev, symObjAddr: 0x50A0, symBinAddr: 0x100009A9C, symSize: 0x28 }
  - { offsetInCU: 0xCB28, offset: 0x1AC9C, size: 0x8, addend: 0x0, symName: __ZNKSt3__114__split_bufferI6CartasRNS_9allocatorIS1_EEE8capacityB8ue170006Ev, symObjAddr: 0x50C8, symBinAddr: 0x100009AC4, symSize: 0x40 }
  - { offsetInCU: 0xCB4D, offset: 0x1ACC1, size: 0x8, addend: 0x0, symName: __ZNSt3__114__split_bufferI6CartasRNS_9allocatorIS1_EEE17__destruct_at_endB8ue170006EPS1_, symObjAddr: 0x5108, symBinAddr: 0x100009B04, symSize: 0x2C }
  - { offsetInCU: 0xCB7F, offset: 0x1ACF3, size: 0x8, addend: 0x0, symName: __ZNSt3__114__split_bufferI6CartasRNS_9allocatorIS1_EEE17__destruct_at_endB8ue170006EPS1_NS_17integral_constantIbLb0EEE, symObjAddr: 0x5134, symBinAddr: 0x100009B30, symSize: 0x80 }
  - { offsetInCU: 0xCBBE, offset: 0x1AD32, size: 0x8, addend: 0x0, symName: __ZNKSt3__114__split_bufferI6CartasRNS_9allocatorIS1_EEE9__end_capB8ue170006Ev, symObjAddr: 0x51B4, symBinAddr: 0x100009BB0, symSize: 0x28 }
  - { offsetInCU: 0xCBE3, offset: 0x1AD57, size: 0x8, addend: 0x0, symName: __ZNKSt3__117__compressed_pairIP6CartasRNS_9allocatorIS1_EEE5firstB8ue170006Ev, symObjAddr: 0x51DC, symBinAddr: 0x100009BD8, symSize: 0x24 }
  - { offsetInCU: 0xCC08, offset: 0x1AD7C, size: 0x8, addend: 0x0, symName: __ZNSt3__16vectorI6CartasNS_9allocatorIS1_EEEC2ERKS4_, symObjAddr: 0x5948, symBinAddr: 0x100009BFC, symSize: 0x94 }
  - { offsetInCU: 0xCC42, offset: 0x1ADB6, size: 0x8, addend: 0x0, symName: __ZNSt3__116allocator_traitsINS_9allocatorI6CartasEEE37select_on_container_copy_constructionB8ue170006IS3_vvEES3_RKS3_, symObjAddr: 0x59DC, symBinAddr: 0x100009C90, symSize: 0x10 }
  - { offsetInCU: 0xCC76, offset: 0x1ADEA, size: 0x8, addend: 0x0, symName: __ZNSt3__117__compressed_pairIP6CartasNS_9allocatorIS1_EEEC1B8ue170006IDnS4_EEOT_OT0_, symObjAddr: 0x59EC, symBinAddr: 0x100009CA0, symSize: 0x3C }
  - { offsetInCU: 0xCCCD, offset: 0x1AE41, size: 0x8, addend: 0x0, symName: __ZNSt3__16vectorI6CartasNS_9allocatorIS1_EEE16__init_with_sizeB8ue170006IPS1_S6_EEvT_T0_m, symObjAddr: 0x5A28, symBinAddr: 0x100009CDC, symSize: 0xB8 }
  - { offsetInCU: 0xCD40, offset: 0x1AEB4, size: 0x8, addend: 0x0, symName: __ZNSt3__117__compressed_pairIP6CartasNS_9allocatorIS1_EEEC2B8ue170006IDnS4_EEOT_OT0_, symObjAddr: 0x5AE0, symBinAddr: 0x100009D94, symSize: 0x44 }
  - { offsetInCU: 0xCD97, offset: 0x1AF0B, size: 0x8, addend: 0x0, symName: __ZNSt3__122__compressed_pair_elemINS_9allocatorI6CartasEELi1ELb1EEC2B8ue170006IS3_vEEOT_, symObjAddr: 0x5B24, symBinAddr: 0x100009DD8, symSize: 0x18 }
  - { offsetInCU: 0xCDD8, offset: 0x1AF4C, size: 0x8, addend: 0x0, symName: __ZNSt3__16vectorI6CartasNS_9allocatorIS1_EEE11__vallocateB8ue170006Em, symObjAddr: 0x5B7C, symBinAddr: 0x100009E30, symSize: 0xB4 }
  - { offsetInCU: 0xCE1A, offset: 0x1AF8E, size: 0x8, addend: 0x0, symName: __ZNSt3__16vectorI6CartasNS_9allocatorIS1_EEE18__construct_at_endIPS1_S6_EEvT_T0_m, symObjAddr: 0x5C30, symBinAddr: 0x100009EE4, symSize: 0x8C }
  - { offsetInCU: 0xCE8F, offset: 0x1B003, size: 0x8, addend: 0x0, symName: __ZNSt3__128__exception_guard_exceptionsINS_6vectorI6CartasNS_9allocatorIS2_EEE16__destroy_vectorEE10__completeB8ue170006Ev, symObjAddr: 0x5CBC, symBinAddr: 0x100009F70, symSize: 0x1C }
  - { offsetInCU: 0xCEB4, offset: 0x1B028, size: 0x8, addend: 0x0, symName: __ZNSt3__128__exception_guard_exceptionsINS_6vectorI6CartasNS_9allocatorIS2_EEE16__destroy_vectorEED1B8ue170006Ev, symObjAddr: 0x5CD8, symBinAddr: 0x100009F8C, symSize: 0x2C }
  - { offsetInCU: 0xCEDD, offset: 0x1B051, size: 0x8, addend: 0x0, symName: __ZNSt3__128__exception_guard_exceptionsINS_6vectorI6CartasNS_9allocatorIS2_EEE16__destroy_vectorEEC1B8ue170006ES6_, symObjAddr: 0x5D04, symBinAddr: 0x100009FB8, symSize: 0x34 }
  - { offsetInCU: 0xCF14, offset: 0x1B088, size: 0x8, addend: 0x0, symName: __ZNSt3__128__exception_guard_exceptionsINS_6vectorI6CartasNS_9allocatorIS2_EEE16__destroy_vectorEEC2B8ue170006ES6_, symObjAddr: 0x5D38, symBinAddr: 0x100009FEC, symSize: 0x24 }
  - { offsetInCU: 0xCF69, offset: 0x1B0DD, size: 0x8, addend: 0x0, symName: __ZNSt3__14pairIP6CartasS2_EC1B8ue170006IS2_S2_LPv0EEEOT_OT0_, symObjAddr: 0x5FC8, symBinAddr: 0x10000A27C, symSize: 0x3C }
  - { offsetInCU: 0xCFC6, offset: 0x1B13A, size: 0x8, addend: 0x0, symName: __ZNSt3__14pairIP6CartasS2_EC2B8ue170006IS2_S2_LPv0EEEOT_OT0_, symObjAddr: 0x6004, symBinAddr: 0x10000A2B8, symSize: 0x34 }
  - { offsetInCU: 0xD023, offset: 0x1B197, size: 0x8, addend: 0x0, symName: __ZNSt3__129_AllocatorDestroyRangeReverseINS_9allocatorI6CartasEEPS2_EC1B8ue170006ERS3_RS4_S7_, symObjAddr: 0x6084, symBinAddr: 0x10000A338, symSize: 0x44 }
  - { offsetInCU: 0xD079, offset: 0x1B1ED, size: 0x8, addend: 0x0, symName: __ZNSt3__116allocator_traitsINS_9allocatorI6CartasEEE9constructB8ue170006IS2_JRS2_EvEEvRS3_PT_DpOT0_, symObjAddr: 0x60C8, symBinAddr: 0x10000A37C, symSize: 0x34 }
  - { offsetInCU: 0xD0D0, offset: 0x1B244, size: 0x8, addend: 0x0, symName: __ZNSt3__128__exception_guard_exceptionsINS_29_AllocatorDestroyRangeReverseINS_9allocatorI6CartasEEPS3_EEE10__completeB8ue170006Ev, symObjAddr: 0x60FC, symBinAddr: 0x10000A3B0, symSize: 0x1C }
  - { offsetInCU: 0xD0F5, offset: 0x1B269, size: 0x8, addend: 0x0, symName: __ZNSt3__128__exception_guard_exceptionsINS_29_AllocatorDestroyRangeReverseINS_9allocatorI6CartasEEPS3_EEED1B8ue170006Ev, symObjAddr: 0x6118, symBinAddr: 0x10000A3CC, symSize: 0x2C }
  - { offsetInCU: 0xD11E, offset: 0x1B292, size: 0x8, addend: 0x0, symName: __ZNSt3__128__exception_guard_exceptionsINS_29_AllocatorDestroyRangeReverseINS_9allocatorI6CartasEEPS3_EEEC1B8ue170006ES6_, symObjAddr: 0x6144, symBinAddr: 0x10000A3F8, symSize: 0x34 }
  - { offsetInCU: 0xD156, offset: 0x1B2CA, size: 0x8, addend: 0x0, symName: __ZNSt3__128__exception_guard_exceptionsINS_29_AllocatorDestroyRangeReverseINS_9allocatorI6CartasEEPS3_EEEC2B8ue170006ES6_, symObjAddr: 0x6178, symBinAddr: 0x10000A42C, symSize: 0x30 }
  - { offsetInCU: 0xD18E, offset: 0x1B302, size: 0x8, addend: 0x0, symName: __ZNSt3__129_AllocatorDestroyRangeReverseINS_9allocatorI6CartasEEPS2_EC2B8ue170006ERS3_RS4_S7_, symObjAddr: 0x61A8, symBinAddr: 0x10000A45C, symSize: 0x38 }
  - { offsetInCU: 0xD1E4, offset: 0x1B358, size: 0x8, addend: 0x0, symName: __ZNSt3__19allocatorI6CartasE9constructB8ue170006IS1_JRS1_EEEvPT_DpOT0_, symObjAddr: 0x61E0, symBinAddr: 0x10000A494, symSize: 0x30 }
  - { offsetInCU: 0xD239, offset: 0x1B3AD, size: 0x8, addend: 0x0, symName: __ZNSt3__128__exception_guard_exceptionsINS_29_AllocatorDestroyRangeReverseINS_9allocatorI6CartasEEPS3_EEED2B8ue170006Ev, symObjAddr: 0x6210, symBinAddr: 0x10000A4C4, symSize: 0x50 }
  - { offsetInCU: 0xD262, offset: 0x1B3D6, size: 0x8, addend: 0x0, symName: __ZNKSt3__129_AllocatorDestroyRangeReverseINS_9allocatorI6CartasEEPS2_EclB8ue170006Ev, symObjAddr: 0x6260, symBinAddr: 0x10000A514, symSize: 0x68 }
  - { offsetInCU: 0xD287, offset: 0x1B3FB, size: 0x8, addend: 0x0, symName: __ZNSt3__118__unwrap_iter_implIP6CartasLb1EE8__unwrapB8ue170006ES2_, symObjAddr: 0x6338, symBinAddr: 0x10000A5EC, symSize: 0x24 }
  - { offsetInCU: 0xD2AA, offset: 0x1B41E, size: 0x8, addend: 0x0, symName: __ZNSt3__118__unwrap_iter_implIP6CartasLb1EE8__rewrapB8ue170006ES2_S2_, symObjAddr: 0x635C, symBinAddr: 0x10000A610, symSize: 0x58 }
  - { offsetInCU: 0xD2DB, offset: 0x1B44F, size: 0x8, addend: 0x0, symName: __ZNSt3__128__exception_guard_exceptionsINS_6vectorI6CartasNS_9allocatorIS2_EEE16__destroy_vectorEED2B8ue170006Ev, symObjAddr: 0x63B4, symBinAddr: 0x10000A668, symSize: 0x48 }
  - { offsetInCU: 0xD304, offset: 0x1B478, size: 0x8, addend: 0x0, symName: __ZNSt3__16vectorI6CartasNS_9allocatorIS1_EEE11__make_iterB8ue170006EPS1_, symObjAddr: 0x63FC, symBinAddr: 0x10000A6B0, symSize: 0x30 }
  - { offsetInCU: 0xD338, offset: 0x1B4AC, size: 0x8, addend: 0x0, symName: __ZNSt3__111__wrap_iterIP6CartasEC1B8ue170006ES2_, symObjAddr: 0x642C, symBinAddr: 0x10000A6E0, symSize: 0x34 }
  - { offsetInCU: 0xD36F, offset: 0x1B4E3, size: 0x8, addend: 0x0, symName: __ZNSt3__111__wrap_iterIP6CartasEC2B8ue170006ES2_, symObjAddr: 0x6460, symBinAddr: 0x10000A714, symSize: 0x20 }
  - { offsetInCU: 0xD3A6, offset: 0x1B51A, size: 0x8, addend: 0x0, symName: __ZNSt3__111__wrap_iterIP6CartasEppB8ue170006Ev, symObjAddr: 0x6480, symBinAddr: 0x10000A734, symSize: 0x20 }
  - { offsetInCU: 0xD3CB, offset: 0x1B53F, size: 0x8, addend: 0x0, symName: __ZNKSt3__16vectorI6CartasNS_9allocatorIS1_EEE6cbeginB8ue170006Ev, symObjAddr: 0x64E8, symBinAddr: 0x10000A79C, symSize: 0x2C }
  - { offsetInCU: 0xD3F0, offset: 0x1B564, size: 0x8, addend: 0x0, symName: __ZNSt3__16vectorI6CartasNS_9allocatorIS1_EEE17__destruct_at_endB8ue170006EPS1_, symObjAddr: 0x6514, symBinAddr: 0x10000A7C8, symSize: 0x4C }
  - { offsetInCU: 0xD433, offset: 0x1B5A7, size: 0x8, addend: 0x0, symName: __ZNKSt3__111__wrap_iterIPK6CartasE4baseB8ue170006Ev, symObjAddr: 0x65A0, symBinAddr: 0x10000A854, symSize: 0x18 }
  - { offsetInCU: 0xD457, offset: 0x1B5CB, size: 0x8, addend: 0x0, symName: __ZNKSt3__16vectorI6CartasNS_9allocatorIS1_EEE5beginB8ue170006Ev, symObjAddr: 0x65B8, symBinAddr: 0x10000A86C, symSize: 0x30 }
  - { offsetInCU: 0xD47E, offset: 0x1B5F2, size: 0x8, addend: 0x0, symName: __ZNKSt3__16vectorI6CartasNS_9allocatorIS1_EEE11__make_iterB8ue170006EPKS1_, symObjAddr: 0x65E8, symBinAddr: 0x10000A89C, symSize: 0x30 }
  - { offsetInCU: 0xD4B2, offset: 0x1B626, size: 0x8, addend: 0x0, symName: __ZNSt3__111__wrap_iterIPK6CartasEC1B8ue170006ES3_, symObjAddr: 0x6618, symBinAddr: 0x10000A8CC, symSize: 0x34 }
  - { offsetInCU: 0xD4E9, offset: 0x1B65D, size: 0x8, addend: 0x0, symName: __ZNSt3__111__wrap_iterIPK6CartasEC2B8ue170006ES3_, symObjAddr: 0x664C, symBinAddr: 0x10000A900, symSize: 0x20 }
  - { offsetInCU: 0xD52A, offset: 0x1B69E, size: 0x8, addend: 0x0, symName: __ZNKSt3__111__move_loopINS_17_ClassicAlgPolicyEEclB8ue170006IP6CartasS5_S5_EENS_4pairIT_T1_EES7_T0_S8_, symObjAddr: 0x67A8, symBinAddr: 0x10000AA5C, symSize: 0x90 }
  - { offsetInCU: 0xD599, offset: 0x1B70D, size: 0x8, addend: 0x0, symName: __ZNSt3__18_IterOpsINS_17_ClassicAlgPolicyEE11__iter_moveB8ue170006IRP6CartasEENS_9enable_ifIXsr12is_referenceIDTdeclsr3stdE7declvalIRT_EEEEE5valueEDTclsr3stdE4movedeclsr3stdE7declvalIS9_EEEEE4typeEOS8_, symObjAddr: 0x6864, symBinAddr: 0x10000AB18, symSize: 0x28 }
  - { offsetInCU: 0xD5C5, offset: 0x1B739, size: 0x8, addend: 0x0, symName: __ZN6CartasaSERKS_, symObjAddr: 0x688C, symBinAddr: 0x10000AB40, symSize: 0x80 }
  - { offsetInCU: 0xD5F5, offset: 0x1B769, size: 0x8, addend: 0x0, symName: __ZNSt3__18_IterOpsINS_17_ClassicAlgPolicyEE25__validate_iter_referenceB8ue170006IRP6CartasEEvv, symObjAddr: 0x690C, symBinAddr: 0x10000ABC0, symSize: 0x4 }
  - { offsetInCU: 0xD61D, offset: 0x1B791, size: 0x8, addend: 0x0, symName: __ZNSt3__111__wrap_iterIPK6CartasEC2B8ue170006IPS1_EERKNS0_IT_EEPNS_9enable_ifIXsr14is_convertibleIS7_S3_EE5valueEvE4typeE, symObjAddr: 0x7170, symBinAddr: 0x10000ABC4, symSize: 0x40 }
  - { offsetInCU: 0xD667, offset: 0x1B7DB, size: 0x8, addend: 0x0, symName: __ZNKSt3__111__wrap_iterIP6CartasE4baseB8ue170006Ev, symObjAddr: 0x71B0, symBinAddr: 0x10000AC04, symSize: 0x18 }
  - { offsetInCU: 0xD68C, offset: 0x1B800, size: 0x8, addend: 0x0, symName: __ZNSt3__16vectorI6CartasNS_9allocatorIS1_EEE19__copy_assign_allocB8ue170006ERKS4_, symObjAddr: 0x71C8, symBinAddr: 0x10000AC1C, symSize: 0x2C }
  - { offsetInCU: 0xD6BF, offset: 0x1B833, size: 0x8, addend: 0x0, symName: __ZNSt3__16vectorI6CartasNS_9allocatorIS1_EEE6assignIPS1_Li0EEEvT_S7_, symObjAddr: 0x71F4, symBinAddr: 0x10000AC48, symSize: 0x5C }
  - { offsetInCU: 0xD713, offset: 0x1B887, size: 0x8, addend: 0x0, symName: __ZNSt3__16vectorI6CartasNS_9allocatorIS1_EEE19__copy_assign_allocB8ue170006ERKS4_NS_17integral_constantIbLb0EEE, symObjAddr: 0x7250, symBinAddr: 0x10000ACA4, symSize: 0x14 }
  - { offsetInCU: 0xD74F, offset: 0x1B8C3, size: 0x8, addend: 0x0, symName: __ZNSt3__16vectorI6CartasNS_9allocatorIS1_EEE18__assign_with_sizeB8ue170006IPS1_S6_EEvT_T0_l, symObjAddr: 0x7264, symBinAddr: 0x10000ACB8, symSize: 0x164 }
  - { offsetInCU: 0xD7FF, offset: 0x1B973, size: 0x8, addend: 0x0, symName: __ZNSt3__16vectorI6CartasNS_9allocatorIS1_EEE13__vdeallocateEv, symObjAddr: 0x74AC, symBinAddr: 0x10000AF00, symSize: 0x94 }
  - { offsetInCU: 0xD826, offset: 0x1B99A, size: 0x8, addend: 0x0, symName: __ZNKSt3__111__copy_loopINS_17_ClassicAlgPolicyEEclB8ue170006IP6CartasS5_S5_EENS_4pairIT_T1_EES7_T0_S8_, symObjAddr: 0x76A0, symBinAddr: 0x10000B0F4, symSize: 0x88 }
  - { offsetInCU: 0x6167, offset: 0x21C50, size: 0x8, addend: 0x0, symName: __ZNSt3__17advanceB8ue170006IPK7BaralhollvEEvRT_T0_, symObjAddr: 0x97F0, symBinAddr: 0x100012174, symSize: 0x38 }
  - { offsetInCU: 0x7431, offset: 0x22F1A, size: 0x8, addend: 0x0, symName: __ZNSt3__19make_pairB8ue170006IRA15_KciEENS_4pairINS_18__unwrap_ref_decayIT_E4typeENS5_IT0_E4typeEEEOS6_OS9_, symObjAddr: 0x5864, symBinAddr: 0x100010918, symSize: 0x38 }
  - { offsetInCU: 0x77B7, offset: 0x232A0, size: 0x8, addend: 0x0, symName: __ZNSt3__19make_pairB8ue170006IRA13_KciEENS_4pairINS_18__unwrap_ref_decayIT_E4typeENS5_IT0_E4typeEEEOS6_OS9_, symObjAddr: 0x5A5C, symBinAddr: 0x100010994, symSize: 0x38 }
  - { offsetInCU: 0x7806, offset: 0x232EF, size: 0x8, addend: 0x0, symName: __ZNSt3__19make_pairB8ue170006IRA14_KciEENS_4pairINS_18__unwrap_ref_decayIT_E4typeENS5_IT0_E4typeEEEOS6_OS9_, symObjAddr: 0x5B14, symBinAddr: 0x1000109CC, symSize: 0x38 }
  - { offsetInCU: 0x7855, offset: 0x2333E, size: 0x8, addend: 0x0, symName: __ZNSt3__19make_pairB8ue170006IRA6_KciEENS_4pairINS_18__unwrap_ref_decayIT_E4typeENS5_IT0_E4typeEEEOS6_OS9_, symObjAddr: 0x5B4C, symBinAddr: 0x100010A04, symSize: 0x38 }
  - { offsetInCU: 0x78A4, offset: 0x2338D, size: 0x8, addend: 0x0, symName: __ZNSt3__19make_pairB8ue170006IRA16_KciEENS_4pairINS_18__unwrap_ref_decayIT_E4typeENS5_IT0_E4typeEEEOS6_OS9_, symObjAddr: 0x5B84, symBinAddr: 0x100010A3C, symSize: 0x38 }
  - { offsetInCU: 0x78F3, offset: 0x233DC, size: 0x8, addend: 0x0, symName: __ZNSt3__19make_pairB8ue170006IRA10_KciEENS_4pairINS_18__unwrap_ref_decayIT_E4typeENS5_IT0_E4typeEEEOS6_OS9_, symObjAddr: 0x5BBC, symBinAddr: 0x100010A74, symSize: 0x38 }
  - { offsetInCU: 0x7942, offset: 0x2342B, size: 0x8, addend: 0x0, symName: __ZNSt3__19make_pairB8ue170006IRA12_KciEENS_4pairINS_18__unwrap_ref_decayIT_E4typeENS5_IT0_E4typeEEEOS6_OS9_, symObjAddr: 0x5BF4, symBinAddr: 0x100010AAC, symSize: 0x38 }
  - { offsetInCU: 0x7991, offset: 0x2347A, size: 0x8, addend: 0x0, symName: __ZNSt3__19make_pairB8ue170006IRA9_KciEENS_4pairINS_18__unwrap_ref_decayIT_E4typeENS5_IT0_E4typeEEEOS6_OS9_, symObjAddr: 0x5C2C, symBinAddr: 0x100010AE4, symSize: 0x38 }
  - { offsetInCU: 0x79E0, offset: 0x234C9, size: 0x8, addend: 0x0, symName: __ZNSt3__19make_pairB8ue170006IRA18_KciEENS_4pairINS_18__unwrap_ref_decayIT_E4typeENS5_IT0_E4typeEEEOS6_OS9_, symObjAddr: 0x5C64, symBinAddr: 0x100010B1C, symSize: 0x38 }
  - { offsetInCU: 0x7A2F, offset: 0x23518, size: 0x8, addend: 0x0, symName: __ZNSt3__19make_pairB8ue170006IRA7_KciEENS_4pairINS_18__unwrap_ref_decayIT_E4typeENS5_IT0_E4typeEEEOS6_OS9_, symObjAddr: 0x5C9C, symBinAddr: 0x100010B54, symSize: 0x38 }
  - { offsetInCU: 0x7A7E, offset: 0x23567, size: 0x8, addend: 0x0, symName: __ZNSt3__1eqB8ue170006IcNS_11char_traitsIcEENS_9allocatorIcEEEEbRKNS_12basic_stringIT_T0_T1_EEPKS6_, symObjAddr: 0x5DA0, symBinAddr: 0x100010BF8, symSize: 0xAC }
  - { offsetInCU: 0x7AE5, offset: 0x235CE, size: 0x8, addend: 0x0, symName: __ZNSt3__19make_pairB8ue170006IRA8_KciEENS_4pairINS_18__unwrap_ref_decayIT_E4typeENS5_IT0_E4typeEEEOS6_OS9_, symObjAddr: 0x5E4C, symBinAddr: 0x100010CA4, symSize: 0x38 }
  - { offsetInCU: 0x7B34, offset: 0x2361D, size: 0x8, addend: 0x0, symName: __ZNSt3__19make_pairB8ue170006IRA17_KciEENS_4pairINS_18__unwrap_ref_decayIT_E4typeENS5_IT0_E4typeEEEOS6_OS9_, symObjAddr: 0x5E84, symBinAddr: 0x100010CDC, symSize: 0x38 }
  - { offsetInCU: 0x7B83, offset: 0x2366C, size: 0x8, addend: 0x0, symName: __ZNSt3__19make_pairB8ue170006IRA22_KciEENS_4pairINS_18__unwrap_ref_decayIT_E4typeENS5_IT0_E4typeEEEOS6_OS9_, symObjAddr: 0x5EBC, symBinAddr: 0x100010D14, symSize: 0x38 }
  - { offsetInCU: 0x7BD2, offset: 0x236BB, size: 0x8, addend: 0x0, symName: __ZNSt3__19make_pairB8ue170006IRA20_KciEENS_4pairINS_18__unwrap_ref_decayIT_E4typeENS5_IT0_E4typeEEEOS6_OS9_, symObjAddr: 0x5EF4, symBinAddr: 0x100010D4C, symSize: 0x38 }
  - { offsetInCU: 0x7C21, offset: 0x2370A, size: 0x8, addend: 0x0, symName: __ZNSt3__1neB8ue170006IcNS_11char_traitsIcEENS_9allocatorIcEEEEbRKNS_12basic_stringIT_T0_T1_EEPKS6_, symObjAddr: 0x5F58, symBinAddr: 0x100010D84, symSize: 0x34 }
  - { offsetInCU: 0x7C79, offset: 0x23762, size: 0x8, addend: 0x0, symName: __ZNSt3__19make_pairB8ue170006IRNS_12basic_stringIcNS_11char_traitsIcEENS_9allocatorIcEEEERiEENS_4pairINS_18__unwrap_ref_decayIT_E4typeENSA_IT0_E4typeEEEOSB_OSE_, symObjAddr: 0x6484, symBinAddr: 0x100010E48, symSize: 0x40 }
  - { offsetInCU: 0x7CC8, offset: 0x237B1, size: 0x8, addend: 0x0, symName: __ZNSt3__1plB8ue170006IcNS_11char_traitsIcEENS_9allocatorIcEEEENS_12basic_stringIT_T0_T1_EEOS9_PKS6_, symObjAddr: 0x6A2C, symBinAddr: 0x100011388, symSize: 0x40 }
  - { offsetInCU: 0x7D20, offset: 0x23809, size: 0x8, addend: 0x0, symName: __ZNSt3__1plB8ue170006IcNS_11char_traitsIcEENS_9allocatorIcEEEENS_12basic_stringIT_T0_T1_EEPKS6_OS9_, symObjAddr: 0x6A6C, symBinAddr: 0x1000113C8, symSize: 0x44 }
  - { offsetInCU: 0x7F1C, offset: 0x23A05, size: 0x8, addend: 0x0, symName: __ZNSt3__112__to_addressB8ue170006I7BaralhoEEPT_S3_, symObjAddr: 0x90BC, symBinAddr: 0x100011A40, symSize: 0x14 }
  - { offsetInCU: 0x7F51, offset: 0x23A3A, size: 0x8, addend: 0x0, symName: __ZNSt3__18distanceB8ue170006IPK7BaralhoEENS_15iterator_traitsIT_E15difference_typeES5_S5_, symObjAddr: 0x9438, symBinAddr: 0x100011DBC, symSize: 0x2C }
  - { offsetInCU: 0x7F94, offset: 0x23A7D, size: 0x8, addend: 0x0, symName: __ZNSt3__14nextB8ue170006IPK7BaralhoEENS_9enable_ifIXsr29__has_input_iterator_categoryIT_EE5valueES5_E4typeES5_NS_15iterator_traitsIS5_E15difference_typeE, symObjAddr: 0x9464, symBinAddr: 0x100011DE8, symSize: 0x34 }
  - { offsetInCU: 0x7FD7, offset: 0x23AC0, size: 0x8, addend: 0x0, symName: __ZNSt3__14copyB8ue170006IPK7BaralhoPS1_EET0_T_S6_S5_, symObjAddr: 0x9498, symBinAddr: 0x100011E1C, symSize: 0x40 }
  - { offsetInCU: 0x8031, offset: 0x23B1A, size: 0x8, addend: 0x0, symName: __ZNSt3__16__copyB8ue170006INS_17_ClassicAlgPolicyEPK7BaralhoS4_PS2_EENS_4pairIT0_T2_EES7_T1_S8_, symObjAddr: 0x9564, symBinAddr: 0x100011EE8, symSize: 0x44 }
  - { offsetInCU: 0x809D, offset: 0x23B86, size: 0x8, addend: 0x0, symName: __ZNSt3__19__advanceB8ue170006IPK7BaralhoEEvRT_NS_15iterator_traitsIS4_E15difference_typeENS_26random_access_iterator_tagE, symObjAddr: 0x9828, symBinAddr: 0x1000121AC, symSize: 0x30 }
  - { offsetInCU: 0x80E6, offset: 0x23BCF, size: 0x8, addend: 0x0, symName: __ZNSt3__130__uninitialized_allocator_copyB8ue170006INS_9allocatorI7BaralhoEEPKS2_S5_PS2_EET2_RT_T0_T1_S7_, symObjAddr: 0x9894, symBinAddr: 0x100012218, symSize: 0x80 }
  - { offsetInCU: 0x8183, offset: 0x23C6C, size: 0x8, addend: 0x0, symName: __ZNSt3__114__unwrap_rangeB8ue170006IPK7BaralhoS3_EENS_4pairIT0_S5_EET_S7_, symObjAddr: 0x998C, symBinAddr: 0x100012310, symSize: 0x60 }
  - { offsetInCU: 0x81CF, offset: 0x23CB8, size: 0x8, addend: 0x0, symName: __ZNSt3__135__uninitialized_allocator_copy_implB8ue170006INS_9allocatorI7BaralhoEEPKS2_S5_PS2_EET2_RT_T0_T1_S7_, symObjAddr: 0x99EC, symBinAddr: 0x100012370, symSize: 0xF4 }
  - { offsetInCU: 0x826D, offset: 0x23D56, size: 0x8, addend: 0x0, symName: __ZNSt3__113__unwrap_iterB8ue170006IP7BaralhoNS_18__unwrap_iter_implIS2_Lb1EEELi0EEEDTclsrT0_8__unwrapclsr3stdE7declvalIT_EEEES6_, symObjAddr: 0x9AE0, symBinAddr: 0x100012464, symSize: 0x24 }
  - { offsetInCU: 0x82B1, offset: 0x23D9A, size: 0x8, addend: 0x0, symName: __ZNSt3__113__rewrap_iterB8ue170006IP7BaralhoS2_NS_18__unwrap_iter_implIS2_Lb1EEEEET_S5_T0_, symObjAddr: 0x9B04, symBinAddr: 0x100012488, symSize: 0x3C }
  - { offsetInCU: 0x8306, offset: 0x23DEF, size: 0x8, addend: 0x0, symName: __ZNSt3__19make_pairB8ue170006IPK7BaralhoS3_EENS_4pairINS_18__unwrap_ref_decayIT_E4typeENS5_IT0_E4typeEEEOS6_OS9_, symObjAddr: 0x9B40, symBinAddr: 0x1000124C4, symSize: 0x38 }
  - { offsetInCU: 0x8355, offset: 0x23E3E, size: 0x8, addend: 0x0, symName: __ZNSt3__113__unwrap_iterB8ue170006IPK7BaralhoNS_18__unwrap_iter_implIS3_Lb1EEELi0EEEDTclsrT0_8__unwrapclsr3stdE7declvalIT_EEEES7_, symObjAddr: 0x9B78, symBinAddr: 0x1000124FC, symSize: 0x24 }
  - { offsetInCU: 0x84C0, offset: 0x23FA9, size: 0x8, addend: 0x0, symName: __ZNSt3__112__to_addressB8ue170006IK7BaralhoEEPT_S4_, symObjAddr: 0x9C30, symBinAddr: 0x1000125B4, symSize: 0x14 }
  - { offsetInCU: 0x84F5, offset: 0x23FDE, size: 0x8, addend: 0x0, symName: __ZNSt3__122__make_exception_guardB8ue170006INS_29_AllocatorDestroyRangeReverseINS_9allocatorI7BaralhoEEPS3_EEEENS_28__exception_guard_exceptionsIT_EES8_, symObjAddr: 0x9C44, symBinAddr: 0x1000125C8, symSize: 0x4C }
  - { offsetInCU: 0x852B, offset: 0x24014, size: 0x8, addend: 0x0, symName: __ZNSt3__119__allocator_destroyB8ue170006INS_9allocatorI7BaralhoEENS_16reverse_iteratorIPS2_EES6_EEvRT_T0_T1_, symObjAddr: 0x9F78, symBinAddr: 0x1000128FC, symSize: 0x70 }
  - { offsetInCU: 0x858E, offset: 0x24077, size: 0x8, addend: 0x0, symName: __ZNSt3__1neB8ue170006IP7BaralhoS2_EEbRKNS_16reverse_iteratorIT_EERKNS3_IT0_EE, symObjAddr: 0xA01C, symBinAddr: 0x1000129A0, symSize: 0x48 }
  - { offsetInCU: 0x85DA, offset: 0x240C3, size: 0x8, addend: 0x0, symName: __ZNSt3__112__to_addressB8ue170006INS_16reverse_iteratorIP7BaralhoEEvEEu7__decayIDTclsr19__to_address_helperIT_EE6__callclsr3stdE7declvalIRKS5_EEEEES7_, symObjAddr: 0xA064, symBinAddr: 0x1000129E8, symSize: 0x24 }
  - { offsetInCU: 0x868C, offset: 0x24175, size: 0x8, addend: 0x0, symName: __ZNSt3__123__dispatch_copy_or_moveB8ue170006INS_17_ClassicAlgPolicyENS_11__copy_loopIS1_EENS_14__copy_trivialEPK7BaralhoS7_PS5_EENS_4pairIT2_T4_EESA_T3_SB_, symObjAddr: 0xA208, symBinAddr: 0x100012B8C, symSize: 0x44 }
  - { offsetInCU: 0x870A, offset: 0x241F3, size: 0x8, addend: 0x0, symName: __ZNSt3__121__unwrap_and_dispatchB8ue170006INS_10__overloadINS_11__copy_loopINS_17_ClassicAlgPolicyEEENS_14__copy_trivialEEEPK7BaralhoS9_PS7_Li0EEENS_4pairIT0_T2_EESC_T1_SD_, symObjAddr: 0xA24C, symBinAddr: 0x100012BD0, symSize: 0xB4 }
  - { offsetInCU: 0x886C, offset: 0x24355, size: 0x8, addend: 0x0, symName: __ZNSt3__19make_pairB8ue170006IPK7BaralhoPS1_EENS_4pairINS_18__unwrap_ref_decayIT_E4typeENS6_IT0_E4typeEEEOS7_OSA_, symObjAddr: 0xA388, symBinAddr: 0x100012D0C, symSize: 0x38 }
  - { offsetInCU: 0x88BB, offset: 0x243A4, size: 0x8, addend: 0x0, symName: __ZNSt3__114__rewrap_rangeB8ue170006IPK7BaralhoS3_EET_S4_T0_, symObjAddr: 0xA3C0, symBinAddr: 0x100012D44, symSize: 0x2C }
  - { offsetInCU: 0x89DB, offset: 0x244C4, size: 0x8, addend: 0x0, symName: __ZNSt3__113__rewrap_iterB8ue170006IPK7BaralhoS3_NS_18__unwrap_iter_implIS3_Lb1EEEEET_S6_T0_, symObjAddr: 0xBE0C, symBinAddr: 0x100012E28, symSize: 0x3C }
  - { offsetInCU: 0x8A30, offset: 0x24519, size: 0x8, addend: 0x0, symName: __ZNSt3__119__allocate_at_leastB8ue170006INS_9allocatorI7BaralhoEEEENS_19__allocation_resultINS_16allocator_traitsIT_E7pointerEEERS6_m, symObjAddr: 0xC04C, symBinAddr: 0x100013068, symSize: 0x40 }
  - { offsetInCU: 0x8A73, offset: 0x2455C, size: 0x8, addend: 0x0, symName: __ZNSt3__110__distanceB8ue170006IPK7BaralhoEENS_15iterator_traitsIT_E15difference_typeES5_S5_NS_26random_access_iterator_tagE, symObjAddr: 0xC24C, symBinAddr: 0x100013268, symSize: 0x28 }
  - { offsetInCU: 0x8AC0, offset: 0x245A9, size: 0x8, addend: 0x0, symName: __ZNSt3__142__uninitialized_allocator_move_if_noexceptB8ue170006INS_9allocatorI7BaralhoEENS_16reverse_iteratorIPS2_EES6_S6_EET2_RT_T0_T1_S7_, symObjAddr: 0xF47C, symBinAddr: 0x100013BE8, symSize: 0x11C }
  - { offsetInCU: 0x8B60, offset: 0x24649, size: 0x8, addend: 0x0, symName: __ZNSt3__14swapB8ue170006IP7BaralhoEENS_9enable_ifIXaasr21is_move_constructibleIT_EE5valuesr18is_move_assignableIS4_EE5valueEvE4typeERS4_S7_, symObjAddr: 0xF598, symBinAddr: 0x100013D04, symSize: 0x3C }
  - { offsetInCU: 0x8BB1, offset: 0x2469A, size: 0x8, addend: 0x0, symName: __ZNSt3__122__make_exception_guardB8ue170006INS_29_AllocatorDestroyRangeReverseINS_9allocatorI7BaralhoEENS_16reverse_iteratorIPS3_EEEEEENS_28__exception_guard_exceptionsIT_EESA_, symObjAddr: 0xF5D4, symBinAddr: 0x100013D40, symSize: 0x4C }
  - { offsetInCU: 0x8BE7, offset: 0x246D0, size: 0x8, addend: 0x0, symName: __ZNSt3__119__allocator_destroyB8ue170006INS_9allocatorI7BaralhoEENS_16reverse_iteratorINS4_IPS2_EEEES7_EEvRT_T0_T1_, symObjAddr: 0xF84C, symBinAddr: 0x100013FB8, symSize: 0x70 }
  - { offsetInCU: 0x8C4C, offset: 0x24735, size: 0x8, addend: 0x0, symName: __ZNSt3__1neB8ue170006INS_16reverse_iteratorIP7BaralhoEES4_EEbRKNS1_IT_EERKNS1_IT0_EE, symObjAddr: 0xF8F8, symBinAddr: 0x100014064, symSize: 0x60 }
  - { offsetInCU: 0x8C98, offset: 0x24781, size: 0x8, addend: 0x0, symName: __ZNSt3__112__to_addressB8ue170006INS_16reverse_iteratorINS1_IP7BaralhoEEEEvEEu7__decayIDTclsr19__to_address_helperIT_EE6__callclsr3stdE7declvalIRKS6_EEEEES8_, symObjAddr: 0xF958, symBinAddr: 0x1000140C4, symSize: 0x24 }
  - { offsetInCU: 0x8CF7, offset: 0x247E0, size: 0x8, addend: 0x0, symName: __ZNSt3__122__make_exception_guardB8ue170006INS_6vectorI7BaralhoNS_9allocatorIS2_EEE16__destroy_vectorEEENS_28__exception_guard_exceptionsIT_EES8_, symObjAddr: 0x111E0, symBinAddr: 0x100014AA4, symSize: 0x40 }
  - { offsetInCU: 0x8D2C, offset: 0x24815, size: 0x8, addend: 0x0, symName: __ZNSt3__130__uninitialized_allocator_copyB8ue170006INS_9allocatorI7BaralhoEEPS2_S4_S4_EET2_RT_T0_T1_S5_, symObjAddr: 0x1134C, symBinAddr: 0x100014C10, symSize: 0x80 }
  - { offsetInCU: 0x8DC9, offset: 0x248B2, size: 0x8, addend: 0x0, symName: __ZNSt3__114__unwrap_rangeB8ue170006IP7BaralhoS2_EENS_4pairIT0_S4_EET_S6_, symObjAddr: 0x113CC, symBinAddr: 0x100014C90, symSize: 0x60 }
  - { offsetInCU: 0x8E15, offset: 0x248FE, size: 0x8, addend: 0x0, symName: __ZNSt3__135__uninitialized_allocator_copy_implB8ue170006INS_9allocatorI7BaralhoEEPS2_S4_S4_EET2_RT_T0_T1_S5_, symObjAddr: 0x1142C, symBinAddr: 0x100014CF0, symSize: 0xF4 }
  - { offsetInCU: 0x8EB3, offset: 0x2499C, size: 0x8, addend: 0x0, symName: __ZNSt3__19make_pairB8ue170006IP7BaralhoS2_EENS_4pairINS_18__unwrap_ref_decayIT_E4typeENS4_IT0_E4typeEEEOS5_OS8_, symObjAddr: 0x11520, symBinAddr: 0x100014DE4, symSize: 0x38 }
  - { offsetInCU: 0x985F, offset: 0x25348, size: 0x8, addend: 0x0, symName: __ZNSt3__16vectorI7BaralhoNS_9allocatorIS1_EEE26__swap_out_circular_bufferERNS_14__split_bufferIS1_RS3_EE, symObjAddr: 0xF108, symBinAddr: 0x100013874, symSize: 0x110 }
  - { offsetInCU: 0xB860, offset: 0x27349, size: 0x8, addend: 0x0, symName: __ZN7UsuarioC2Ev, symObjAddr: 0x0, symBinAddr: 0x10000B1A4, symSize: 0xA8 }
  - { offsetInCU: 0xB88B, offset: 0x27374, size: 0x8, addend: 0x0, symName: __ZNSt3__16vectorI7BaralhoNS_9allocatorIS1_EEEC1B8ue170006Ev, symObjAddr: 0xD4, symBinAddr: 0x10000B24C, symSize: 0x2C }
  - { offsetInCU: 0xB8B4, offset: 0x2739D, size: 0x8, addend: 0x0, symName: __ZNSt16initializer_listI7BaralhoEC1B8ue170006Ev, symObjAddr: 0x12C, symBinAddr: 0x10000B278, symSize: 0x2C }
  - { offsetInCU: 0xB8DD, offset: 0x273C6, size: 0x8, addend: 0x0, symName: __ZNSt3__16vectorI7BaralhoNS_9allocatorIS1_EEEaSB8ue170006ESt16initializer_listIS1_E, symObjAddr: 0x158, symBinAddr: 0x10000B2A4, symSize: 0x60 }
  - { offsetInCU: 0xB911, offset: 0x273FA, size: 0x8, addend: 0x0, symName: __ZNSt3__16vectorI7BaralhoNS_9allocatorIS1_EEED1B8ue170006Ev, symObjAddr: 0x1B8, symBinAddr: 0x10000B304, symSize: 0x2C }
  - { offsetInCU: 0xB93A, offset: 0x27423, size: 0x8, addend: 0x0, symName: __ZN7UsuarioC1Ev, symObjAddr: 0x1E4, symBinAddr: 0x10000B330, symSize: 0x2C }
  - { offsetInCU: 0xB965, offset: 0x2744E, size: 0x8, addend: 0x0, symName: __ZN7UsuarioD2Ev, symObjAddr: 0x210, symBinAddr: 0x10000B35C, symSize: 0x64 }
  - { offsetInCU: 0xB990, offset: 0x27479, size: 0x8, addend: 0x0, symName: __ZNSt3__16vectorI7BaralhoNS_9allocatorIS1_EEE5clearB8ue170006Ev, symObjAddr: 0x280, symBinAddr: 0x10000B3C0, symSize: 0x44 }
  - { offsetInCU: 0xB9C4, offset: 0x274AD, size: 0x8, addend: 0x0, symName: __ZN7UsuarioD1Ev, symObjAddr: 0x2C4, symBinAddr: 0x10000B404, symSize: 0x2C }
  - { offsetInCU: 0xB9EF, offset: 0x274D8, size: 0x8, addend: 0x0, symName: __ZN7UsuarioC2ENSt3__112basic_stringIcNS0_11char_traitsIcEENS0_9allocatorIcEEEE, symObjAddr: 0x2F0, symBinAddr: 0x10000B430, symSize: 0x54BC }
  - { offsetInCU: 0xBC49, offset: 0x27732, size: 0x8, addend: 0x0, symName: __ZNSt3__14pairINS_12basic_stringIcNS_11char_traitsIcEENS_9allocatorIcEEEEiEC1B8ue170006ILb1ELPv0EEEv, symObjAddr: 0x5838, symBinAddr: 0x1000108EC, symSize: 0x2C }
  - { offsetInCU: 0xBC9B, offset: 0x27784, size: 0x8, addend: 0x0, symName: __ZNSt3__14pairINS_12basic_stringIcNS_11char_traitsIcEENS_9allocatorIcEEEEiEaSB8ue170006IPKciLPv0EEERS7_ONS0_IT_T0_EE, symObjAddr: 0x589C, symBinAddr: 0x100010950, symSize: 0x44 }
  - { offsetInCU: 0xBCE6, offset: 0x277CF, size: 0x8, addend: 0x0, symName: __ZNSt3__16vectorI7BaralhoNS_9allocatorIS1_EEE9push_backB8ue170006ERKS1_, symObjAddr: 0x5D34, symBinAddr: 0x100010B8C, symSize: 0x6C }
  - { offsetInCU: 0xBD1C, offset: 0x27805, size: 0x8, addend: 0x0, symName: __ZNKSt3__16vectorI7BaralhoNS_9allocatorIS1_EEE4sizeB8ue170006Ev, symObjAddr: 0x6058, symBinAddr: 0x100010DB8, symSize: 0x28 }
  - { offsetInCU: 0xBD40, offset: 0x27829, size: 0x8, addend: 0x0, symName: __ZNSt3__16vectorI7BaralhoNS_9allocatorIS1_EEE2atEm, symObjAddr: 0x60CC, symBinAddr: 0x100010DE0, symSize: 0x68 }
  - { offsetInCU: 0xBD76, offset: 0x2785F, size: 0x8, addend: 0x0, symName: __ZNSt3__14pairINS_12basic_stringIcNS_11char_traitsIcEENS_9allocatorIcEEEEiEaSB8ue170006EOS7_, symObjAddr: 0x64C4, symBinAddr: 0x100010E88, symSize: 0x40 }
  - { offsetInCU: 0xBDAA, offset: 0x27893, size: 0x8, addend: 0x0, symName: __ZN7UsuarioC1ENSt3__112basic_stringIcNS0_11char_traitsIcEENS0_9allocatorIcEEEE, symObjAddr: 0x656C, symBinAddr: 0x100010EC8, symSize: 0x34 }
  - { offsetInCU: 0xBDE4, offset: 0x278CD, size: 0x8, addend: 0x0, symName: __ZN7Usuario11getVitoriasEv, symObjAddr: 0x65A0, symBinAddr: 0x100010EFC, symSize: 0x18 }
  - { offsetInCU: 0xBE0C, offset: 0x278F5, size: 0x8, addend: 0x0, symName: __ZN7Usuario11getDerrotasEv, symObjAddr: 0x65B8, symBinAddr: 0x100010F14, symSize: 0x18 }
  - { offsetInCU: 0xBE34, offset: 0x2791D, size: 0x8, addend: 0x0, symName: __ZN7Usuario11setVitoriasEi, symObjAddr: 0x65D0, symBinAddr: 0x100010F2C, symSize: 0x24 }
  - { offsetInCU: 0xBE6B, offset: 0x27954, size: 0x8, addend: 0x0, symName: __ZN7Usuario11setDerrotasEi, symObjAddr: 0x65F4, symBinAddr: 0x100010F50, symSize: 0x24 }
  - { offsetInCU: 0xBEA2, offset: 0x2798B, size: 0x8, addend: 0x0, symName: __ZN7Usuario7getNomeEv, symObjAddr: 0x6618, symBinAddr: 0x100010F74, symSize: 0x38 }
  - { offsetInCU: 0xBECA, offset: 0x279B3, size: 0x8, addend: 0x0, symName: __ZN7Usuario11getBaralhosEv, symObjAddr: 0x6650, symBinAddr: 0x100010FAC, symSize: 0x3C }
  - { offsetInCU: 0xBEF2, offset: 0x279DB, size: 0x8, addend: 0x0, symName: __ZNSt3__16vectorI7BaralhoNS_9allocatorIS1_EEEC1ERKS4_, symObjAddr: 0x668C, symBinAddr: 0x100010FE8, symSize: 0x34 }
  - { offsetInCU: 0xBF2C, offset: 0x27A15, size: 0x8, addend: 0x0, symName: __ZN7Usuario11setBaralhosE7Baralho, symObjAddr: 0x66C0, symBinAddr: 0x10001101C, symSize: 0x30 }
  - { offsetInCU: 0xBF64, offset: 0x27A4D, size: 0x8, addend: 0x0, symName: __ZN7Usuario8toStringEv, symObjAddr: 0x66F0, symBinAddr: 0x10001104C, symSize: 0x33C }
  - { offsetInCU: 0xBFB2, offset: 0x27A9B, size: 0x8, addend: 0x0, symName: __ZNSt3__112basic_stringIcNS_11char_traitsIcEENS_9allocatorIcEEEpLB8ue170006ERKS5_, symObjAddr: 0x6AB0, symBinAddr: 0x10001140C, symSize: 0x2C }
  - { offsetInCU: 0xBFE6, offset: 0x27ACF, size: 0x8, addend: 0x0, symName: __ZNSt3__112basic_stringIcNS_11char_traitsIcEENS_9allocatorIcEEEpLB8ue170006EPKc, symObjAddr: 0x6ADC, symBinAddr: 0x100011438, symSize: 0x2C }
  - { offsetInCU: 0xC01A, offset: 0x27B03, size: 0x8, addend: 0x0, symName: __ZNSt3__16vectorI7BaralhoNS_9allocatorIS1_EEEixB8ue170006Em, symObjAddr: 0x6B08, symBinAddr: 0x100011464, symSize: 0x2C }
  - { offsetInCU: 0xC050, offset: 0x27B39, size: 0x8, addend: 0x0, symName: __ZN7Usuario14getNomeBaralhoEi, symObjAddr: 0x6B34, symBinAddr: 0x100011490, symSize: 0x40 }
  - { offsetInCU: 0xC087, offset: 0x27B70, size: 0x8, addend: 0x0, symName: __ZN7Usuario7setNomeENSt3__112basic_stringIcNS0_11char_traitsIcEENS0_9allocatorIcEEEE, symObjAddr: 0x6B74, symBinAddr: 0x1000114D0, symSize: 0x2C }
  - { offsetInCU: 0xC0BF, offset: 0x27BA8, size: 0x8, addend: 0x0, symName: __ZNSt3__14pairINS_12basic_stringIcNS_11char_traitsIcEENS_9allocatorIcEEEEiEC2B8ue170006ILb1ELPv0EEEv, symObjAddr: 0x6BA0, symBinAddr: 0x1000114FC, symSize: 0x30 }
  - { offsetInCU: 0xC148, offset: 0x27C31, size: 0x8, addend: 0x0, symName: __ZNSt3__112basic_stringIcNS_11char_traitsIcEENS_9allocatorIcEEE6appendB8ue170006ERKS5_, symObjAddr: 0x8994, symBinAddr: 0x10001152C, symSize: 0x4C }
  - { offsetInCU: 0xC17C, offset: 0x27C65, size: 0x8, addend: 0x0, symName: __ZNSt3__16vectorI7BaralhoNS_9allocatorIS1_EEEC2B8ue170006Ev, symObjAddr: 0x8BF4, symBinAddr: 0x100011578, symSize: 0x4C }
  - { offsetInCU: 0xC1AA, offset: 0x27C93, size: 0x8, addend: 0x0, symName: __ZNSt3__117__compressed_pairIP7BaralhoNS_9allocatorIS1_EEEC1B8ue170006IDnNS_18__default_init_tagEEEOT_OT0_, symObjAddr: 0x8C40, symBinAddr: 0x1000115C4, symSize: 0x3C }
  - { offsetInCU: 0xC201, offset: 0x27CEA, size: 0x8, addend: 0x0, symName: __ZNSt3__117__compressed_pairIP7BaralhoNS_9allocatorIS1_EEEC2B8ue170006IDnNS_18__default_init_tagEEEOT_OT0_, symObjAddr: 0x8C7C, symBinAddr: 0x100011600, symSize: 0x40 }
  - { offsetInCU: 0xC258, offset: 0x27D41, size: 0x8, addend: 0x0, symName: __ZNSt3__122__compressed_pair_elemIP7BaralhoLi0ELb0EEC2B8ue170006IDnvEEOT_, symObjAddr: 0x8CBC, symBinAddr: 0x100011640, symSize: 0x1C }
  - { offsetInCU: 0xC299, offset: 0x27D82, size: 0x8, addend: 0x0, symName: __ZNSt3__122__compressed_pair_elemINS_9allocatorI7BaralhoEELi1ELb1EEC2B8ue170006ENS_18__default_init_tagE, symObjAddr: 0x8CD8, symBinAddr: 0x10001165C, symSize: 0x2C }
  - { offsetInCU: 0xC2CC, offset: 0x27DB5, size: 0x8, addend: 0x0, symName: __ZNSt3__19allocatorI7BaralhoEC2B8ue170006Ev, symObjAddr: 0x8D04, symBinAddr: 0x100011688, symSize: 0x2C }
  - { offsetInCU: 0xC2F5, offset: 0x27DDE, size: 0x8, addend: 0x0, symName: __ZNSt3__116__non_trivial_ifILb1ENS_9allocatorI7BaralhoEEEC2B8ue170006Ev, symObjAddr: 0x8D30, symBinAddr: 0x1000116B4, symSize: 0x14 }
  - { offsetInCU: 0xC31E, offset: 0x27E07, size: 0x8, addend: 0x0, symName: __ZNSt3__16vectorI7BaralhoNS_9allocatorIS1_EEED2B8ue170006Ev, symObjAddr: 0x8D44, symBinAddr: 0x1000116C8, symSize: 0x44 }
  - { offsetInCU: 0xC347, offset: 0x27E30, size: 0x8, addend: 0x0, symName: __ZNSt3__16vectorI7BaralhoNS_9allocatorIS1_EEE16__destroy_vectorC1B8ue170006ERS4_, symObjAddr: 0x8D88, symBinAddr: 0x10001170C, symSize: 0x34 }
  - { offsetInCU: 0xC37F, offset: 0x27E68, size: 0x8, addend: 0x0, symName: __ZNSt3__16vectorI7BaralhoNS_9allocatorIS1_EEE16__destroy_vectorclB8ue170006Ev, symObjAddr: 0x8DBC, symBinAddr: 0x100011740, symSize: 0x90 }
  - { offsetInCU: 0xC3A4, offset: 0x27E8D, size: 0x8, addend: 0x0, symName: __ZNSt3__16vectorI7BaralhoNS_9allocatorIS1_EEE16__destroy_vectorC2B8ue170006ERS4_, symObjAddr: 0x8E4C, symBinAddr: 0x1000117D0, symSize: 0x20 }
  - { offsetInCU: 0xC3DC, offset: 0x27EC5, size: 0x8, addend: 0x0, symName: __ZNSt3__16vectorI7BaralhoNS_9allocatorIS1_EEE7__clearB8ue170006Ev, symObjAddr: 0x8E6C, symBinAddr: 0x1000117F0, symSize: 0x28 }
  - { offsetInCU: 0xC401, offset: 0x27EEA, size: 0x8, addend: 0x0, symName: __ZNKSt3__16vectorI7BaralhoNS_9allocatorIS1_EEE17__annotate_deleteB8ue170006Ev, symObjAddr: 0x8E94, symBinAddr: 0x100011818, symSize: 0xD4 }
  - { offsetInCU: 0xC426, offset: 0x27F0F, size: 0x8, addend: 0x0, symName: __ZNSt3__116allocator_traitsINS_9allocatorI7BaralhoEEE10deallocateB8ue170006ERS3_PS2_m, symObjAddr: 0x8F68, symBinAddr: 0x1000118EC, symSize: 0x34 }
  - { offsetInCU: 0xC468, offset: 0x27F51, size: 0x8, addend: 0x0, symName: __ZNSt3__16vectorI7BaralhoNS_9allocatorIS1_EEE7__allocB8ue170006Ev, symObjAddr: 0x8F9C, symBinAddr: 0x100011920, symSize: 0x28 }
  - { offsetInCU: 0xC48D, offset: 0x27F76, size: 0x8, addend: 0x0, symName: __ZNKSt3__16vectorI7BaralhoNS_9allocatorIS1_EEE8capacityB8ue170006Ev, symObjAddr: 0x8FC4, symBinAddr: 0x100011948, symSize: 0x40 }
  - { offsetInCU: 0xC4B2, offset: 0x27F9B, size: 0x8, addend: 0x0, symName: __ZNSt3__16vectorI7BaralhoNS_9allocatorIS1_EEE22__base_destruct_at_endB8ue170006EPS1_, symObjAddr: 0x9004, symBinAddr: 0x100011988, symSize: 0x8C }
  - { offsetInCU: 0xC4F5, offset: 0x27FDE, size: 0x8, addend: 0x0, symName: __ZNSt3__116allocator_traitsINS_9allocatorI7BaralhoEEE7destroyB8ue170006IS2_vEEvRS3_PT_, symObjAddr: 0x9090, symBinAddr: 0x100011A14, symSize: 0x2C }
  - { offsetInCU: 0xC532, offset: 0x2801B, size: 0x8, addend: 0x0, symName: __ZNSt3__19allocatorI7BaralhoE7destroyB8ue170006EPS1_, symObjAddr: 0x90D0, symBinAddr: 0x100011A54, symSize: 0x28 }
  - { offsetInCU: 0xC565, offset: 0x2804E, size: 0x8, addend: 0x0, symName: __ZNKSt3__16vectorI7BaralhoNS_9allocatorIS1_EEE31__annotate_contiguous_containerB8ue170006EPKvS6_S6_S6_, symObjAddr: 0x90F8, symBinAddr: 0x100011A7C, symSize: 0x20 }
  - { offsetInCU: 0xC5BA, offset: 0x280A3, size: 0x8, addend: 0x0, symName: __ZNKSt3__16vectorI7BaralhoNS_9allocatorIS1_EEE4dataB8ue170006Ev, symObjAddr: 0x9118, symBinAddr: 0x100011A9C, symSize: 0x28 }
  - { offsetInCU: 0xC5DF, offset: 0x280C8, size: 0x8, addend: 0x0, symName: __ZNSt3__19allocatorI7BaralhoE10deallocateB8ue170006EPS1_m, symObjAddr: 0x9140, symBinAddr: 0x100011AC4, symSize: 0x44 }
  - { offsetInCU: 0xC620, offset: 0x28109, size: 0x8, addend: 0x0, symName: __ZNSt3__117__compressed_pairIP7BaralhoNS_9allocatorIS1_EEE6secondB8ue170006Ev, symObjAddr: 0x9184, symBinAddr: 0x100011B08, symSize: 0x24 }
  - { offsetInCU: 0xC645, offset: 0x2812E, size: 0x8, addend: 0x0, symName: __ZNSt3__122__compressed_pair_elemINS_9allocatorI7BaralhoEELi1ELb1EE5__getB8ue170006Ev, symObjAddr: 0x91A8, symBinAddr: 0x100011B2C, symSize: 0x14 }
  - { offsetInCU: 0xC66A, offset: 0x28153, size: 0x8, addend: 0x0, symName: __ZNKSt3__16vectorI7BaralhoNS_9allocatorIS1_EEE9__end_capB8ue170006Ev, symObjAddr: 0x91BC, symBinAddr: 0x100011B40, symSize: 0x28 }
  - { offsetInCU: 0xC68F, offset: 0x28178, size: 0x8, addend: 0x0, symName: __ZNKSt3__117__compressed_pairIP7BaralhoNS_9allocatorIS1_EEE5firstB8ue170006Ev, symObjAddr: 0x91E4, symBinAddr: 0x100011B68, symSize: 0x24 }
  - { offsetInCU: 0xC6B4, offset: 0x2819D, size: 0x8, addend: 0x0, symName: __ZNKSt3__122__compressed_pair_elemIP7BaralhoLi0ELb0EE5__getB8ue170006Ev, symObjAddr: 0x9208, symBinAddr: 0x100011B8C, symSize: 0x14 }
  - { offsetInCU: 0xC6D9, offset: 0x281C2, size: 0x8, addend: 0x0, symName: __ZNSt16initializer_listI7BaralhoEC2B8ue170006Ev, symObjAddr: 0x921C, symBinAddr: 0x100011BA0, symSize: 0x1C }
  - { offsetInCU: 0xC701, offset: 0x281EA, size: 0x8, addend: 0x0, symName: __ZNSt3__16vectorI7BaralhoNS_9allocatorIS1_EEE6assignIPKS1_Li0EEEvT_S8_, symObjAddr: 0x9238, symBinAddr: 0x100011BBC, symSize: 0x5C }
  - { offsetInCU: 0xC755, offset: 0x2823E, size: 0x8, addend: 0x0, symName: __ZNKSt16initializer_listI7BaralhoE5beginB8ue170006Ev, symObjAddr: 0x9294, symBinAddr: 0x100011C18, symSize: 0x18 }
  - { offsetInCU: 0xC77A, offset: 0x28263, size: 0x8, addend: 0x0, symName: __ZNKSt16initializer_listI7BaralhoE3endB8ue170006Ev, symObjAddr: 0x92AC, symBinAddr: 0x100011C30, symSize: 0x28 }
  - { offsetInCU: 0xC79E, offset: 0x28287, size: 0x8, addend: 0x0, symName: __ZNSt3__16vectorI7BaralhoNS_9allocatorIS1_EEE18__assign_with_sizeB8ue170006IPKS1_S7_EEvT_T0_l, symObjAddr: 0x92D4, symBinAddr: 0x100011C58, symSize: 0x164 }
  - { offsetInCU: 0xC84E, offset: 0x28337, size: 0x8, addend: 0x0, symName: __ZNSt3__16vectorI7BaralhoNS_9allocatorIS1_EEE18__construct_at_endIPKS1_S7_EEvT_T0_m, symObjAddr: 0x94D8, symBinAddr: 0x100011E5C, symSize: 0x8C }
  - { offsetInCU: 0xC8C3, offset: 0x283AC, size: 0x8, addend: 0x0, symName: __ZNSt3__16vectorI7BaralhoNS_9allocatorIS1_EEE17__destruct_at_endB8ue170006EPS1_, symObjAddr: 0x95A8, symBinAddr: 0x100011F2C, symSize: 0x4C }
  - { offsetInCU: 0xC905, offset: 0x283EE, size: 0x8, addend: 0x0, symName: __ZNSt3__16vectorI7BaralhoNS_9allocatorIS1_EEE13__vdeallocateEv, symObjAddr: 0x95F4, symBinAddr: 0x100011F78, symSize: 0x94 }
  - { offsetInCU: 0xC92C, offset: 0x28415, size: 0x8, addend: 0x0, symName: __ZNSt3__16vectorI7BaralhoNS_9allocatorIS1_EEE11__vallocateB8ue170006Em, symObjAddr: 0x9688, symBinAddr: 0x10001200C, symSize: 0xB4 }
  - { offsetInCU: 0xC96E, offset: 0x28457, size: 0x8, addend: 0x0, symName: __ZNKSt3__16vectorI7BaralhoNS_9allocatorIS1_EEE11__recommendB8ue170006Em, symObjAddr: 0x973C, symBinAddr: 0x1000120C0, symSize: 0xB4 }
  - { offsetInCU: 0xC9DB, offset: 0x284C4, size: 0x8, addend: 0x0, symName: __ZNSt3__16vectorI7BaralhoNS_9allocatorIS1_EEE21_ConstructTransactionC1B8ue170006ERS4_m, symObjAddr: 0x9858, symBinAddr: 0x1000121DC, symSize: 0x3C }
  - { offsetInCU: 0xCA22, offset: 0x2850B, size: 0x8, addend: 0x0, symName: __ZNSt3__16vectorI7BaralhoNS_9allocatorIS1_EEE21_ConstructTransactionD1B8ue170006Ev, symObjAddr: 0x9914, symBinAddr: 0x100012298, symSize: 0x2C }
  - { offsetInCU: 0xCA4B, offset: 0x28534, size: 0x8, addend: 0x0, symName: __ZNSt3__16vectorI7BaralhoNS_9allocatorIS1_EEE21_ConstructTransactionC2B8ue170006ERS4_m, symObjAddr: 0x9940, symBinAddr: 0x1000122C4, symSize: 0x4C }
  - { offsetInCU: 0xCAB0, offset: 0x28599, size: 0x8, addend: 0x0, symName: __ZNSt3__14pairIPK7BaralhoS3_EC1B8ue170006IS3_S3_LPv0EEEOT_OT0_, symObjAddr: 0x9B9C, symBinAddr: 0x100012520, symSize: 0x3C }
  - { offsetInCU: 0xCB0D, offset: 0x285F6, size: 0x8, addend: 0x0, symName: __ZNSt3__14pairIPK7BaralhoS3_EC2B8ue170006IS3_S3_LPv0EEEOT_OT0_, symObjAddr: 0x9BD8, symBinAddr: 0x10001255C, symSize: 0x34 }
  - { offsetInCU: 0xCB6A, offset: 0x28653, size: 0x8, addend: 0x0, symName: __ZNSt3__118__unwrap_iter_implIPK7BaralhoLb1EE8__unwrapB8ue170006ES3_, symObjAddr: 0x9C0C, symBinAddr: 0x100012590, symSize: 0x24 }
  - { offsetInCU: 0xCB8D, offset: 0x28676, size: 0x8, addend: 0x0, symName: __ZNSt3__129_AllocatorDestroyRangeReverseINS_9allocatorI7BaralhoEEPS2_EC1B8ue170006ERS3_RS4_S7_, symObjAddr: 0x9C90, symBinAddr: 0x100012614, symSize: 0x44 }
  - { offsetInCU: 0xCBE3, offset: 0x286CC, size: 0x8, addend: 0x0, symName: __ZNSt3__116allocator_traitsINS_9allocatorI7BaralhoEEE9constructB8ue170006IS2_JRKS2_EvEEvRS3_PT_DpOT0_, symObjAddr: 0x9CD4, symBinAddr: 0x100012658, symSize: 0x34 }
  - { offsetInCU: 0xCC3A, offset: 0x28723, size: 0x8, addend: 0x0, symName: __ZNSt3__128__exception_guard_exceptionsINS_29_AllocatorDestroyRangeReverseINS_9allocatorI7BaralhoEEPS3_EEE10__completeB8ue170006Ev, symObjAddr: 0x9D08, symBinAddr: 0x10001268C, symSize: 0x1C }
  - { offsetInCU: 0xCC5F, offset: 0x28748, size: 0x8, addend: 0x0, symName: __ZNSt3__128__exception_guard_exceptionsINS_29_AllocatorDestroyRangeReverseINS_9allocatorI7BaralhoEEPS3_EEED1B8ue170006Ev, symObjAddr: 0x9D24, symBinAddr: 0x1000126A8, symSize: 0x2C }
  - { offsetInCU: 0xCC88, offset: 0x28771, size: 0x8, addend: 0x0, symName: __ZNSt3__128__exception_guard_exceptionsINS_29_AllocatorDestroyRangeReverseINS_9allocatorI7BaralhoEEPS3_EEEC1B8ue170006ES6_, symObjAddr: 0x9D50, symBinAddr: 0x1000126D4, symSize: 0x34 }
  - { offsetInCU: 0xCCC0, offset: 0x287A9, size: 0x8, addend: 0x0, symName: __ZNSt3__128__exception_guard_exceptionsINS_29_AllocatorDestroyRangeReverseINS_9allocatorI7BaralhoEEPS3_EEEC2B8ue170006ES6_, symObjAddr: 0x9D84, symBinAddr: 0x100012708, symSize: 0x30 }
  - { offsetInCU: 0xCCF8, offset: 0x287E1, size: 0x8, addend: 0x0, symName: __ZNSt3__129_AllocatorDestroyRangeReverseINS_9allocatorI7BaralhoEEPS2_EC2B8ue170006ERS3_RS4_S7_, symObjAddr: 0x9DB4, symBinAddr: 0x100012738, symSize: 0x38 }
  - { offsetInCU: 0xCD4E, offset: 0x28837, size: 0x8, addend: 0x0, symName: __ZNSt3__19allocatorI7BaralhoE9constructB8ue170006IS1_JRKS1_EEEvPT_DpOT0_, symObjAddr: 0x9DEC, symBinAddr: 0x100012770, symSize: 0x30 }
  - { offsetInCU: 0xCDA3, offset: 0x2888C, size: 0x8, addend: 0x0, symName: __ZN7BaralhoC1ERKS_, symObjAddr: 0x9E1C, symBinAddr: 0x1000127A0, symSize: 0x34 }
  - { offsetInCU: 0xCDD7, offset: 0x288C0, size: 0x8, addend: 0x0, symName: __ZN7BaralhoC2ERKS_, symObjAddr: 0x9E50, symBinAddr: 0x1000127D4, symSize: 0x70 }
  - { offsetInCU: 0xCE0B, offset: 0x288F4, size: 0x8, addend: 0x0, symName: __ZNSt3__128__exception_guard_exceptionsINS_29_AllocatorDestroyRangeReverseINS_9allocatorI7BaralhoEEPS3_EEED2B8ue170006Ev, symObjAddr: 0x9EC0, symBinAddr: 0x100012844, symSize: 0x50 }
  - { offsetInCU: 0xCE34, offset: 0x2891D, size: 0x8, addend: 0x0, symName: __ZNKSt3__129_AllocatorDestroyRangeReverseINS_9allocatorI7BaralhoEEPS2_EclB8ue170006Ev, symObjAddr: 0x9F10, symBinAddr: 0x100012894, symSize: 0x68 }
  - { offsetInCU: 0xCE59, offset: 0x28942, size: 0x8, addend: 0x0, symName: __ZNSt3__116reverse_iteratorIP7BaralhoEC1B8ue170006ES2_, symObjAddr: 0x9FE8, symBinAddr: 0x10001296C, symSize: 0x34 }
  - { offsetInCU: 0xCE90, offset: 0x28979, size: 0x8, addend: 0x0, symName: __ZNSt3__116reverse_iteratorIP7BaralhoEppB8ue170006Ev, symObjAddr: 0xA088, symBinAddr: 0x100012A0C, symSize: 0x20 }
  - { offsetInCU: 0xCEB5, offset: 0x2899E, size: 0x8, addend: 0x0, symName: __ZNKSt3__116reverse_iteratorIP7BaralhoE4baseB8ue170006Ev, symObjAddr: 0xA0A8, symBinAddr: 0x100012A2C, symSize: 0x18 }
  - { offsetInCU: 0xCEDF, offset: 0x289C8, size: 0x8, addend: 0x0, symName: __ZNSt3__119__to_address_helperINS_16reverse_iteratorIP7BaralhoEEvE6__callB8ue170006ERKS4_, symObjAddr: 0xA0C0, symBinAddr: 0x100012A44, symSize: 0x38 }
  - { offsetInCU: 0xCF02, offset: 0x289EB, size: 0x8, addend: 0x0, symName: __ZNKSt3__116reverse_iteratorIP7BaralhoEptB8ue170006Ev, symObjAddr: 0xA0F8, symBinAddr: 0x100012A7C, symSize: 0x24 }
  - { offsetInCU: 0xCF27, offset: 0x28A10, size: 0x8, addend: 0x0, symName: __ZNKSt3__116reverse_iteratorIP7BaralhoEdeB8ue170006Ev, symObjAddr: 0xA11C, symBinAddr: 0x100012AA0, symSize: 0x28 }
  - { offsetInCU: 0xCF5A, offset: 0x28A43, size: 0x8, addend: 0x0, symName: __ZNSt3__116reverse_iteratorIP7BaralhoEC2B8ue170006ES2_, symObjAddr: 0xA144, symBinAddr: 0x100012AC8, symSize: 0x28 }
  - { offsetInCU: 0xCF91, offset: 0x28A7A, size: 0x8, addend: 0x0, symName: __ZNSt3__118__unwrap_iter_implIP7BaralhoLb1EE8__unwrapB8ue170006ES2_, symObjAddr: 0xA16C, symBinAddr: 0x100012AF0, symSize: 0x24 }
  - { offsetInCU: 0xCFB4, offset: 0x28A9D, size: 0x8, addend: 0x0, symName: __ZNSt3__118__unwrap_iter_implIP7BaralhoLb1EE8__rewrapB8ue170006ES2_S2_, symObjAddr: 0xA190, symBinAddr: 0x100012B14, symSize: 0x58 }
  - { offsetInCU: 0xCFE5, offset: 0x28ACE, size: 0x8, addend: 0x0, symName: __ZNSt3__16vectorI7BaralhoNS_9allocatorIS1_EEE21_ConstructTransactionD2B8ue170006Ev, symObjAddr: 0xA1E8, symBinAddr: 0x100012B6C, symSize: 0x20 }
  - { offsetInCU: 0xD027, offset: 0x28B10, size: 0x8, addend: 0x0, symName: __ZNKSt3__111__copy_loopINS_17_ClassicAlgPolicyEEclB8ue170006IPK7BaralhoS6_PS4_EENS_4pairIT_T1_EES9_T0_SA_, symObjAddr: 0xA300, symBinAddr: 0x100012C84, symSize: 0x88 }
  - { offsetInCU: 0xD091, offset: 0x28B7A, size: 0x8, addend: 0x0, symName: __ZN7BaralhoaSERKS_, symObjAddr: 0xA3EC, symBinAddr: 0x100012D70, symSize: 0x48 }
  - { offsetInCU: 0xD107, offset: 0x28BF0, size: 0x8, addend: 0x0, symName: __ZNSt3__14pairIPK7BaralhoPS1_EC1B8ue170006IS3_S4_LPv0EEEOT_OT0_, symObjAddr: 0xBD9C, symBinAddr: 0x100012DB8, symSize: 0x3C }
  - { offsetInCU: 0xD164, offset: 0x28C4D, size: 0x8, addend: 0x0, symName: __ZNSt3__14pairIPK7BaralhoPS1_EC2B8ue170006IS3_S4_LPv0EEEOT_OT0_, symObjAddr: 0xBDD8, symBinAddr: 0x100012DF4, symSize: 0x34 }
  - { offsetInCU: 0xD1C1, offset: 0x28CAA, size: 0x8, addend: 0x0, symName: __ZNSt3__118__unwrap_iter_implIPK7BaralhoLb1EE8__rewrapB8ue170006ES3_S3_, symObjAddr: 0xBE48, symBinAddr: 0x100012E64, symSize: 0x58 }
  - { offsetInCU: 0xD1F2, offset: 0x28CDB, size: 0x8, addend: 0x0, symName: __ZNKSt3__16vectorI7BaralhoNS_9allocatorIS1_EEE17__annotate_shrinkB8ue170006Em, symObjAddr: 0xBEA0, symBinAddr: 0x100012EBC, symSize: 0xD0 }
  - { offsetInCU: 0xD226, offset: 0x28D0F, size: 0x8, addend: 0x0, symName: __ZNSt3__16vectorI7BaralhoNS_9allocatorIS1_EEE9__end_capB8ue170006Ev, symObjAddr: 0xBF70, symBinAddr: 0x100012F8C, symSize: 0x28 }
  - { offsetInCU: 0xD24B, offset: 0x28D34, size: 0x8, addend: 0x0, symName: __ZNSt3__117__compressed_pairIP7BaralhoNS_9allocatorIS1_EEE5firstB8ue170006Ev, symObjAddr: 0xBF98, symBinAddr: 0x100012FB4, symSize: 0x24 }
  - { offsetInCU: 0xD270, offset: 0x28D59, size: 0x8, addend: 0x0, symName: __ZNSt3__122__compressed_pair_elemIP7BaralhoLi0ELb0EE5__getB8ue170006Ev, symObjAddr: 0xBFBC, symBinAddr: 0x100012FD8, symSize: 0x14 }
  - { offsetInCU: 0xD294, offset: 0x28D7D, size: 0x8, addend: 0x0, symName: __ZNKSt3__16vectorI7BaralhoNS_9allocatorIS1_EEE8max_sizeEv, symObjAddr: 0xBFD0, symBinAddr: 0x100012FEC, symSize: 0x60 }
  - { offsetInCU: 0xD2BB, offset: 0x28DA4, size: 0x8, addend: 0x0, symName: __ZNKSt3__16vectorI7BaralhoNS_9allocatorIS1_EEE20__throw_length_errorB8ue170006Ev, symObjAddr: 0xC030, symBinAddr: 0x10001304C, symSize: 0x1C }
  - { offsetInCU: 0xD2E0, offset: 0x28DC9, size: 0x8, addend: 0x0, symName: __ZNKSt3__16vectorI7BaralhoNS_9allocatorIS1_EEE14__annotate_newB8ue170006Em, symObjAddr: 0xC08C, symBinAddr: 0x1000130A8, symSize: 0xC8 }
  - { offsetInCU: 0xD31E, offset: 0x28E07, size: 0x8, addend: 0x0, symName: __ZNSt3__116allocator_traitsINS_9allocatorI7BaralhoEEE8max_sizeB8ue170006IS3_vEEmRKS3_, symObjAddr: 0xC154, symBinAddr: 0x100013170, symSize: 0x24 }
  - { offsetInCU: 0xD34C, offset: 0x28E35, size: 0x8, addend: 0x0, symName: __ZNKSt3__16vectorI7BaralhoNS_9allocatorIS1_EEE7__allocB8ue170006Ev, symObjAddr: 0xC178, symBinAddr: 0x100013194, symSize: 0x28 }
  - { offsetInCU: 0xD371, offset: 0x28E5A, size: 0x8, addend: 0x0, symName: __ZNKSt3__19allocatorI7BaralhoE8max_sizeB8ue170006Ev, symObjAddr: 0xC1A0, symBinAddr: 0x1000131BC, symSize: 0x18 }
  - { offsetInCU: 0xD396, offset: 0x28E7F, size: 0x8, addend: 0x0, symName: __ZNKSt3__117__compressed_pairIP7BaralhoNS_9allocatorIS1_EEE6secondB8ue170006Ev, symObjAddr: 0xC1B8, symBinAddr: 0x1000131D4, symSize: 0x24 }
  - { offsetInCU: 0xD3BB, offset: 0x28EA4, size: 0x8, addend: 0x0, symName: __ZNKSt3__122__compressed_pair_elemINS_9allocatorI7BaralhoEELi1ELb1EE5__getB8ue170006Ev, symObjAddr: 0xC1DC, symBinAddr: 0x1000131F8, symSize: 0x14 }
  - { offsetInCU: 0xD3E0, offset: 0x28EC9, size: 0x8, addend: 0x0, symName: __ZNSt3__19allocatorI7BaralhoE8allocateB8ue170006Em, symObjAddr: 0xC1F0, symBinAddr: 0x10001320C, symSize: 0x5C }
  - { offsetInCU: 0xD42E, offset: 0x28F17, size: 0x8, addend: 0x0, symName: __ZNSt3__14pairIPKciEC1B8ue170006IRA15_S1_iLPv0EEEOT_OT0_, symObjAddr: 0xCB80, symBinAddr: 0x100013290, symSize: 0x3C }
  - { offsetInCU: 0xD48B, offset: 0x28F74, size: 0x8, addend: 0x0, symName: __ZNSt3__14pairIPKciEC2B8ue170006IRA15_S1_iLPv0EEEOT_OT0_, symObjAddr: 0xCBBC, symBinAddr: 0x1000132CC, symSize: 0x30 }
  - { offsetInCU: 0xD4FE, offset: 0x28FE7, size: 0x8, addend: 0x0, symName: __ZNSt3__14pairIPKciEC1B8ue170006IRA13_S1_iLPv0EEEOT_OT0_, symObjAddr: 0xEB90, symBinAddr: 0x1000132FC, symSize: 0x3C }
  - { offsetInCU: 0xD55B, offset: 0x29044, size: 0x8, addend: 0x0, symName: __ZNSt3__14pairIPKciEC2B8ue170006IRA13_S1_iLPv0EEEOT_OT0_, symObjAddr: 0xEBCC, symBinAddr: 0x100013338, symSize: 0x30 }
  - { offsetInCU: 0xD5CE, offset: 0x290B7, size: 0x8, addend: 0x0, symName: __ZNSt3__14pairIPKciEC1B8ue170006IRA14_S1_iLPv0EEEOT_OT0_, symObjAddr: 0xEBFC, symBinAddr: 0x100013368, symSize: 0x3C }
  - { offsetInCU: 0xD62B, offset: 0x29114, size: 0x8, addend: 0x0, symName: __ZNSt3__14pairIPKciEC2B8ue170006IRA14_S1_iLPv0EEEOT_OT0_, symObjAddr: 0xEC38, symBinAddr: 0x1000133A4, symSize: 0x30 }
  - { offsetInCU: 0xD69E, offset: 0x29187, size: 0x8, addend: 0x0, symName: __ZNSt3__14pairIPKciEC1B8ue170006IRA6_S1_iLPv0EEEOT_OT0_, symObjAddr: 0xEC68, symBinAddr: 0x1000133D4, symSize: 0x3C }
  - { offsetInCU: 0xD6FB, offset: 0x291E4, size: 0x8, addend: 0x0, symName: __ZNSt3__14pairIPKciEC2B8ue170006IRA6_S1_iLPv0EEEOT_OT0_, symObjAddr: 0xECA4, symBinAddr: 0x100013410, symSize: 0x30 }
  - { offsetInCU: 0xD76E, offset: 0x29257, size: 0x8, addend: 0x0, symName: __ZNSt3__14pairIPKciEC1B8ue170006IRA16_S1_iLPv0EEEOT_OT0_, symObjAddr: 0xECD4, symBinAddr: 0x100013440, symSize: 0x3C }
  - { offsetInCU: 0xD7CB, offset: 0x292B4, size: 0x8, addend: 0x0, symName: __ZNSt3__14pairIPKciEC2B8ue170006IRA16_S1_iLPv0EEEOT_OT0_, symObjAddr: 0xED10, symBinAddr: 0x10001347C, symSize: 0x30 }
  - { offsetInCU: 0xD83E, offset: 0x29327, size: 0x8, addend: 0x0, symName: __ZNSt3__14pairIPKciEC1B8ue170006IRA10_S1_iLPv0EEEOT_OT0_, symObjAddr: 0xED40, symBinAddr: 0x1000134AC, symSize: 0x3C }
  - { offsetInCU: 0xD89B, offset: 0x29384, size: 0x8, addend: 0x0, symName: __ZNSt3__14pairIPKciEC2B8ue170006IRA10_S1_iLPv0EEEOT_OT0_, symObjAddr: 0xED7C, symBinAddr: 0x1000134E8, symSize: 0x30 }
  - { offsetInCU: 0xD90E, offset: 0x293F7, size: 0x8, addend: 0x0, symName: __ZNSt3__14pairIPKciEC1B8ue170006IRA12_S1_iLPv0EEEOT_OT0_, symObjAddr: 0xEDAC, symBinAddr: 0x100013518, symSize: 0x3C }
  - { offsetInCU: 0xD96B, offset: 0x29454, size: 0x8, addend: 0x0, symName: __ZNSt3__14pairIPKciEC2B8ue170006IRA12_S1_iLPv0EEEOT_OT0_, symObjAddr: 0xEDE8, symBinAddr: 0x100013554, symSize: 0x30 }
  - { offsetInCU: 0xD9DE, offset: 0x294C7, size: 0x8, addend: 0x0, symName: __ZNSt3__14pairIPKciEC1B8ue170006IRA9_S1_iLPv0EEEOT_OT0_, symObjAddr: 0xEE18, symBinAddr: 0x100013584, symSize: 0x3C }
  - { offsetInCU: 0xDA3B, offset: 0x29524, size: 0x8, addend: 0x0, symName: __ZNSt3__14pairIPKciEC2B8ue170006IRA9_S1_iLPv0EEEOT_OT0_, symObjAddr: 0xEE54, symBinAddr: 0x1000135C0, symSize: 0x30 }
  - { offsetInCU: 0xDAAE, offset: 0x29597, size: 0x8, addend: 0x0, symName: __ZNSt3__14pairIPKciEC1B8ue170006IRA18_S1_iLPv0EEEOT_OT0_, symObjAddr: 0xEE84, symBinAddr: 0x1000135F0, symSize: 0x3C }
  - { offsetInCU: 0xDB0B, offset: 0x295F4, size: 0x8, addend: 0x0, symName: __ZNSt3__14pairIPKciEC2B8ue170006IRA18_S1_iLPv0EEEOT_OT0_, symObjAddr: 0xEEC0, symBinAddr: 0x10001362C, symSize: 0x30 }
  - { offsetInCU: 0xDB7E, offset: 0x29667, size: 0x8, addend: 0x0, symName: __ZNSt3__14pairIPKciEC1B8ue170006IRA7_S1_iLPv0EEEOT_OT0_, symObjAddr: 0xEEF0, symBinAddr: 0x10001365C, symSize: 0x3C }
  - { offsetInCU: 0xDBDB, offset: 0x296C4, size: 0x8, addend: 0x0, symName: __ZNSt3__14pairIPKciEC2B8ue170006IRA7_S1_iLPv0EEEOT_OT0_, symObjAddr: 0xEF2C, symBinAddr: 0x100013698, symSize: 0x30 }
  - { offsetInCU: 0xDC38, offset: 0x29721, size: 0x8, addend: 0x0, symName: __ZNSt3__16vectorI7BaralhoNS_9allocatorIS1_EEE22__construct_one_at_endB8ue170006IJRKS1_EEEvDpOT_, symObjAddr: 0xEF5C, symBinAddr: 0x1000136C8, symSize: 0x90 }
  - { offsetInCU: 0xDC85, offset: 0x2976E, size: 0x8, addend: 0x0, symName: __ZNSt3__16vectorI7BaralhoNS_9allocatorIS1_EEE21__push_back_slow_pathIRKS1_EEvOT_, symObjAddr: 0xEFEC, symBinAddr: 0x100013758, symSize: 0xD8 }
  - { offsetInCU: 0xDCE2, offset: 0x297CB, size: 0x8, addend: 0x0, symName: __ZNSt3__114__split_bufferI7BaralhoRNS_9allocatorIS1_EEEC1EmmS4_, symObjAddr: 0xF0C4, symBinAddr: 0x100013830, symSize: 0x44 }
  - { offsetInCU: 0xDD37, offset: 0x29820, size: 0x8, addend: 0x0, symName: __ZNSt3__114__split_bufferI7BaralhoRNS_9allocatorIS1_EEED1Ev, symObjAddr: 0xF218, symBinAddr: 0x100013984, symSize: 0x2C }
  - { offsetInCU: 0xDD62, offset: 0x2984B, size: 0x8, addend: 0x0, symName: __ZNSt3__114__split_bufferI7BaralhoRNS_9allocatorIS1_EEEC2EmmS4_, symObjAddr: 0xF244, symBinAddr: 0x1000139B0, symSize: 0xE0 }
  - { offsetInCU: 0xDDD5, offset: 0x298BE, size: 0x8, addend: 0x0, symName: __ZNSt3__117__compressed_pairIP7BaralhoRNS_9allocatorIS1_EEEC1B8ue170006IDnS5_EEOT_OT0_, symObjAddr: 0xF324, symBinAddr: 0x100013A90, symSize: 0x3C }
  - { offsetInCU: 0xDE2C, offset: 0x29915, size: 0x8, addend: 0x0, symName: __ZNSt3__114__split_bufferI7BaralhoRNS_9allocatorIS1_EEE7__allocB8ue170006Ev, symObjAddr: 0xF360, symBinAddr: 0x100013ACC, symSize: 0x28 }
  - { offsetInCU: 0xDE51, offset: 0x2993A, size: 0x8, addend: 0x0, symName: __ZNSt3__114__split_bufferI7BaralhoRNS_9allocatorIS1_EEE9__end_capB8ue170006Ev, symObjAddr: 0xF388, symBinAddr: 0x100013AF4, symSize: 0x28 }
  - { offsetInCU: 0xDE76, offset: 0x2995F, size: 0x8, addend: 0x0, symName: __ZNSt3__117__compressed_pairIP7BaralhoRNS_9allocatorIS1_EEEC2B8ue170006IDnS5_EEOT_OT0_, symObjAddr: 0xF3B0, symBinAddr: 0x100013B1C, symSize: 0x48 }
  - { offsetInCU: 0xDECD, offset: 0x299B6, size: 0x8, addend: 0x0, symName: __ZNSt3__122__compressed_pair_elemIRNS_9allocatorI7BaralhoEELi1ELb0EEC2B8ue170006IS4_vEEOT_, symObjAddr: 0xF3F8, symBinAddr: 0x100013B64, symSize: 0x20 }
  - { offsetInCU: 0xDF0E, offset: 0x299F7, size: 0x8, addend: 0x0, symName: __ZNSt3__117__compressed_pairIP7BaralhoRNS_9allocatorIS1_EEE6secondB8ue170006Ev, symObjAddr: 0xF418, symBinAddr: 0x100013B84, symSize: 0x28 }
  - { offsetInCU: 0xDF33, offset: 0x29A1C, size: 0x8, addend: 0x0, symName: __ZNSt3__122__compressed_pair_elemIRNS_9allocatorI7BaralhoEELi1ELb0EE5__getB8ue170006Ev, symObjAddr: 0xF440, symBinAddr: 0x100013BAC, symSize: 0x18 }
  - { offsetInCU: 0xDF58, offset: 0x29A41, size: 0x8, addend: 0x0, symName: __ZNSt3__117__compressed_pairIP7BaralhoRNS_9allocatorIS1_EEE5firstB8ue170006Ev, symObjAddr: 0xF458, symBinAddr: 0x100013BC4, symSize: 0x24 }
  - { offsetInCU: 0xDF7D, offset: 0x29A66, size: 0x8, addend: 0x0, symName: __ZNSt3__129_AllocatorDestroyRangeReverseINS_9allocatorI7BaralhoEENS_16reverse_iteratorIPS2_EEEC1B8ue170006ERS3_RS6_S9_, symObjAddr: 0xF620, symBinAddr: 0x100013D8C, symSize: 0x44 }
  - { offsetInCU: 0xDFD3, offset: 0x29ABC, size: 0x8, addend: 0x0, symName: __ZNSt3__128__exception_guard_exceptionsINS_29_AllocatorDestroyRangeReverseINS_9allocatorI7BaralhoEENS_16reverse_iteratorIPS3_EEEEE10__completeB8ue170006Ev, symObjAddr: 0xF664, symBinAddr: 0x100013DD0, symSize: 0x1C }
  - { offsetInCU: 0xDFF8, offset: 0x29AE1, size: 0x8, addend: 0x0, symName: __ZNSt3__128__exception_guard_exceptionsINS_29_AllocatorDestroyRangeReverseINS_9allocatorI7BaralhoEENS_16reverse_iteratorIPS3_EEEEED1B8ue170006Ev, symObjAddr: 0xF680, symBinAddr: 0x100013DEC, symSize: 0x2C }
  - { offsetInCU: 0xE021, offset: 0x29B0A, size: 0x8, addend: 0x0, symName: __ZNSt3__128__exception_guard_exceptionsINS_29_AllocatorDestroyRangeReverseINS_9allocatorI7BaralhoEENS_16reverse_iteratorIPS3_EEEEEC1B8ue170006ES8_, symObjAddr: 0xF6AC, symBinAddr: 0x100013E18, symSize: 0x34 }
  - { offsetInCU: 0xE059, offset: 0x29B42, size: 0x8, addend: 0x0, symName: __ZNSt3__128__exception_guard_exceptionsINS_29_AllocatorDestroyRangeReverseINS_9allocatorI7BaralhoEENS_16reverse_iteratorIPS3_EEEEEC2B8ue170006ES8_, symObjAddr: 0xF6E0, symBinAddr: 0x100013E4C, symSize: 0x30 }
  - { offsetInCU: 0xE091, offset: 0x29B7A, size: 0x8, addend: 0x0, symName: __ZNSt3__129_AllocatorDestroyRangeReverseINS_9allocatorI7BaralhoEENS_16reverse_iteratorIPS2_EEEC2B8ue170006ERS3_RS6_S9_, symObjAddr: 0xF710, symBinAddr: 0x100013E7C, symSize: 0x38 }
  - { offsetInCU: 0xE0E7, offset: 0x29BD0, size: 0x8, addend: 0x0, symName: __ZNSt3__128__exception_guard_exceptionsINS_29_AllocatorDestroyRangeReverseINS_9allocatorI7BaralhoEENS_16reverse_iteratorIPS3_EEEEED2B8ue170006Ev, symObjAddr: 0xF748, symBinAddr: 0x100013EB4, symSize: 0x50 }
  - { offsetInCU: 0xE110, offset: 0x29BF9, size: 0x8, addend: 0x0, symName: __ZNKSt3__129_AllocatorDestroyRangeReverseINS_9allocatorI7BaralhoEENS_16reverse_iteratorIPS2_EEEclB8ue170006Ev, symObjAddr: 0xF798, symBinAddr: 0x100013F04, symSize: 0xB4 }
  - { offsetInCU: 0xE136, offset: 0x29C1F, size: 0x8, addend: 0x0, symName: __ZNSt3__116reverse_iteratorINS0_IP7BaralhoEEEC1B8ue170006ES3_, symObjAddr: 0xF8BC, symBinAddr: 0x100014028, symSize: 0x3C }
  - { offsetInCU: 0xE16D, offset: 0x29C56, size: 0x8, addend: 0x0, symName: __ZNSt3__116reverse_iteratorINS0_IP7BaralhoEEEppB8ue170006Ev, symObjAddr: 0xF97C, symBinAddr: 0x1000140E8, symSize: 0x30 }
  - { offsetInCU: 0xE192, offset: 0x29C7B, size: 0x8, addend: 0x0, symName: __ZNKSt3__116reverse_iteratorINS0_IP7BaralhoEEE4baseB8ue170006Ev, symObjAddr: 0xF9AC, symBinAddr: 0x100014118, symSize: 0x24 }
  - { offsetInCU: 0xE1BC, offset: 0x29CA5, size: 0x8, addend: 0x0, symName: __ZNSt3__119__to_address_helperINS_16reverse_iteratorINS1_IP7BaralhoEEEEvE6__callB8ue170006ERKS5_, symObjAddr: 0xF9D0, symBinAddr: 0x10001413C, symSize: 0x38 }
  - { offsetInCU: 0xE1DF, offset: 0x29CC8, size: 0x8, addend: 0x0, symName: __ZNKSt3__116reverse_iteratorINS0_IP7BaralhoEEEptB8ue170006Ev, symObjAddr: 0xFA08, symBinAddr: 0x100014174, symSize: 0x24 }
  - { offsetInCU: 0xE204, offset: 0x29CED, size: 0x8, addend: 0x0, symName: __ZNKSt3__116reverse_iteratorINS0_IP7BaralhoEEEdeB8ue170006Ev, symObjAddr: 0xFA2C, symBinAddr: 0x100014198, symSize: 0x34 }
  - { offsetInCU: 0xE237, offset: 0x29D20, size: 0x8, addend: 0x0, symName: __ZNSt3__116reverse_iteratorIP7BaralhoEmmB8ue170006Ev, symObjAddr: 0xFA60, symBinAddr: 0x1000141CC, symSize: 0x20 }
  - { offsetInCU: 0xE25C, offset: 0x29D45, size: 0x8, addend: 0x0, symName: __ZNSt3__116reverse_iteratorINS0_IP7BaralhoEEEC2B8ue170006ES3_, symObjAddr: 0xFA80, symBinAddr: 0x1000141EC, symSize: 0x2C }
  - { offsetInCU: 0xE293, offset: 0x29D7C, size: 0x8, addend: 0x0, symName: __ZNSt3__114__split_bufferI7BaralhoRNS_9allocatorIS1_EEED2Ev, symObjAddr: 0xFAAC, symBinAddr: 0x100014218, symSize: 0x8C }
  - { offsetInCU: 0xE2BE, offset: 0x29DA7, size: 0x8, addend: 0x0, symName: __ZNSt3__114__split_bufferI7BaralhoRNS_9allocatorIS1_EEE5clearB8ue170006Ev, symObjAddr: 0xFB38, symBinAddr: 0x1000142A4, symSize: 0x28 }
  - { offsetInCU: 0xE2E3, offset: 0x29DCC, size: 0x8, addend: 0x0, symName: __ZNKSt3__114__split_bufferI7BaralhoRNS_9allocatorIS1_EEE8capacityB8ue170006Ev, symObjAddr: 0xFB60, symBinAddr: 0x1000142CC, symSize: 0x40 }
  - { offsetInCU: 0xE308, offset: 0x29DF1, size: 0x8, addend: 0x0, symName: __ZNSt3__114__split_bufferI7BaralhoRNS_9allocatorIS1_EEE17__destruct_at_endB8ue170006EPS1_, symObjAddr: 0xFBA0, symBinAddr: 0x10001430C, symSize: 0x2C }
  - { offsetInCU: 0xE33A, offset: 0x29E23, size: 0x8, addend: 0x0, symName: __ZNSt3__114__split_bufferI7BaralhoRNS_9allocatorIS1_EEE17__destruct_at_endB8ue170006EPS1_NS_17integral_constantIbLb0EEE, symObjAddr: 0xFBCC, symBinAddr: 0x100014338, symSize: 0x80 }
  - { offsetInCU: 0xE379, offset: 0x29E62, size: 0x8, addend: 0x0, symName: __ZNKSt3__114__split_bufferI7BaralhoRNS_9allocatorIS1_EEE9__end_capB8ue170006Ev, symObjAddr: 0xFC4C, symBinAddr: 0x1000143B8, symSize: 0x28 }
  - { offsetInCU: 0xE39E, offset: 0x29E87, size: 0x8, addend: 0x0, symName: __ZNKSt3__117__compressed_pairIP7BaralhoRNS_9allocatorIS1_EEE5firstB8ue170006Ev, symObjAddr: 0xFC74, symBinAddr: 0x1000143E0, symSize: 0x24 }
  - { offsetInCU: 0xE3D9, offset: 0x29EC2, size: 0x8, addend: 0x0, symName: __ZNSt3__14pairIPKciEC1B8ue170006IRA8_S1_iLPv0EEEOT_OT0_, symObjAddr: 0xFC98, symBinAddr: 0x100014404, symSize: 0x3C }
  - { offsetInCU: 0xE436, offset: 0x29F1F, size: 0x8, addend: 0x0, symName: __ZNSt3__14pairIPKciEC2B8ue170006IRA8_S1_iLPv0EEEOT_OT0_, symObjAddr: 0xFCD4, symBinAddr: 0x100014440, symSize: 0x30 }
  - { offsetInCU: 0xE4A9, offset: 0x29F92, size: 0x8, addend: 0x0, symName: __ZNSt3__14pairIPKciEC1B8ue170006IRA17_S1_iLPv0EEEOT_OT0_, symObjAddr: 0xFD04, symBinAddr: 0x100014470, symSize: 0x3C }
  - { offsetInCU: 0xE506, offset: 0x29FEF, size: 0x8, addend: 0x0, symName: __ZNSt3__14pairIPKciEC2B8ue170006IRA17_S1_iLPv0EEEOT_OT0_, symObjAddr: 0xFD40, symBinAddr: 0x1000144AC, symSize: 0x30 }
  - { offsetInCU: 0xE579, offset: 0x2A062, size: 0x8, addend: 0x0, symName: __ZNSt3__14pairIPKciEC1B8ue170006IRA22_S1_iLPv0EEEOT_OT0_, symObjAddr: 0xFD70, symBinAddr: 0x1000144DC, symSize: 0x3C }
  - { offsetInCU: 0xE5D6, offset: 0x2A0BF, size: 0x8, addend: 0x0, symName: __ZNSt3__14pairIPKciEC2B8ue170006IRA22_S1_iLPv0EEEOT_OT0_, symObjAddr: 0xFDAC, symBinAddr: 0x100014518, symSize: 0x30 }
  - { offsetInCU: 0xE649, offset: 0x2A132, size: 0x8, addend: 0x0, symName: __ZNSt3__14pairIPKciEC1B8ue170006IRA20_S1_iLPv0EEEOT_OT0_, symObjAddr: 0xFDDC, symBinAddr: 0x100014548, symSize: 0x3C }
  - { offsetInCU: 0xE6A6, offset: 0x2A18F, size: 0x8, addend: 0x0, symName: __ZNSt3__14pairIPKciEC2B8ue170006IRA20_S1_iLPv0EEEOT_OT0_, symObjAddr: 0xFE18, symBinAddr: 0x100014584, symSize: 0x30 }
  - { offsetInCU: 0xE703, offset: 0x2A1EC, size: 0x8, addend: 0x0, symName: __ZNKSt3__16vectorI7BaralhoNS_9allocatorIS1_EEE20__throw_out_of_rangeB8ue170006Ev, symObjAddr: 0x10674, symBinAddr: 0x1000145B4, symSize: 0x1C }
  - { offsetInCU: 0xE732, offset: 0x2A21B, size: 0x8, addend: 0x0, symName: __ZNSt3__14pairINS_12basic_stringIcNS_11char_traitsIcEENS_9allocatorIcEEEEiEC1B8ue170006IRS6_RiLPv0EEEOT_OT0_, symObjAddr: 0x10CF0, symBinAddr: 0x1000145D0, symSize: 0x3C }
  - { offsetInCU: 0xE78F, offset: 0x2A278, size: 0x8, addend: 0x0, symName: __ZNSt3__14pairINS_12basic_stringIcNS_11char_traitsIcEENS_9allocatorIcEEEEiEC2B8ue170006IRS6_RiLPv0EEEOT_OT0_, symObjAddr: 0x10D2C, symBinAddr: 0x10001460C, symSize: 0x44 }
  - { offsetInCU: 0xE7EC, offset: 0x2A2D5, size: 0x8, addend: 0x0, symName: __ZNSt3__112basic_stringIcNS_11char_traitsIcEENS_9allocatorIcEEEaSB8ue170006EOS5_, symObjAddr: 0x10D70, symBinAddr: 0x100014650, symSize: 0x34 }
  - { offsetInCU: 0xE81F, offset: 0x2A308, size: 0x8, addend: 0x0, symName: __ZNSt3__112basic_stringIcNS_11char_traitsIcEENS_9allocatorIcEEE13__move_assignB8ue170006ERS5_NS_17integral_constantIbLb1EEE, symObjAddr: 0x10DA4, symBinAddr: 0x100014684, symSize: 0xC8 }
  - { offsetInCU: 0xE861, offset: 0x2A34A, size: 0x8, addend: 0x0, symName: __ZNSt3__116allocator_traitsINS_9allocatorIcEEE10deallocateB8ue170006ERS2_Pcm, symObjAddr: 0x10E6C, symBinAddr: 0x10001474C, symSize: 0x34 }
  - { offsetInCU: 0xE8A3, offset: 0x2A38C, size: 0x8, addend: 0x0, symName: __ZNSt3__112basic_stringIcNS_11char_traitsIcEENS_9allocatorIcEEE7__allocB8ue170006Ev, symObjAddr: 0x10EA0, symBinAddr: 0x100014780, symSize: 0x24 }
  - { offsetInCU: 0xE8C8, offset: 0x2A3B1, size: 0x8, addend: 0x0, symName: __ZNKSt3__112basic_stringIcNS_11char_traitsIcEENS_9allocatorIcEEE14__get_long_capB8ue170006Ev, symObjAddr: 0x10EC4, symBinAddr: 0x1000147A4, symSize: 0x30 }
  - { offsetInCU: 0xE8ED, offset: 0x2A3D6, size: 0x8, addend: 0x0, symName: __ZNSt3__112basic_stringIcNS_11char_traitsIcEENS_9allocatorIcEEE19__move_assign_allocB8ue170006ERS5_, symObjAddr: 0x10EF4, symBinAddr: 0x1000147D4, symSize: 0x2C }
  - { offsetInCU: 0xE921, offset: 0x2A40A, size: 0x8, addend: 0x0, symName: __ZNSt3__19allocatorIcE10deallocateB8ue170006EPcm, symObjAddr: 0x10F20, symBinAddr: 0x100014800, symSize: 0x40 }
  - { offsetInCU: 0xE962, offset: 0x2A44B, size: 0x8, addend: 0x0, symName: __ZNSt3__117__compressed_pairINS_12basic_stringIcNS_11char_traitsIcEENS_9allocatorIcEEE5__repES5_E6secondB8ue170006Ev, symObjAddr: 0x10F60, symBinAddr: 0x100014840, symSize: 0x24 }
  - { offsetInCU: 0xE987, offset: 0x2A470, size: 0x8, addend: 0x0, symName: __ZNSt3__122__compressed_pair_elemINS_9allocatorIcEELi1ELb1EE5__getB8ue170006Ev, symObjAddr: 0x10F84, symBinAddr: 0x100014864, symSize: 0x14 }
  - { offsetInCU: 0xE9AC, offset: 0x2A495, size: 0x8, addend: 0x0, symName: __ZNSt3__112basic_stringIcNS_11char_traitsIcEENS_9allocatorIcEEE19__move_assign_allocB8ue170006ERS5_NS_17integral_constantIbLb1EEE, symObjAddr: 0x10F98, symBinAddr: 0x100014878, symSize: 0x38 }
  - { offsetInCU: 0xE9EC, offset: 0x2A4D5, size: 0x8, addend: 0x0, symName: __ZNSt3__16vectorI7BaralhoNS_9allocatorIS1_EEEC2ERKS4_, symObjAddr: 0x10FEC, symBinAddr: 0x1000148B0, symSize: 0x94 }
  - { offsetInCU: 0xEA26, offset: 0x2A50F, size: 0x8, addend: 0x0, symName: __ZNSt3__116allocator_traitsINS_9allocatorI7BaralhoEEE37select_on_container_copy_constructionB8ue170006IS3_vvEES3_RKS3_, symObjAddr: 0x11080, symBinAddr: 0x100014944, symSize: 0x10 }
  - { offsetInCU: 0xEA5A, offset: 0x2A543, size: 0x8, addend: 0x0, symName: __ZNSt3__117__compressed_pairIP7BaralhoNS_9allocatorIS1_EEEC1B8ue170006IDnS4_EEOT_OT0_, symObjAddr: 0x11090, symBinAddr: 0x100014954, symSize: 0x3C }
  - { offsetInCU: 0xEAB1, offset: 0x2A59A, size: 0x8, addend: 0x0, symName: __ZNSt3__16vectorI7BaralhoNS_9allocatorIS1_EEE16__init_with_sizeB8ue170006IPS1_S6_EEvT_T0_m, symObjAddr: 0x110CC, symBinAddr: 0x100014990, symSize: 0xB8 }
  - { offsetInCU: 0xEB24, offset: 0x2A60D, size: 0x8, addend: 0x0, symName: __ZNSt3__117__compressed_pairIP7BaralhoNS_9allocatorIS1_EEEC2B8ue170006IDnS4_EEOT_OT0_, symObjAddr: 0x11184, symBinAddr: 0x100014A48, symSize: 0x44 }
  - { offsetInCU: 0xEB7B, offset: 0x2A664, size: 0x8, addend: 0x0, symName: __ZNSt3__122__compressed_pair_elemINS_9allocatorI7BaralhoEELi1ELb1EEC2B8ue170006IS3_vEEOT_, symObjAddr: 0x111C8, symBinAddr: 0x100014A8C, symSize: 0x18 }
  - { offsetInCU: 0xEBBB, offset: 0x2A6A4, size: 0x8, addend: 0x0, symName: __ZNSt3__16vectorI7BaralhoNS_9allocatorIS1_EEE18__construct_at_endIPS1_S6_EEvT_T0_m, symObjAddr: 0x11220, symBinAddr: 0x100014AE4, symSize: 0x8C }
  - { offsetInCU: 0xEC30, offset: 0x2A719, size: 0x8, addend: 0x0, symName: __ZNSt3__128__exception_guard_exceptionsINS_6vectorI7BaralhoNS_9allocatorIS2_EEE16__destroy_vectorEE10__completeB8ue170006Ev, symObjAddr: 0x112AC, symBinAddr: 0x100014B70, symSize: 0x1C }
  - { offsetInCU: 0xEC55, offset: 0x2A73E, size: 0x8, addend: 0x0, symName: __ZNSt3__128__exception_guard_exceptionsINS_6vectorI7BaralhoNS_9allocatorIS2_EEE16__destroy_vectorEED1B8ue170006Ev, symObjAddr: 0x112C8, symBinAddr: 0x100014B8C, symSize: 0x2C }
  - { offsetInCU: 0xEC7E, offset: 0x2A767, size: 0x8, addend: 0x0, symName: __ZNSt3__128__exception_guard_exceptionsINS_6vectorI7BaralhoNS_9allocatorIS2_EEE16__destroy_vectorEEC1B8ue170006ES6_, symObjAddr: 0x112F4, symBinAddr: 0x100014BB8, symSize: 0x34 }
  - { offsetInCU: 0xECB5, offset: 0x2A79E, size: 0x8, addend: 0x0, symName: __ZNSt3__128__exception_guard_exceptionsINS_6vectorI7BaralhoNS_9allocatorIS2_EEE16__destroy_vectorEEC2B8ue170006ES6_, symObjAddr: 0x11328, symBinAddr: 0x100014BEC, symSize: 0x24 }
  - { offsetInCU: 0xED05, offset: 0x2A7EE, size: 0x8, addend: 0x0, symName: __ZNSt3__14pairIP7BaralhoS2_EC1B8ue170006IS2_S2_LPv0EEEOT_OT0_, symObjAddr: 0x11558, symBinAddr: 0x100014E1C, symSize: 0x3C }
  - { offsetInCU: 0xED62, offset: 0x2A84B, size: 0x8, addend: 0x0, symName: __ZNSt3__14pairIP7BaralhoS2_EC2B8ue170006IS2_S2_LPv0EEEOT_OT0_, symObjAddr: 0x11594, symBinAddr: 0x100014E58, symSize: 0x34 }
  - { offsetInCU: 0xEDBF, offset: 0x2A8A8, size: 0x8, addend: 0x0, symName: __ZNSt3__116allocator_traitsINS_9allocatorI7BaralhoEEE9constructB8ue170006IS2_JRS2_EvEEvRS3_PT_DpOT0_, symObjAddr: 0x115C8, symBinAddr: 0x100014E8C, symSize: 0x34 }
  - { offsetInCU: 0xEE16, offset: 0x2A8FF, size: 0x8, addend: 0x0, symName: __ZNSt3__19allocatorI7BaralhoE9constructB8ue170006IS1_JRS1_EEEvPT_DpOT0_, symObjAddr: 0x115FC, symBinAddr: 0x100014EC0, symSize: 0x30 }
  - { offsetInCU: 0xEE6B, offset: 0x2A954, size: 0x8, addend: 0x0, symName: __ZNSt3__128__exception_guard_exceptionsINS_6vectorI7BaralhoNS_9allocatorIS2_EEE16__destroy_vectorEED2B8ue170006Ev, symObjAddr: 0x1162C, symBinAddr: 0x100014EF0, symSize: 0x48 }
  - { offsetInCU: 0x8267, offset: 0x32CA1, size: 0x8, addend: 0x0, symName: __ZN7PartidaC2E7UsuarioS0_NSt3__112basic_stringIcNS1_11char_traitsIcEENS1_9allocatorIcEEEES7_, symObjAddr: 0x0, symBinAddr: 0x100014F38, symSize: 0xA28 }
  - { offsetInCU: 0x8408, offset: 0x32E42, size: 0x8, addend: 0x0, symName: __ZNSt3__16vectorI6CartasNS_9allocatorIS1_EEE9push_backB8ue170006EOS1_, symObjAddr: 0xCA4, symBinAddr: 0x100015960, symSize: 0x6C }
  - { offsetInCU: 0x843E, offset: 0x32E78, size: 0x8, addend: 0x0, symName: __ZN7PartidaC1E7UsuarioS0_NSt3__112basic_stringIcNS1_11char_traitsIcEENS1_9allocatorIcEEEES7_, symObjAddr: 0xD3C, symBinAddr: 0x1000159CC, symSize: 0x4C }
  - { offsetInCU: 0x84A5, offset: 0x32EDF, size: 0x8, addend: 0x0, symName: __ZN7PartidaD2Ev, symObjAddr: 0xD88, symBinAddr: 0x100015A18, symSize: 0x150 }
  - { offsetInCU: 0x84D0, offset: 0x32F0A, size: 0x8, addend: 0x0, symName: __ZN7PartidaD1Ev, symObjAddr: 0xF54, symBinAddr: 0x100015B68, symSize: 0x2C }
  - { offsetInCU: 0x84FB, offset: 0x32F35, size: 0x8, addend: 0x0, symName: __ZN7Partida12comprarCartaENSt3__112basic_stringIcNS0_11char_traitsIcEENS0_9allocatorIcEEEE, symObjAddr: 0xF80, symBinAddr: 0x100015B94, symSize: 0x3FC }
  - { offsetInCU: 0x8580, offset: 0x32FBA, size: 0x8, addend: 0x0, symName: __ZN7Partida6AtaqueENSt3__112basic_stringIcNS0_11char_traitsIcEENS0_9allocatorIcEEEES6_, symObjAddr: 0x1574, symBinAddr: 0x100015F90, symSize: 0x690 }
  - { offsetInCU: 0x866F, offset: 0x330A9, size: 0x8, addend: 0x0, symName: __ZN7Partida19getNomeCartaBatalhaENSt3__112basic_stringIcNS0_11char_traitsIcEENS0_9allocatorIcEEEE, symObjAddr: 0x1C04, symBinAddr: 0x100016620, symSize: 0x7C }
  - { offsetInCU: 0x86AC, offset: 0x330E6, size: 0x8, addend: 0x0, symName: __ZN7Partida9exibirMaoEP7Usuario, symObjAddr: 0x1D40, symBinAddr: 0x10001669C, symSize: 0x220 }
  - { offsetInCU: 0x8737, offset: 0x33171, size: 0x8, addend: 0x0, symName: __ZN7Partida12ganharPremioENSt3__112basic_stringIcNS0_11char_traitsIcEENS0_9allocatorIcEEEE, symObjAddr: 0x1FF0, symBinAddr: 0x1000168BC, symSize: 0x2DC }
  - { offsetInCU: 0x876D, offset: 0x331A7, size: 0x8, addend: 0x0, symName: __ZN7Partida9numPremioENSt3__112basic_stringIcNS0_11char_traitsIcEENS0_9allocatorIcEEEE, symObjAddr: 0x2440, symBinAddr: 0x100016B98, symSize: 0x7C }
  - { offsetInCU: 0x87A5, offset: 0x331DF, size: 0x8, addend: 0x0, symName: __ZN7Partida12estaSemCartaENSt3__112basic_stringIcNS0_11char_traitsIcEENS0_9allocatorIcEEEE, symObjAddr: 0x24BC, symBinAddr: 0x100016C14, symSize: 0x120 }
  - { offsetInCU: 0x87DD, offset: 0x33217, size: 0x8, addend: 0x0, symName: __ZN7Partida17setCartaEmBatalhaEiNSt3__112basic_stringIcNS0_11char_traitsIcEENS0_9allocatorIcEEEE, symObjAddr: 0x25DC, symBinAddr: 0x100016D34, symSize: 0x29C }
  - { offsetInCU: 0x8824, offset: 0x3325E, size: 0x8, addend: 0x0, symName: __ZN7Partida10cartaMortaENSt3__112basic_stringIcNS0_11char_traitsIcEENS0_9allocatorIcEEEE, symObjAddr: 0x28F8, symBinAddr: 0x100016FD0, symSize: 0x258 }
  - { offsetInCU: 0x885C, offset: 0x33296, size: 0x8, addend: 0x0, symName: __ZN7Partida10matarCartaENSt3__112basic_stringIcNS0_11char_traitsIcEENS0_9allocatorIcEEEE, symObjAddr: 0x2B50, symBinAddr: 0x100017228, symSize: 0x440 }
  - { offsetInCU: 0x893A, offset: 0x33374, size: 0x8, addend: 0x0, symName: __ZNSt3__111__wrap_iterIP6CartasEC1B8ue170006Ev, symObjAddr: 0x2F90, symBinAddr: 0x100017668, symSize: 0x2C }
  - { offsetInCU: 0x8963, offset: 0x3339D, size: 0x8, addend: 0x0, symName: __ZNKSt3__111__wrap_iterIP6CartasEplB8ue170006El, symObjAddr: 0x2FBC, symBinAddr: 0x100017694, symSize: 0x3C }
  - { offsetInCU: 0x89A4, offset: 0x333DE, size: 0x8, addend: 0x0, symName: __ZN7Partida13getMaoJogadorENSt3__112basic_stringIcNS0_11char_traitsIcEENS0_9allocatorIcEEEE, symObjAddr: 0x2FF8, symBinAddr: 0x1000176D0, symSize: 0x7C }
  - { offsetInCU: 0x8A27, offset: 0x33461, size: 0x8, addend: 0x0, symName: __ZNSt3__16vectorI6CartasNS_9allocatorIS1_EEE22__construct_one_at_endB8ue170006IJS1_EEEvDpOT_, symObjAddr: 0x7784, symBinAddr: 0x10001774C, symSize: 0x90 }
  - { offsetInCU: 0x8A74, offset: 0x334AE, size: 0x8, addend: 0x0, symName: __ZNSt3__16vectorI6CartasNS_9allocatorIS1_EEE21__push_back_slow_pathIS1_EEvOT_, symObjAddr: 0x7814, symBinAddr: 0x1000177DC, symSize: 0xD8 }
  - { offsetInCU: 0x8AD1, offset: 0x3350B, size: 0x8, addend: 0x0, symName: __ZNSt3__116allocator_traitsINS_9allocatorI6CartasEEE9constructB8ue170006IS2_JS2_EvEEvRS3_PT_DpOT0_, symObjAddr: 0x78EC, symBinAddr: 0x1000178B4, symSize: 0x34 }
  - { offsetInCU: 0x8B28, offset: 0x33562, size: 0x8, addend: 0x0, symName: __ZNSt3__19allocatorI6CartasE9constructB8ue170006IS1_JS1_EEEvPT_DpOT0_, symObjAddr: 0x7920, symBinAddr: 0x1000178E8, symSize: 0x30 }
  - { offsetInCU: 0x8B7D, offset: 0x335B7, size: 0x8, addend: 0x0, symName: __ZNSt3__111__wrap_iterIP6CartasEC2B8ue170006Ev, symObjAddr: 0x9498, symBinAddr: 0x100017918, symSize: 0x18 }
  - { offsetInCU: 0x8BA6, offset: 0x335E0, size: 0x8, addend: 0x0, symName: __ZNSt3__111__wrap_iterIP6CartasEpLB8ue170006El, symObjAddr: 0x94B0, symBinAddr: 0x100017930, symSize: 0x30 }
  - { offsetInCU: 0x5F, offset: 0x3368A, size: 0x8, addend: 0x0, symName: __ZL18DOCTEST_ANON_VAR_0, symObjAddr: 0x1CF230, symBinAddr: 0x100068278, symSize: 0x0 }
  - { offsetInCU: 0x8B, offset: 0x336B6, size: 0x8, addend: 0x0, symName: __ZN7doctest18is_running_in_testE, symObjAddr: 0x1CF868, symBinAddr: 0x1000688B0, symSize: 0x0 }
  - { offsetInCU: 0x118, offset: 0x33743, size: 0x8, addend: 0x0, symName: __ZN7doctest6detail4g_csE, symObjAddr: 0x1CF870, symBinAddr: 0x1000688B8, symSize: 0x0 }
  - { offsetInCU: 0x5FE, offset: 0x33C29, size: 0x8, addend: 0x0, symName: __ZN7doctest6detail18getRegisteredTestsEv, symObjAddr: 0x584C, symBinAddr: 0x10001D158, symSize: 0x94 }
  - { offsetInCU: 0x629, offset: 0x33C54, size: 0x8, addend: 0x0, symName: __ZZN7doctest6detail18getRegisteredTestsEvE4data, symObjAddr: 0x1CF260, symBinAddr: 0x1000682A8, symSize: 0x0 }
  - { offsetInCU: 0x634, offset: 0x33C5F, size: 0x8, addend: 0x0, symName: __ZN7doctest6detail16isDebuggerActiveEv, symObjAddr: 0x59B8, symBinAddr: 0x10001D2C4, symSize: 0x1F8 }
  - { offsetInCU: 0x65F, offset: 0x33C8A, size: 0x8, addend: 0x0, symName: __ZZN7doctest6detail16isDebuggerActiveEvE10PREFIX_LEN, symObjAddr: 0x4A9E4, symBinAddr: 0x1000612E8, symSize: 0x0 }
  - { offsetInCU: 0x866, offset: 0x33E91, size: 0x8, addend: 0x0, symName: __ZN7doctest6detailL7consumeEPKii, symObjAddr: 0x0, symBinAddr: 0x100017960, symSize: 0x18 }
  - { offsetInCU: 0x89E, offset: 0x33EC9, size: 0x8, addend: 0x0, symName: __ZN7doctest6detail12setTestSuiteERKNS0_9TestSuiteE, symObjAddr: 0x18, symBinAddr: 0x100017978, symSize: 0x38 }
  - { offsetInCU: 0x8CC, offset: 0x33EF7, size: 0x8, addend: 0x0, symName: __ZN7doctest6detail8tlssPushEv, symObjAddr: 0x474, symBinAddr: 0x100017DD4, symSize: 0x18 }
  - { offsetInCU: 0x8EB, offset: 0x33F16, size: 0x8, addend: 0x0, symName: __ZN7doctest6detail7tlssPopEv, symObjAddr: 0x560, symBinAddr: 0x100017EC0, symSize: 0x28 }
  - { offsetInCU: 0x90A, offset: 0x33F35, size: 0x8, addend: 0x0, symName: __ZN7doctest6detail15getCurrentTicksEv, symObjAddr: 0x6DC, symBinAddr: 0x10001803C, symSize: 0x3C }
  - { offsetInCU: 0x963, offset: 0x33F8E, size: 0x8, addend: 0x0, symName: __ZN7doctest6detail11toStreamLitIfEENS_6StringET_, symObjAddr: 0x2AB8, symBinAddr: 0x10001A3D0, symSize: 0x40 }
  - { offsetInCU: 0x9A9, offset: 0x33FD4, size: 0x8, addend: 0x0, symName: __ZN7doctest6detail11toStreamLitIdEENS_6StringET_, symObjAddr: 0x2B24, symBinAddr: 0x10001A43C, symSize: 0x40 }
  - { offsetInCU: 0x9EF, offset: 0x3401A, size: 0x8, addend: 0x0, symName: __ZN7doctest6detail11toStreamLitIeEENS_6StringET_, symObjAddr: 0x2B90, symBinAddr: 0x10001A4A8, symSize: 0x40 }
  - { offsetInCU: 0xA35, offset: 0x34060, size: 0x8, addend: 0x0, symName: __ZN7doctest6detail11toStreamLitIiEENS_6StringET_, symObjAddr: 0x2BFC, symBinAddr: 0x10001A514, symSize: 0x40 }
  - { offsetInCU: 0xA7B, offset: 0x340A6, size: 0x8, addend: 0x0, symName: __ZN7doctest6detail11toStreamLitIjEENS_6StringET_, symObjAddr: 0x2C94, symBinAddr: 0x10001A5AC, symSize: 0x40 }
  - { offsetInCU: 0xAC1, offset: 0x340EC, size: 0x8, addend: 0x0, symName: __ZN7doctest6detail11toStreamLitIsEENS_6StringET_, symObjAddr: 0x2D00, symBinAddr: 0x10001A618, symSize: 0x40 }
  - { offsetInCU: 0xB07, offset: 0x34132, size: 0x8, addend: 0x0, symName: __ZN7doctest6detail11toStreamLitItEENS_6StringET_, symObjAddr: 0x2D6C, symBinAddr: 0x10001A684, symSize: 0x40 }
  - { offsetInCU: 0xB4D, offset: 0x34178, size: 0x8, addend: 0x0, symName: __ZN7doctest6detail11toStreamLitIlEENS_6StringET_, symObjAddr: 0x2E30, symBinAddr: 0x10001A748, symSize: 0x40 }
  - { offsetInCU: 0xB93, offset: 0x341BE, size: 0x8, addend: 0x0, symName: __ZN7doctest6detail11toStreamLitImEENS_6StringET_, symObjAddr: 0x2E9C, symBinAddr: 0x10001A7B4, symSize: 0x40 }
  - { offsetInCU: 0xBD9, offset: 0x34204, size: 0x8, addend: 0x0, symName: __ZN7doctest6detail11toStreamLitIxEENS_6StringET_, symObjAddr: 0x2F08, symBinAddr: 0x10001A820, symSize: 0x40 }
  - { offsetInCU: 0xC1F, offset: 0x3424A, size: 0x8, addend: 0x0, symName: __ZN7doctest6detail11toStreamLitIyEENS_6StringET_, symObjAddr: 0x2F74, symBinAddr: 0x10001A88C, symSize: 0x40 }
  - { offsetInCU: 0xC65, offset: 0x34290, size: 0x8, addend: 0x0, symName: __ZN7doctest6detail18checkIfShouldThrowENS_10assertType4EnumE, symObjAddr: 0x3CCC, symBinAddr: 0x10001B5E4, symSize: 0xE4 }
  - { offsetInCU: 0xC93, offset: 0x342BE, size: 0x8, addend: 0x0, symName: __ZN7doctest6detail14throwExceptionEv, symObjAddr: 0x3DD8, symBinAddr: 0x10001B6F0, symSize: 0x3C }
  - { offsetInCU: 0xD87, offset: 0x343B2, size: 0x8, addend: 0x0, symName: __ZN7doctest6detail7regTestERKNS0_8TestCaseE, symObjAddr: 0x5938, symBinAddr: 0x10001D244, symSize: 0x34 }
  - { offsetInCU: 0xDEB, offset: 0x34416, size: 0x8, addend: 0x0, symName: __ZN7doctest6detail31registerExceptionTranslatorImplEPKNS0_20IExceptionTranslatorE, symObjAddr: 0x5EBC, symBinAddr: 0x10001D79C, symSize: 0x8C }
  - { offsetInCU: 0xF94, offset: 0x345BF, size: 0x8, addend: 0x0, symName: __ZN7doctest6detail31failed_out_of_a_testing_contextERKNS_10AssertDataE, symObjAddr: 0x7500, symBinAddr: 0x10001EDE0, symSize: 0x54 }
  - { offsetInCU: 0xFBE, offset: 0x345E9, size: 0x8, addend: 0x0, symName: __ZN7doctest6detail13decomp_assertENS_10assertType4EnumEPKciS4_RKNS0_6ResultE, symObjAddr: 0x759C, symBinAddr: 0x10001EE7C, symSize: 0x350 }
  - { offsetInCU: 0x113D, offset: 0x34768, size: 0x8, addend: 0x0, symName: __ZN7doctest6detail20registerReporterImplEPKciPFPNS_9IReporterERKNS_14ContextOptionsEEb, symObjAddr: 0xDF9C, symBinAddr: 0x10002587C, symSize: 0x198 }
  - { offsetInCU: 0x1400, offset: 0x34A2B, size: 0x8, addend: 0x0, symName: __ZN7doctest6detail7forwardIKNSt3__112basic_stringIcNS2_11char_traitsIcEENS2_9allocatorIcEEEEEEOT_RNS2_16remove_referenceISA_E4typeE, symObjAddr: 0x1A8C4, symBinAddr: 0x1000317E0, symSize: 0x14 }
  - { offsetInCU: 0x1438, offset: 0x34A63, size: 0x8, addend: 0x0, symName: __ZN7doctest6detail7forwardIRA1_KcEEOT_RNSt3__116remove_referenceIS5_E4typeE, symObjAddr: 0x1A8D8, symBinAddr: 0x1000317F4, symSize: 0x14 }
  - { offsetInCU: 0x1470, offset: 0x34A9B, size: 0x8, addend: 0x0, symName: __ZN7doctest6detail19stringifyBinaryExprINSt3__112basic_stringIcNS2_11char_traitsIcEENS2_9allocatorIcEEEEA1_cEENS_6StringERKT_PKcRKT0_, symObjAddr: 0x1A8EC, symBinAddr: 0x100031808, symSize: 0x148 }
  - { offsetInCU: 0x159D, offset: 0x34BC8, size: 0x8, addend: 0x0, symName: __ZN7doctest6detail8toStreamINSt3__112basic_stringIcNS2_11char_traitsIcEENS2_9allocatorIcEEEEEENS_6StringERKT_, symObjAddr: 0x1AAB8, symBinAddr: 0x1000319D4, symSize: 0x40 }
  - { offsetInCU: 0x15E3, offset: 0x34C0E, size: 0x8, addend: 0x0, symName: __ZN7doctest6detail7fillossINSt3__112basic_stringIcNS2_11char_traitsIcEENS2_9allocatorIcEEEEEEvPNS2_13basic_ostreamIcS5_EERKT_, symObjAddr: 0x1AAF8, symBinAddr: 0x100031A14, symSize: 0x2C }
  - { offsetInCU: 0x1650, offset: 0x34C7B, size: 0x8, addend: 0x0, symName: __ZN7doctest6detail8toStreamIA1_cEENS_6StringERKT_, symObjAddr: 0x1B41C, symBinAddr: 0x100031A98, symSize: 0x40 }
  - { offsetInCU: 0x1696, offset: 0x34CC1, size: 0x8, addend: 0x0, symName: __ZN7doctest6detail7fillossIcLm1EEEvPNSt3__113basic_ostreamIcNS2_11char_traitsIcEEEERAT0__KT_, symObjAddr: 0x1B45C, symBinAddr: 0x100031AD8, symSize: 0x2C }
  - { offsetInCU: 0x16E2, offset: 0x34D0D, size: 0x8, addend: 0x0, symName: __ZN7doctest6detail7fillossIA1_KcEEvPNSt3__113basic_ostreamIcNS4_11char_traitsIcEEEERKT_, symObjAddr: 0x1B488, symBinAddr: 0x100031B04, symSize: 0x2C }
  - { offsetInCU: 0x174F, offset: 0x34D7A, size: 0x8, addend: 0x0, symName: __ZN7doctest6detail7forwardIKiEEOT_RNSt3__116remove_referenceIS3_E4typeE, symObjAddr: 0x1B644, symBinAddr: 0x100031CC0, symSize: 0x14 }
  - { offsetInCU: 0x1787, offset: 0x34DB2, size: 0x8, addend: 0x0, symName: __ZN7doctest6detail7forwardIiEEOT_RNSt3__116remove_referenceIS2_E4typeE, symObjAddr: 0x1B658, symBinAddr: 0x100031CD4, symSize: 0x14 }
  - { offsetInCU: 0x17BF, offset: 0x34DEA, size: 0x8, addend: 0x0, symName: __ZN7doctest6detail19stringifyBinaryExprIiiEENS_6StringERKT_PKcRKT0_, symObjAddr: 0x1B66C, symBinAddr: 0x100031CE8, symSize: 0x150 }
  - { offsetInCU: 0x181D, offset: 0x34E48, size: 0x8, addend: 0x0, symName: __ZN7doctest6detail7forwardIRA6_KcEEOT_RNSt3__116remove_referenceIS5_E4typeE, symObjAddr: 0x1DD84, symBinAddr: 0x100031E7C, symSize: 0x14 }
  - { offsetInCU: 0x1855, offset: 0x34E80, size: 0x8, addend: 0x0, symName: __ZN7doctest6detail19stringifyBinaryExprINSt3__112basic_stringIcNS2_11char_traitsIcEENS2_9allocatorIcEEEEA6_cEENS_6StringERKT_PKcRKT0_, symObjAddr: 0x1DD98, symBinAddr: 0x100031E90, symSize: 0x148 }
  - { offsetInCU: 0x18B3, offset: 0x34EDE, size: 0x8, addend: 0x0, symName: __ZN7doctest6detail8toStreamIA6_cEENS_6StringERKT_, symObjAddr: 0x1DF38, symBinAddr: 0x100032030, symSize: 0x40 }
  - { offsetInCU: 0x18F9, offset: 0x34F24, size: 0x8, addend: 0x0, symName: __ZN7doctest6detail7fillossIcLm6EEEvPNSt3__113basic_ostreamIcNS2_11char_traitsIcEEEERAT0__KT_, symObjAddr: 0x1DF78, symBinAddr: 0x100032070, symSize: 0x2C }
  - { offsetInCU: 0x1945, offset: 0x34F70, size: 0x8, addend: 0x0, symName: __ZN7doctest6detail7fillossIA6_KcEEvPNSt3__113basic_ostreamIcNS4_11char_traitsIcEEEERKT_, symObjAddr: 0x1DFA4, symBinAddr: 0x10003209C, symSize: 0x2C }
  - { offsetInCU: 0x19B2, offset: 0x34FDD, size: 0x8, addend: 0x0, symName: __ZN7doctest6detail7forwardIKNSt3__14pairINS2_12basic_stringIcNS2_11char_traitsIcEENS2_9allocatorIcEEEEiEEEEOT_RNS2_16remove_referenceISC_E4typeE, symObjAddr: 0x1E17C, symBinAddr: 0x100032274, symSize: 0x14 }
  - { offsetInCU: 0x19EA, offset: 0x35015, size: 0x8, addend: 0x0, symName: __ZN7doctest6detail7forwardINSt3__14pairINS2_12basic_stringIcNS2_11char_traitsIcEENS2_9allocatorIcEEEEiEEEEOT_RNS2_16remove_referenceISB_E4typeE, symObjAddr: 0x1E190, symBinAddr: 0x100032288, symSize: 0x14 }
  - { offsetInCU: 0x1A22, offset: 0x3504D, size: 0x8, addend: 0x0, symName: __ZN7doctest6detail19stringifyBinaryExprINSt3__14pairINS2_12basic_stringIcNS2_11char_traitsIcEENS2_9allocatorIcEEEEiEESA_EENS_6StringERKT_PKcRKT0_, symObjAddr: 0x1E1A4, symBinAddr: 0x10003229C, symSize: 0x148 }
  - { offsetInCU: 0x1AB4, offset: 0x350DF, size: 0x8, addend: 0x0, symName: __ZN7doctest6detail7forwardIRA5_KcEEOT_RNSt3__116remove_referenceIS5_E4typeE, symObjAddr: 0x1E528, symBinAddr: 0x100032478, symSize: 0x14 }
  - { offsetInCU: 0x1AEC, offset: 0x35117, size: 0x8, addend: 0x0, symName: __ZN7doctest6detail19stringifyBinaryExprINSt3__112basic_stringIcNS2_11char_traitsIcEENS2_9allocatorIcEEEEA5_cEENS_6StringERKT_PKcRKT0_, symObjAddr: 0x1E53C, symBinAddr: 0x10003248C, symSize: 0x148 }
  - { offsetInCU: 0x1B4A, offset: 0x35175, size: 0x8, addend: 0x0, symName: __ZN7doctest6detail8toStreamIA5_cEENS_6StringERKT_, symObjAddr: 0x1E6DC, symBinAddr: 0x10003262C, symSize: 0x40 }
  - { offsetInCU: 0x1B90, offset: 0x351BB, size: 0x8, addend: 0x0, symName: __ZN7doctest6detail7fillossIcLm5EEEvPNSt3__113basic_ostreamIcNS2_11char_traitsIcEEEERAT0__KT_, symObjAddr: 0x1E71C, symBinAddr: 0x10003266C, symSize: 0x2C }
  - { offsetInCU: 0x1BDC, offset: 0x35207, size: 0x8, addend: 0x0, symName: __ZN7doctest6detail7fillossIA5_KcEEvPNSt3__113basic_ostreamIcNS4_11char_traitsIcEEEERKT_, symObjAddr: 0x1E748, symBinAddr: 0x100032698, symSize: 0x2C }
  - { offsetInCU: 0x1C49, offset: 0x35274, size: 0x8, addend: 0x0, symName: __ZN7doctest6detail7forwardIRA8_KcEEOT_RNSt3__116remove_referenceIS5_E4typeE, symObjAddr: 0x1EB60, symBinAddr: 0x100032AB0, symSize: 0x14 }
  - { offsetInCU: 0x1C81, offset: 0x352AC, size: 0x8, addend: 0x0, symName: __ZN7doctest6detail19stringifyBinaryExprINSt3__112basic_stringIcNS2_11char_traitsIcEENS2_9allocatorIcEEEEA8_cEENS_6StringERKT_PKcRKT0_, symObjAddr: 0x1EB74, symBinAddr: 0x100032AC4, symSize: 0x148 }
  - { offsetInCU: 0x1CDF, offset: 0x3530A, size: 0x8, addend: 0x0, symName: __ZN7doctest6detail8toStreamIA8_cEENS_6StringERKT_, symObjAddr: 0x1ED14, symBinAddr: 0x100032C64, symSize: 0x40 }
  - { offsetInCU: 0x1D25, offset: 0x35350, size: 0x8, addend: 0x0, symName: __ZN7doctest6detail7fillossIcLm8EEEvPNSt3__113basic_ostreamIcNS2_11char_traitsIcEEEERAT0__KT_, symObjAddr: 0x1ED54, symBinAddr: 0x100032CA4, symSize: 0x2C }
  - { offsetInCU: 0x1D71, offset: 0x3539C, size: 0x8, addend: 0x0, symName: __ZN7doctest6detail7fillossIA8_KcEEvPNSt3__113basic_ostreamIcNS4_11char_traitsIcEEEERKT_, symObjAddr: 0x1ED80, symBinAddr: 0x100032CD0, symSize: 0x2C }
  - { offsetInCU: 0x1DDE, offset: 0x35409, size: 0x8, addend: 0x0, symName: __ZN7doctest6detail7forwardIRA16_KcEEOT_RNSt3__116remove_referenceIS5_E4typeE, symObjAddr: 0x1EE78, symBinAddr: 0x100032DC8, symSize: 0x14 }
  - { offsetInCU: 0x1E16, offset: 0x35441, size: 0x8, addend: 0x0, symName: __ZN7doctest6detail19stringifyBinaryExprINSt3__112basic_stringIcNS2_11char_traitsIcEENS2_9allocatorIcEEEEA16_cEENS_6StringERKT_PKcRKT0_, symObjAddr: 0x1EE8C, symBinAddr: 0x100032DDC, symSize: 0x148 }
  - { offsetInCU: 0x1E74, offset: 0x3549F, size: 0x8, addend: 0x0, symName: __ZN7doctest6detail8toStreamIA16_cEENS_6StringERKT_, symObjAddr: 0x1F02C, symBinAddr: 0x100032F7C, symSize: 0x40 }
  - { offsetInCU: 0x1EBA, offset: 0x354E5, size: 0x8, addend: 0x0, symName: __ZN7doctest6detail7fillossIcLm16EEEvPNSt3__113basic_ostreamIcNS2_11char_traitsIcEEEERAT0__KT_, symObjAddr: 0x1F06C, symBinAddr: 0x100032FBC, symSize: 0x2C }
  - { offsetInCU: 0x1F06, offset: 0x35531, size: 0x8, addend: 0x0, symName: __ZN7doctest6detail7fillossIA16_KcEEvPNSt3__113basic_ostreamIcNS4_11char_traitsIcEEEERKT_, symObjAddr: 0x1F098, symBinAddr: 0x100032FE8, symSize: 0x2C }
  - { offsetInCU: 0x1F73, offset: 0x3559E, size: 0x8, addend: 0x0, symName: __ZN7doctest6detail15reporterCreatorINS_12_GLOBAL__N_111XmlReporterEEEPNS_9IReporterERKNS_14ContextOptionsE, symObjAddr: 0x2A50C, symBinAddr: 0x10003DF98, symSize: 0x5C }
  - { offsetInCU: 0x1FAB, offset: 0x355D6, size: 0x8, addend: 0x0, symName: __ZN7doctest6detail15reporterCreatorINS_12_GLOBAL__N_113JUnitReporterEEEPNS_9IReporterERKNS_14ContextOptionsE, symObjAddr: 0x30E28, symBinAddr: 0x1000445A4, symSize: 0x5C }
  - { offsetInCU: 0x1FE3, offset: 0x3560E, size: 0x8, addend: 0x0, symName: __ZN7doctest6detail15reporterCreatorINS_12_GLOBAL__N_115ConsoleReporterEEEPNS_9IReporterERKNS_14ContextOptionsE, symObjAddr: 0x37D58, symBinAddr: 0x10004B41C, symSize: 0x5C }
  - { offsetInCU: 0x2F74, offset: 0x3659F, size: 0x8, addend: 0x0, symName: __ZN7doctest12_GLOBAL__N_123DOCTEST_ANON_REPORTER_5E, symObjAddr: 0x1CF280, symBinAddr: 0x1000682C8, symSize: 0x0 }
  - { offsetInCU: 0x2F8F, offset: 0x365BA, size: 0x8, addend: 0x0, symName: __ZN7doctest12_GLOBAL__N_123DOCTEST_ANON_REPORTER_8E, symObjAddr: 0x1CF284, symBinAddr: 0x1000682CC, symSize: 0x0 }
  - { offsetInCU: 0x2FAA, offset: 0x365D5, size: 0x8, addend: 0x0, symName: __ZN7doctest12_GLOBAL__N_124DOCTEST_ANON_REPORTER_12E, symObjAddr: 0x1CF288, symBinAddr: 0x1000682D0, symSize: 0x0 }
  - { offsetInCU: 0x2FB8, offset: 0x365E3, size: 0x8, addend: 0x0, symName: __ZN7doctest12_GLOBAL__N_123getExceptionTranslatorsEv, symObjAddr: 0x6008, symBinAddr: 0x10001D8E8, symSize: 0x94 }
  - { offsetInCU: 0x2FE4, offset: 0x3660F, size: 0x8, addend: 0x0, symName: __ZZN7doctest12_GLOBAL__N_123getExceptionTranslatorsEvE4data, symObjAddr: 0x1CF780, symBinAddr: 0x1000687C8, symSize: 0x0 }
  - { offsetInCU: 0x2FF5, offset: 0x36620, size: 0x8, addend: 0x0, symName: __ZN7doctest12_GLOBAL__N_121FatalConditionHandler12altStackSizeE, symObjAddr: 0x4B250, symBinAddr: 0x100068008, symSize: 0x0 }
  - { offsetInCU: 0x30A8, offset: 0x366D3, size: 0x8, addend: 0x0, symName: __ZN7doctest12_GLOBAL__N_121FatalConditionHandler11altStackMemE, symObjAddr: 0x1CF7A0, symBinAddr: 0x1000687E8, symSize: 0x0 }
  - { offsetInCU: 0x30B6, offset: 0x366E1, size: 0x8, addend: 0x0, symName: __ZN7doctest12_GLOBAL__N_112getReportersEv, symObjAddr: 0xCBC8, symBinAddr: 0x1000244A8, symSize: 0x94 }
  - { offsetInCU: 0x30E2, offset: 0x3670D, size: 0x8, addend: 0x0, symName: __ZZN7doctest12_GLOBAL__N_112getReportersEvE4data, symObjAddr: 0x1CF7A8, symBinAddr: 0x1000687F0, symSize: 0x0 }
  - { offsetInCU: 0x30F9, offset: 0x36724, size: 0x8, addend: 0x0, symName: __ZN7doctest12_GLOBAL__N_112getListenersEv, symObjAddr: 0xCDBC, symBinAddr: 0x10002469C, symSize: 0x94 }
  - { offsetInCU: 0x3125, offset: 0x36750, size: 0x8, addend: 0x0, symName: __ZZN7doctest12_GLOBAL__N_112getListenersEvE4data, symObjAddr: 0x1CF7C8, symBinAddr: 0x100068810, symSize: 0x0 }
  - { offsetInCU: 0x3136, offset: 0x36761, size: 0x8, addend: 0x0, symName: __ZN7doctest12_GLOBAL__N_121FatalConditionHandler5isSetE, symObjAddr: 0x1CF7E8, symBinAddr: 0x100068830, symSize: 0x0 }
  - { offsetInCU: 0x314A, offset: 0x36775, size: 0x8, addend: 0x0, symName: __ZN7doctest12_GLOBAL__N_121FatalConditionHandler11oldSigStackE, symObjAddr: 0x1CF7F0, symBinAddr: 0x100068838, symSize: 0x0 }
  - { offsetInCU: 0x3165, offset: 0x36790, size: 0x8, addend: 0x0, symName: __ZN7doctest12_GLOBAL__N_110signalDefsE, symObjAddr: 0x4B258, symBinAddr: 0x100068010, symSize: 0x0 }
  - { offsetInCU: 0x319E, offset: 0x367C9, size: 0x8, addend: 0x0, symName: __ZN7doctest12_GLOBAL__N_121FatalConditionHandler13oldSigActionsE, symObjAddr: 0x1CF808, symBinAddr: 0x100068850, symSize: 0x0 }
  - { offsetInCU: 0x3ADF, offset: 0x3710A, size: 0x8, addend: 0x0, symName: __ZN7doctest12_GLOBAL__N_17stricmpEPKcS2_, symObjAddr: 0x1630, symBinAddr: 0x100018F90, symSize: 0xA0 }
  - { offsetInCU: 0x3B3B, offset: 0x37166, size: 0x8, addend: 0x0, symName: __ZN7doctest12_GLOBAL__N_115color_to_streamERNSt3__113basic_ostreamIcNS1_11char_traitsIcEEEENS_5Color4EnumE, symObjAddr: 0x1D38, symBinAddr: 0x100019650, symSize: 0x168 }
  - { offsetInCU: 0x3B84, offset: 0x371AF, size: 0x8, addend: 0x0, symName: __ZN7doctest12_GLOBAL__N_115throw_exceptionISt11logic_errorEEvRKT_, symObjAddr: 0x25EC, symBinAddr: 0x100019F04, symSize: 0x3C }
  - { offsetInCU: 0x3BB8, offset: 0x371E3, size: 0x8, addend: 0x0, symName: __ZN7doctest12_GLOBAL__N_110matchesAnyEPKcRKNSt3__16vectorINS_6StringENS3_9allocatorIS5_EEEEbb, symObjAddr: 0x3FC8, symBinAddr: 0x10001B8E0, symSize: 0x11C }
  - { offsetInCU: 0x3C68, offset: 0x37293, size: 0x8, addend: 0x0, symName: __ZN7doctest12_GLOBAL__N_14hashEyy, symObjAddr: 0x47E4, symBinAddr: 0x10001C0FC, symSize: 0x20 }
  - { offsetInCU: 0x3CA6, offset: 0x372D1, size: 0x8, addend: 0x0, symName: __ZN7doctest12_GLOBAL__N_14hashERKNSt3__16vectorINS_16SubcaseSignatureENS1_9allocatorIS3_EEEEm, symObjAddr: 0x4804, symBinAddr: 0x10001C11C, symSize: 0xA8 }
  - { offsetInCU: 0x3D20, offset: 0x3734B, size: 0x8, addend: 0x0, symName: __ZN7doctest12_GLOBAL__N_14hashERKNS_16SubcaseSignatureE, symObjAddr: 0x48AC, symBinAddr: 0x10001C1C4, symSize: 0x50 }
  - { offsetInCU: 0x3D4F, offset: 0x3737A, size: 0x8, addend: 0x0, symName: __ZN7doctest12_GLOBAL__N_14hashERKNSt3__16vectorINS_16SubcaseSignatureENS1_9allocatorIS3_EEEE, symObjAddr: 0x4EC0, symBinAddr: 0x10001C7D8, symSize: 0x98 }
  - { offsetInCU: 0x3DE1, offset: 0x3740C, size: 0x8, addend: 0x0, symName: __ZN7doctest12_GLOBAL__N_124translateActiveExceptionEv, symObjAddr: 0x6D28, symBinAddr: 0x10001E608, symSize: 0x2BC }
  - { offsetInCU: 0x3EA2, offset: 0x374CD, size: 0x8, addend: 0x0, symName: __ZN7doctest12_GLOBAL__N_19addAssertENS_10assertType4EnumE, symObjAddr: 0x7470, symBinAddr: 0x10001ED50, symSize: 0x48 }
  - { offsetInCU: 0x3ECD, offset: 0x374F8, size: 0x8, addend: 0x0, symName: __ZN7doctest12_GLOBAL__N_115addFailedAssertENS_10assertType4EnumE, symObjAddr: 0x74B8, symBinAddr: 0x10001ED98, symSize: 0x48 }
  - { offsetInCU: 0x3EF8, offset: 0x37523, size: 0x8, addend: 0x0, symName: __ZN7doctest12_GLOBAL__N_117parseCommaSepArgsEiPKPKcS2_RNSt3__16vectorINS_6StringENS5_9allocatorIS7_EEEE, symObjAddr: 0xA538, symBinAddr: 0x100021E18, symSize: 0x2E4 }
  - { offsetInCU: 0x4005, offset: 0x37630, size: 0x8, addend: 0x0, symName: __ZN7doctest12_GLOBAL__N_111parseOptionEiPKPKcS2_PNS_6StringERKS5_, symObjAddr: 0xA81C, symBinAddr: 0x1000220FC, symSize: 0xB0 }
  - { offsetInCU: 0x4070, offset: 0x3769B, size: 0x8, addend: 0x0, symName: __ZN7doctest12_GLOBAL__N_114parseIntOptionEiPKPKcS2_NS0_10optionTypeERi, symObjAddr: 0xA8CC, symBinAddr: 0x1000221AC, symSize: 0x2F4 }
  - { offsetInCU: 0x415C, offset: 0x37787, size: 0x8, addend: 0x0, symName: __ZN7doctest12_GLOBAL__N_19parseFlagEiPKPKcS2_, symObjAddr: 0xABC0, symBinAddr: 0x1000224A0, symSize: 0xCC }
  - { offsetInCU: 0x41A9, offset: 0x377D4, size: 0x8, addend: 0x0, symName: __ZN7doctest12_GLOBAL__N_119fileOrderComparatorEPKNS_6detail8TestCaseES4_, symObjAddr: 0xD454, symBinAddr: 0x100024D34, symSize: 0xE0 }
  - { offsetInCU: 0x41F6, offset: 0x37821, size: 0x8, addend: 0x0, symName: __ZN7doctest12_GLOBAL__N_120suiteOrderComparatorEPKNS_6detail8TestCaseES4_, symObjAddr: 0xD534, symBinAddr: 0x100024E14, symSize: 0x8C }
  - { offsetInCU: 0x4243, offset: 0x3786E, size: 0x8, addend: 0x0, symName: __ZN7doctest12_GLOBAL__N_119nameOrderComparatorEPKNS_6detail8TestCaseES4_, symObjAddr: 0xD5C0, symBinAddr: 0x100024EA0, symSize: 0x8C }
  - { offsetInCU: 0x4290, offset: 0x378BB, size: 0x8, addend: 0x0, symName: __ZN7doctest12_GLOBAL__N_17wildcmpEPKcS2_b, symObjAddr: 0x139C8, symBinAddr: 0x10002AF34, symSize: 0x2A0 }
  - { offsetInCU: 0x42FB, offset: 0x37926, size: 0x8, addend: 0x0, symName: __ZN7doctest12_GLOBAL__N_14hashEPKc, symObjAddr: 0x13FEC, symBinAddr: 0x10002B558, symSize: 0x60 }
  - { offsetInCU: 0x4348, offset: 0x37973, size: 0x8, addend: 0x0, symName: __ZN7doctest12_GLOBAL__N_115parseOptionImplEiPKPKcS2_PNS_6StringE, symObjAddr: 0x18398, symBinAddr: 0x10002F608, symSize: 0x25C }
  - { offsetInCU: 0x443B, offset: 0x37A66, size: 0x8, addend: 0x0, symName: __ZN7doctest12_GLOBAL__N_111reportFatalERKNSt3__112basic_stringIcNS1_11char_traitsIcEENS1_9allocatorIcEEEE, symObjAddr: 0x19544, symBinAddr: 0x10003072C, symSize: 0x2F4 }
  - { offsetInCU: 0x47DD, offset: 0x37E08, size: 0x8, addend: 0x0, symName: __ZN7doctest12_GLOBAL__N_1lsERNSt3__113basic_ostreamIcNS1_11char_traitsIcEEEERKNS0_9XmlEncodeE, symObjAddr: 0x2EBE8, symBinAddr: 0x1000425C4, symSize: 0x30 }
  - { offsetInCU: 0x481D, offset: 0x37E48, size: 0x8, addend: 0x0, symName: __ZN7doctest12_GLOBAL__N_112_GLOBAL__N_113hexEscapeCharERNSt3__113basic_ostreamIcNS2_11char_traitsIcEEEEh, symObjAddr: 0x2F1CC, symBinAddr: 0x100042BA8, symSize: 0xC0 }
  - { offsetInCU: 0x4866, offset: 0x37E91, size: 0x8, addend: 0x0, symName: __ZN7doctest12_GLOBAL__N_112_GLOBAL__N_113trailingBytesEh, symObjAddr: 0x2F28C, symBinAddr: 0x100042C68, symSize: 0xD0 }
  - { offsetInCU: 0x4895, offset: 0x37EC0, size: 0x8, addend: 0x0, symName: __ZN7doctest12_GLOBAL__N_112_GLOBAL__N_111headerValueEh, symObjAddr: 0x2F35C, symBinAddr: 0x100042D38, symSize: 0xDC }
  - { offsetInCU: 0x48C5, offset: 0x37EF0, size: 0x8, addend: 0x0, symName: __ZN7doctest12_GLOBAL__N_129fulltext_log_assert_to_streamERNSt3__113basic_ostreamIcNS1_11char_traitsIcEEEERKNS_10AssertDataE, symObjAddr: 0x3702C, symBinAddr: 0x10004A6F0, symSize: 0x5A4 }
  - { offsetInCU: 0x4C3F, offset: 0x3826A, size: 0x8, addend: 0x0, symName: __ZN7doctest12_GLOBAL__N_1lsERNSt3__113basic_ostreamIcNS1_11char_traitsIcEEEERKNS0_10WhitespaceE, symObjAddr: 0x3A1D4, symBinAddr: 0x10004D898, symSize: 0x70 }
  - { offsetInCU: 0x4C97, offset: 0x382C2, size: 0x8, addend: 0x0, symName: __ZN7doctestL10discardOutE, symObjAddr: 0x1CF290, symBinAddr: 0x1000682D8, symSize: 0x0 }
  - { offsetInCU: 0x4DDF, offset: 0x3840A, size: 0x8, addend: 0x0, symName: __ZN7doctest5ColorlsERNSt3__113basic_ostreamIcNS1_11char_traitsIcEEEENS0_4EnumE, symObjAddr: 0x1D08, symBinAddr: 0x100019620, symSize: 0x30 }
  - { offsetInCU: 0x5011, offset: 0x3863C, size: 0x8, addend: 0x0, symName: __ZN7doctestplERKNS_6StringES2_, symObjAddr: 0x1720, symBinAddr: 0x100019080, symSize: 0xC0 }
  - { offsetInCU: 0x504E, offset: 0x38679, size: 0x8, addend: 0x0, symName: __ZN7doctesteqERKNS_6StringES2_, symObjAddr: 0x17E0, symBinAddr: 0x100019140, symSize: 0x40 }
  - { offsetInCU: 0x508B, offset: 0x386B6, size: 0x8, addend: 0x0, symName: __ZN7doctestneERKNS_6StringES2_, symObjAddr: 0x1820, symBinAddr: 0x100019180, symSize: 0x40 }
  - { offsetInCU: 0x50C8, offset: 0x386F3, size: 0x8, addend: 0x0, symName: __ZN7doctestltERKNS_6StringES2_, symObjAddr: 0x1860, symBinAddr: 0x1000191C0, symSize: 0x40 }
  - { offsetInCU: 0x5105, offset: 0x38730, size: 0x8, addend: 0x0, symName: __ZN7doctestgtERKNS_6StringES2_, symObjAddr: 0x18A0, symBinAddr: 0x100019200, symSize: 0x40 }
  - { offsetInCU: 0x5142, offset: 0x3876D, size: 0x8, addend: 0x0, symName: __ZN7doctestleERKNS_6StringES2_, symObjAddr: 0x18E0, symBinAddr: 0x100019240, symSize: 0x6C }
  - { offsetInCU: 0x517F, offset: 0x387AA, size: 0x8, addend: 0x0, symName: __ZN7doctestgeERKNS_6StringES2_, symObjAddr: 0x194C, symBinAddr: 0x1000192AC, symSize: 0x6C }
  - { offsetInCU: 0x51BC, offset: 0x387E7, size: 0x8, addend: 0x0, symName: __ZN7doctestlsERNSt3__113basic_ostreamIcNS0_11char_traitsIcEEEERKNS_6StringE, symObjAddr: 0x19B8, symBinAddr: 0x100019318, symSize: 0x3C }
  - { offsetInCU: 0x51F9, offset: 0x38824, size: 0x8, addend: 0x0, symName: __ZN7doctest8toStringERKNS_8ContainsE, symObjAddr: 0x1B28, symBinAddr: 0x100019440, symSize: 0x118 }
  - { offsetInCU: 0x5227, offset: 0x38852, size: 0x8, addend: 0x0, symName: __ZN7doctesteqERKNS_6StringERKNS_8ContainsE, symObjAddr: 0x1C40, symBinAddr: 0x100019558, symSize: 0x30 }
  - { offsetInCU: 0x5264, offset: 0x3888F, size: 0x8, addend: 0x0, symName: __ZN7doctesteqERKNS_8ContainsERKNS_6StringE, symObjAddr: 0x1C70, symBinAddr: 0x100019588, symSize: 0x30 }
  - { offsetInCU: 0x52A1, offset: 0x388CC, size: 0x8, addend: 0x0, symName: __ZN7doctestneERKNS_6StringERKNS_8ContainsE, symObjAddr: 0x1CA0, symBinAddr: 0x1000195B8, symSize: 0x34 }
  - { offsetInCU: 0x52DE, offset: 0x38909, size: 0x8, addend: 0x0, symName: __ZN7doctestneERKNS_8ContainsERKNS_6StringE, symObjAddr: 0x1CD4, symBinAddr: 0x1000195EC, symSize: 0x34 }
  - { offsetInCU: 0x531B, offset: 0x38946, size: 0x8, addend: 0x0, symName: __ZN7doctest12assertStringENS_10assertType4EnumE, symObjAddr: 0x1F00, symBinAddr: 0x100019818, symSize: 0x6EC }
  - { offsetInCU: 0x5349, offset: 0x38974, size: 0x8, addend: 0x0, symName: __ZN7doctest13failureStringENS_10assertType4EnumE, symObjAddr: 0x2628, symBinAddr: 0x100019F40, symSize: 0x90 }
  - { offsetInCU: 0x5378, offset: 0x389A3, size: 0x8, addend: 0x0, symName: __ZN7doctest20skipPathFromFilenameEPKc, symObjAddr: 0x26B8, symBinAddr: 0x100019FD0, symSize: 0xBC }
  - { offsetInCU: 0x53D3, offset: 0x389FE, size: 0x8, addend: 0x0, symName: __ZN7doctest17getContextOptionsEv, symObjAddr: 0x2774, symBinAddr: 0x10001A08C, symSize: 0xC }
  - { offsetInCU: 0x53F2, offset: 0x38A1D, size: 0x8, addend: 0x0, symName: __ZN7doctest8toStringENS_6StringE, symObjAddr: 0x29BC, symBinAddr: 0x10001A2D4, symSize: 0x38 }
  - { offsetInCU: 0x5421, offset: 0x38A4C, size: 0x8, addend: 0x0, symName: __ZN7doctest8toStringEDn, symObjAddr: 0x29F4, symBinAddr: 0x10001A30C, symSize: 0x3C }
  - { offsetInCU: 0x544C, offset: 0x38A77, size: 0x8, addend: 0x0, symName: __ZN7doctest8toStringEb, symObjAddr: 0x2A30, symBinAddr: 0x10001A348, symSize: 0x5C }
  - { offsetInCU: 0x547A, offset: 0x38AA5, size: 0x8, addend: 0x0, symName: __ZN7doctest8toStringEf, symObjAddr: 0x2A8C, symBinAddr: 0x10001A3A4, symSize: 0x2C }
  - { offsetInCU: 0x54A8, offset: 0x38AD3, size: 0x8, addend: 0x0, symName: __ZN7doctest8toStringEd, symObjAddr: 0x2AF8, symBinAddr: 0x10001A410, symSize: 0x2C }
  - { offsetInCU: 0x54D6, offset: 0x38B01, size: 0x8, addend: 0x0, symName: __ZN7doctest8toStringEe, symObjAddr: 0x2B64, symBinAddr: 0x10001A47C, symSize: 0x2C }
  - { offsetInCU: 0x5504, offset: 0x38B2F, size: 0x8, addend: 0x0, symName: __ZN7doctest8toStringEc, symObjAddr: 0x2BD0, symBinAddr: 0x10001A4E8, symSize: 0x2C }
  - { offsetInCU: 0x5532, offset: 0x38B5D, size: 0x8, addend: 0x0, symName: __ZN7doctest8toStringEa, symObjAddr: 0x2C3C, symBinAddr: 0x10001A554, symSize: 0x2C }
  - { offsetInCU: 0x5560, offset: 0x38B8B, size: 0x8, addend: 0x0, symName: __ZN7doctest8toStringEh, symObjAddr: 0x2C68, symBinAddr: 0x10001A580, symSize: 0x2C }
  - { offsetInCU: 0x558E, offset: 0x38BB9, size: 0x8, addend: 0x0, symName: __ZN7doctest8toStringEs, symObjAddr: 0x2CD4, symBinAddr: 0x10001A5EC, symSize: 0x2C }
  - { offsetInCU: 0x55BC, offset: 0x38BE7, size: 0x8, addend: 0x0, symName: __ZN7doctest8toStringEt, symObjAddr: 0x2D40, symBinAddr: 0x10001A658, symSize: 0x2C }
  - { offsetInCU: 0x55EA, offset: 0x38C15, size: 0x8, addend: 0x0, symName: __ZN7doctest8toStringEi, symObjAddr: 0x2DAC, symBinAddr: 0x10001A6C4, symSize: 0x2C }
  - { offsetInCU: 0x5618, offset: 0x38C43, size: 0x8, addend: 0x0, symName: __ZN7doctest8toStringEj, symObjAddr: 0x2DD8, symBinAddr: 0x10001A6F0, symSize: 0x2C }
  - { offsetInCU: 0x5646, offset: 0x38C71, size: 0x8, addend: 0x0, symName: __ZN7doctest8toStringEl, symObjAddr: 0x2E04, symBinAddr: 0x10001A71C, symSize: 0x2C }
  - { offsetInCU: 0x5674, offset: 0x38C9F, size: 0x8, addend: 0x0, symName: __ZN7doctest8toStringEm, symObjAddr: 0x2E70, symBinAddr: 0x10001A788, symSize: 0x2C }
  - { offsetInCU: 0x56A2, offset: 0x38CCD, size: 0x8, addend: 0x0, symName: __ZN7doctest8toStringEx, symObjAddr: 0x2EDC, symBinAddr: 0x10001A7F4, symSize: 0x2C }
  - { offsetInCU: 0x56D0, offset: 0x38CFB, size: 0x8, addend: 0x0, symName: __ZN7doctest8toStringEy, symObjAddr: 0x2F48, symBinAddr: 0x10001A860, symSize: 0x2C }
  - { offsetInCU: 0x56FE, offset: 0x38D29, size: 0x8, addend: 0x0, symName: __ZN7doctesteqEdRKNS_6ApproxE, symObjAddr: 0x30F4, symBinAddr: 0x10001AA0C, symSize: 0x98 }
  - { offsetInCU: 0x573B, offset: 0x38D66, size: 0x8, addend: 0x0, symName: __ZN7doctesteqERKNS_6ApproxEd, symObjAddr: 0x31B8, symBinAddr: 0x10001AAD0, symSize: 0x30 }
  - { offsetInCU: 0x5778, offset: 0x38DA3, size: 0x8, addend: 0x0, symName: __ZN7doctestneEdRKNS_6ApproxE, symObjAddr: 0x31E8, symBinAddr: 0x10001AB00, symSize: 0x34 }
  - { offsetInCU: 0x57B5, offset: 0x38DE0, size: 0x8, addend: 0x0, symName: __ZN7doctestneERKNS_6ApproxEd, symObjAddr: 0x321C, symBinAddr: 0x10001AB34, symSize: 0x34 }
  - { offsetInCU: 0x57F2, offset: 0x38E1D, size: 0x8, addend: 0x0, symName: __ZN7doctestleEdRKNS_6ApproxE, symObjAddr: 0x3250, symBinAddr: 0x10001AB68, symSize: 0x60 }
  - { offsetInCU: 0x582F, offset: 0x38E5A, size: 0x8, addend: 0x0, symName: __ZN7doctestleERKNS_6ApproxEd, symObjAddr: 0x32B0, symBinAddr: 0x10001ABC8, symSize: 0x60 }
  - { offsetInCU: 0x586C, offset: 0x38E97, size: 0x8, addend: 0x0, symName: __ZN7doctestgeEdRKNS_6ApproxE, symObjAddr: 0x3310, symBinAddr: 0x10001AC28, symSize: 0x60 }
  - { offsetInCU: 0x58A9, offset: 0x38ED4, size: 0x8, addend: 0x0, symName: __ZN7doctestgeERKNS_6ApproxEd, symObjAddr: 0x3370, symBinAddr: 0x10001AC88, symSize: 0x60 }
  - { offsetInCU: 0x58E6, offset: 0x38F11, size: 0x8, addend: 0x0, symName: __ZN7doctestltEdRKNS_6ApproxE, symObjAddr: 0x33D0, symBinAddr: 0x10001ACE8, symSize: 0x60 }
  - { offsetInCU: 0x5923, offset: 0x38F4E, size: 0x8, addend: 0x0, symName: __ZN7doctestltERKNS_6ApproxEd, symObjAddr: 0x3430, symBinAddr: 0x10001AD48, symSize: 0x60 }
  - { offsetInCU: 0x5960, offset: 0x38F8B, size: 0x8, addend: 0x0, symName: __ZN7doctestgtEdRKNS_6ApproxE, symObjAddr: 0x3490, symBinAddr: 0x10001ADA8, symSize: 0x60 }
  - { offsetInCU: 0x599D, offset: 0x38FC8, size: 0x8, addend: 0x0, symName: __ZN7doctestgtERKNS_6ApproxEd, symObjAddr: 0x34F0, symBinAddr: 0x10001AE08, symSize: 0x60 }
  - { offsetInCU: 0x59DA, offset: 0x39005, size: 0x8, addend: 0x0, symName: __ZN7doctest8toStringERKNS_6ApproxE, symObjAddr: 0x3550, symBinAddr: 0x10001AE68, symSize: 0x14C }
  - { offsetInCU: 0x5A08, offset: 0x39033, size: 0x8, addend: 0x0, symName: __ZN7doctest8toStringENS_5IsNaNIfEE, symObjAddr: 0x369C, symBinAddr: 0x10001AFB4, symSize: 0x34 }
  - { offsetInCU: 0x5A36, offset: 0x39061, size: 0x8, addend: 0x0, symName: __ZN7doctest8toStringIfEENS_6StringENS_5IsNaNIT_EE, symObjAddr: 0x36D0, symBinAddr: 0x10001AFE8, symSize: 0x1D0 }
  - { offsetInCU: 0x5A6D, offset: 0x39098, size: 0x8, addend: 0x0, symName: __ZN7doctest8toStringENS_5IsNaNIdEE, symObjAddr: 0x38A0, symBinAddr: 0x10001B1B8, symSize: 0x3C }
  - { offsetInCU: 0x5A9B, offset: 0x390C6, size: 0x8, addend: 0x0, symName: __ZN7doctest8toStringIdEENS_6StringENS_5IsNaNIT_EE, symObjAddr: 0x38DC, symBinAddr: 0x10001B1F4, symSize: 0x1D4 }
  - { offsetInCU: 0x5AD2, offset: 0x390FD, size: 0x8, addend: 0x0, symName: __ZN7doctest8toStringENS_5IsNaNIeEE, symObjAddr: 0x3AB0, symBinAddr: 0x10001B3C8, symSize: 0x3C }
  - { offsetInCU: 0x5B00, offset: 0x3912B, size: 0x8, addend: 0x0, symName: __ZN7doctest8toStringIeEENS_6StringENS_5IsNaNIT_EE, symObjAddr: 0x3AEC, symBinAddr: 0x10001B404, symSize: 0x1D4 }
  - { offsetInCU: 0x5B37, offset: 0x39162, size: 0x8, addend: 0x0, symName: __ZN7doctest16registerReporterINS_12_GLOBAL__N_111XmlReporterEEEiPKcib, symObjAddr: 0x7D64, symBinAddr: 0x10001F644, symSize: 0x4C }
  - { offsetInCU: 0x5B8D, offset: 0x391B8, size: 0x8, addend: 0x0, symName: __ZN7doctest16registerReporterINS_12_GLOBAL__N_113JUnitReporterEEEiPKcib, symObjAddr: 0x7DB0, symBinAddr: 0x10001F690, symSize: 0x4C }
  - { offsetInCU: 0x5BE3, offset: 0x3920E, size: 0x8, addend: 0x0, symName: __ZN7doctest16registerReporterINS_12_GLOBAL__N_115ConsoleReporterEEEiPKcib, symObjAddr: 0x7DFC, symBinAddr: 0x10001F6DC, symSize: 0x4C }
  - { offsetInCU: 0x5E0F, offset: 0x3943A, size: 0x8, addend: 0x0, symName: __ZN7doctestneIiEENSt3__19enable_ifIXsr3std16is_constructibleIdT_EE5valueEbE4typeERKNS_6ApproxERKS3_, symObjAddr: 0x199F8, symBinAddr: 0x100030BE0, symSize: 0x34 }
  - { offsetInCU: 0x5E55, offset: 0x39480, size: 0x8, addend: 0x0, symName: __ZN7doctesteqIiEENSt3__19enable_ifIXsr3std16is_constructibleIdT_EE5valueEbE4typeERKS3_RKNS_6ApproxE, symObjAddr: 0x19A2C, symBinAddr: 0x100030C14, symSize: 0x40 }
  - { offsetInCU: 0x5E9B, offset: 0x394C6, size: 0x8, addend: 0x0, symName: __ZN7doctest8toStringINSt3__112basic_stringIcNS1_11char_traitsIcEENS1_9allocatorIcEEEELb1EEENS_6StringERKT_, symObjAddr: 0x1AA34, symBinAddr: 0x100031950, symSize: 0x2C }
  - { offsetInCU: 0x5ED8, offset: 0x39503, size: 0x8, addend: 0x0, symName: __ZN7doctest8toStringIA1_cLb1EEENS_6StringERKT_, symObjAddr: 0x1AA60, symBinAddr: 0x10003197C, symSize: 0x2C }
  - { offsetInCU: 0x5F15, offset: 0x39540, size: 0x8, addend: 0x0, symName: __ZN7doctest8toStringIA6_cLb1EEENS_6StringERKT_, symObjAddr: 0x1DEE0, symBinAddr: 0x100031FD8, symSize: 0x2C }
  - { offsetInCU: 0x5F52, offset: 0x3957D, size: 0x8, addend: 0x0, symName: __ZN7doctest8toStringINSt3__14pairINS1_12basic_stringIcNS1_11char_traitsIcEENS1_9allocatorIcEEEEiEELb1EEENS_6StringERKT_, symObjAddr: 0x1E468, symBinAddr: 0x1000323E4, symSize: 0x2C }
  - { offsetInCU: 0x5F8F, offset: 0x395BA, size: 0x8, addend: 0x0, symName: __ZN7doctest8toStringIA5_cLb1EEENS_6StringERKT_, symObjAddr: 0x1E684, symBinAddr: 0x1000325D4, symSize: 0x2C }
  - { offsetInCU: 0x5FCC, offset: 0x395F7, size: 0x8, addend: 0x0, symName: __ZN7doctest8toStringIA8_cLb1EEENS_6StringERKT_, symObjAddr: 0x1ECBC, symBinAddr: 0x100032C0C, symSize: 0x2C }
  - { offsetInCU: 0x6009, offset: 0x39634, size: 0x8, addend: 0x0, symName: __ZN7doctest8toStringIA16_cLb1EEENS_6StringERKT_, symObjAddr: 0x1EFD4, symBinAddr: 0x100032F24, symSize: 0x2C }
  - { offsetInCU: 0x1E681, offset: 0x51CAC, size: 0x8, addend: 0x0, symName: __ZNSt3__117__cxx_atomic_loadB8ue170006IiEET_PKNS_22__cxx_atomic_base_implIS1_EENS_12memory_orderE, symObjAddr: 0x1F294, symBinAddr: 0x1000331A0, symSize: 0x80 }
  - { offsetInCU: 0x1EBDD, offset: 0x52208, size: 0x8, addend: 0x0, symName: __ZNSt3__17advanceB8ue170006INS_11__wrap_iterIPN7doctest16SubcaseSignatureEEEllvEEvRT_T0_, symObjAddr: 0x214A4, symBinAddr: 0x1000353B0, symSize: 0x38 }
  - { offsetInCU: 0x1EDAF, offset: 0x523DA, size: 0x8, addend: 0x0, symName: __ZNSt3__117__cxx_atomic_loadB8ue170006IbEET_PKNS_22__cxx_atomic_base_implIS1_EENS_12memory_orderE, symObjAddr: 0x23F0C, symBinAddr: 0x100037E04, symSize: 0x84 }
  - { offsetInCU: 0x272D1, offset: 0x5A8FC, size: 0x8, addend: 0x0, symName: __ZNSt3__111__introsortINS_17_ClassicAlgPolicyERPFbPKN7doctest6detail8TestCaseES6_EPS6_Lb0EEEvT1_SB_T0_NS_15iterator_traitsISB_E15difference_typeEb, symObjAddr: 0x3F1A8, symBinAddr: 0x10005286C, symSize: 0x448 }
  - { offsetInCU: 0x273FF, offset: 0x5AA2A, size: 0x8, addend: 0x0, symName: __ZNSt3__126__insertion_sort_unguardedB8ue170006INS_17_ClassicAlgPolicyERPFbPKN7doctest6detail8TestCaseES6_EPS6_EEvT1_SB_T0_, symObjAddr: 0x3F86C, symBinAddr: 0x100052F30, symSize: 0x134 }
  - { offsetInCU: 0x274F3, offset: 0x5AB1E, size: 0x8, addend: 0x0, symName: __ZNSt3__111__sift_downB8ue170006INS_17_ClassicAlgPolicyERPFbPKN7doctest6detail8TestCaseES6_EPS6_EEvT1_OT0_NS_15iterator_traitsISB_E15difference_typeESB_, symObjAddr: 0x40B68, symBinAddr: 0x10005422C, symSize: 0x230 }
  - { offsetInCU: 0x275A0, offset: 0x5ABCB, size: 0x8, addend: 0x0, symName: __ZNSt3__117__floyd_sift_downB8ue170006INS_17_ClassicAlgPolicyERPFbPKN7doctest6detail8TestCaseES6_EPS6_EET1_SB_OT0_NS_15iterator_traitsISB_E15difference_typeE, symObjAddr: 0x40F34, symBinAddr: 0x1000545F8, symSize: 0x108 }
  - { offsetInCU: 0x27637, offset: 0x5AC62, size: 0x8, addend: 0x0, symName: __ZNSt3__131__partition_with_equals_on_leftB8ue170006INS_17_ClassicAlgPolicyEPPKN7doctest6detail8TestCaseERPFbS6_S6_EEET0_SB_SB_T1_, symObjAddr: 0x3FBE8, symBinAddr: 0x1000532AC, symSize: 0x238 }
  - { offsetInCU: 0x276F2, offset: 0x5AD1D, size: 0x8, addend: 0x0, symName: __ZNSt3__118__bitset_partitionB8ue170006INS_17_ClassicAlgPolicyEPPKN7doctest6detail8TestCaseERPFbS6_S6_EEENS_4pairIT0_bEESC_SC_T1_, symObjAddr: 0x3FE20, symBinAddr: 0x1000534E4, symSize: 0x340 }
  - { offsetInCU: 0x277EB, offset: 0x5AE16, size: 0x8, addend: 0x0, symName: __ZNSt3__124__swap_bitmap_pos_withinB8ue170006INS_17_ClassicAlgPolicyEPPKN7doctest6detail8TestCaseEEEvRT0_S9_RySA_, symObjAddr: 0x416CC, symBinAddr: 0x100054D90, symSize: 0x1E0 }
  - { offsetInCU: 0x278BA, offset: 0x5AEE5, size: 0x8, addend: 0x0, symName: __ZNSt3__132__partition_with_equals_on_rightB8ue170006INS_17_ClassicAlgPolicyEPPKN7doctest6detail8TestCaseERPFbS6_S6_EEENS_4pairIT0_bEESC_SC_T1_, symObjAddr: 0x40160, symBinAddr: 0x100053824, symSize: 0x244 }
  - { offsetInCU: 0x27984, offset: 0x5AFAF, size: 0x8, addend: 0x0, symName: __ZNSt3__127__insertion_sort_incompleteB8ue170006INS_17_ClassicAlgPolicyERPFbPKN7doctest6detail8TestCaseES6_EPS6_EEbT1_SB_T0_, symObjAddr: 0x403A4, symBinAddr: 0x100053A68, symSize: 0x324 }
  - { offsetInCU: 0x2B499, offset: 0x5EAC4, size: 0x8, addend: 0x0, symName: __ZNSt3__13minB8ue170006IjEERKT_S3_S3_, symObjAddr: 0x12A0, symBinAddr: 0x100018C00, symSize: 0x2C }
  - { offsetInCU: 0x2B8E3, offset: 0x5EF0E, size: 0x8, addend: 0x0, symName: __ZNSt3__13maxB8ue170006IdEERKT_S3_S3_, symObjAddr: 0x318C, symBinAddr: 0x10001AAA4, symSize: 0x2C }
  - { offsetInCU: 0x2B926, offset: 0x5EF51, size: 0x8, addend: 0x0, symName: __ZNSt3__1neB8ue170006IPPN7doctest9IReporterEEEbRKNS_11__wrap_iterIT_EES9_, symObjAddr: 0x4708, symBinAddr: 0x10001C020, symSize: 0x34 }
  - { offsetInCU: 0x2B968, offset: 0x5EF93, size: 0x8, addend: 0x0, symName: __ZNSt3__1eqB8ue170006ERKNS_21__hash_const_iteratorIPNS_11__hash_nodeIyPvEEEES7_, symObjAddr: 0x4774, symBinAddr: 0x10001C08C, symSize: 0x30 }
  - { offsetInCU: 0x2C1C0, offset: 0x5F7EB, size: 0x8, addend: 0x0, symName: __ZNSt3__17getlineB8ue170006IcNS_11char_traitsIcEENS_9allocatorIcEEEERNS_13basic_istreamIT_T0_EES9_RNS_12basic_stringIS6_S7_T1_EE, symObjAddr: 0x5D74, symBinAddr: 0x10001D654, symSize: 0x5C }
  - { offsetInCU: 0x2C224, offset: 0x5F84F, size: 0x8, addend: 0x0, symName: __ZNSt3__1eqB8ue170006IPPKN7doctest6detail20IExceptionTranslatorEEEbRKNS_11__wrap_iterIT_EESB_, symObjAddr: 0x5F48, symBinAddr: 0x10001D828, symSize: 0x48 }
  - { offsetInCU: 0x2C267, offset: 0x5F892, size: 0x8, addend: 0x0, symName: __ZNSt3__14findB8ue170006INS_11__wrap_iterIPPKN7doctest6detail20IExceptionTranslatorEEES6_EET_S9_S9_RKT0_, symObjAddr: 0x5F90, symBinAddr: 0x10001D870, symSize: 0x78 }
  - { offsetInCU: 0x2C2CF, offset: 0x5F8FA, size: 0x8, addend: 0x0, symName: __ZNSt3__1neB8ue170006IPNS_6vectorIN7doctest6StringENS_9allocatorIS3_EEEEEEbRKNS_11__wrap_iterIT_EESC_, symObjAddr: 0xAFBC, symBinAddr: 0x10002289C, symSize: 0x34 }
  - { offsetInCU: 0x2C461, offset: 0x5FA8C, size: 0x8, addend: 0x0, symName: __ZNSt3__1neB8ue170006ERKNS_14__map_iteratorINS_15__tree_iteratorINS_12__value_typeINS_4pairIiN7doctest6StringEEEPFPNS4_9IReporterERKNS4_14ContextOptionsEEEEPNS_11__tree_nodeISE_PvEElEEEESM_, symObjAddr: 0xCCCC, symBinAddr: 0x1000245AC, symSize: 0x30 }
  - { offsetInCU: 0x2C4B4, offset: 0x5FADF, size: 0x8, addend: 0x0, symName: __ZNSt3__1neB8ue170006ERKNS_21__tree_const_iteratorIN7doctest6detail8TestCaseEPNS_11__tree_nodeIS3_PvEElEESA_, symObjAddr: 0xD25C, symBinAddr: 0x100024B3C, symSize: 0x34 }
  - { offsetInCU: 0x2C4F1, offset: 0x5FB1C, size: 0x8, addend: 0x0, symName: __ZNSt3__14sortB8ue170006INS_11__wrap_iterIPPKN7doctest6detail8TestCaseEEEPFbS6_S6_EEEvT_SB_T0_, symObjAddr: 0xD3AC, symBinAddr: 0x100024C8C, symSize: 0x48 }
  - { offsetInCU: 0x2CBF9, offset: 0x60224, size: 0x8, addend: 0x0, symName: __ZNSt3__1neB8ue170006IPPKN7doctest6detail8TestCaseEEEbRKNS_11__wrap_iterIT_EESB_, symObjAddr: 0xD6C8, symBinAddr: 0x100024FA8, symSize: 0x34 }
  - { offsetInCU: 0x2CC3C, offset: 0x60267, size: 0x8, addend: 0x0, symName: __ZNSt3__112__to_addressB8ue170006INS_4fposI11__mbstate_tEEEEPT_S5_, symObjAddr: 0x11AA0, symBinAddr: 0x100029378, symSize: 0x14 }
  - { offsetInCU: 0x2CD18, offset: 0x60343, size: 0x8, addend: 0x0, symName: __ZNSt3__119__allocate_at_leastB8ue170006INS_9allocatorINS_4fposI11__mbstate_tEEEEEENS_19__allocation_resultINS_16allocator_traitsIT_E7pointerEEERS8_m, symObjAddr: 0x128B4, symBinAddr: 0x100029EDC, symSize: 0x40 }
  - { offsetInCU: 0x2CD5A, offset: 0x60385, size: 0x8, addend: 0x0, symName: __ZNSt3__142__uninitialized_allocator_move_if_noexceptB8ue170006INS_9allocatorINS_4fposI11__mbstate_tEEEENS_16reverse_iteratorIPS4_EES8_S4_vEET1_RT_T0_SC_S9_, symObjAddr: 0x12AEC, symBinAddr: 0x10002A094, symSize: 0x78 }
  - { offsetInCU: 0x2CDD9, offset: 0x60404, size: 0x8, addend: 0x0, symName: __ZNSt3__14swapB8ue170006IPNS_4fposI11__mbstate_tEEEENS_9enable_ifIXaasr21is_move_constructibleIT_EE5valuesr18is_move_assignableIS6_EE5valueEvE4typeERS6_S9_, symObjAddr: 0x12BB0, symBinAddr: 0x10002A158, symSize: 0x3C }
  - { offsetInCU: 0x2CE2A, offset: 0x60455, size: 0x8, addend: 0x0, symName: __ZNSt3__14moveB8ue170006INS_16reverse_iteratorIPNS_4fposI11__mbstate_tEEEES6_EET0_T_S8_S7_, symObjAddr: 0x12CB4, symBinAddr: 0x10002A25C, symSize: 0x78 }
  - { offsetInCU: 0x2CE84, offset: 0x604AF, size: 0x8, addend: 0x0, symName: __ZNSt3__16__moveB8ue170006INS_17_ClassicAlgPolicyENS_16reverse_iteratorIPNS_4fposI11__mbstate_tEEEES7_S7_EENS_4pairIT0_T2_EES9_T1_SA_, symObjAddr: 0x12D2C, symBinAddr: 0x10002A2D4, symSize: 0x64 }
  - { offsetInCU: 0x2CEF0, offset: 0x6051B, size: 0x8, addend: 0x0, symName: __ZNSt3__123__dispatch_copy_or_moveB8ue170006INS_17_ClassicAlgPolicyENS_11__move_loopIS1_EENS_14__move_trivialENS_16reverse_iteratorIPNS_4fposI11__mbstate_tEEEESA_SA_EENS_4pairIT2_T4_EESC_T3_SD_, symObjAddr: 0x12D90, symBinAddr: 0x10002A338, symSize: 0x64 }
  - { offsetInCU: 0x2CF6E, offset: 0x60599, size: 0x8, addend: 0x0, symName: __ZNSt3__121__unwrap_and_dispatchB8ue170006INS_10__overloadINS_11__move_loopINS_17_ClassicAlgPolicyEEENS_14__move_trivialEEENS_16reverse_iteratorIPNS_4fposI11__mbstate_tEEEESC_SC_Li0EEENS_4pairIT0_T2_EESE_T1_SF_, symObjAddr: 0x12DF4, symBinAddr: 0x10002A39C, symSize: 0x12C }
  - { offsetInCU: 0x2CFFE, offset: 0x60629, size: 0x8, addend: 0x0, symName: __ZNSt3__114__unwrap_rangeB8ue170006INS_16reverse_iteratorIPNS_4fposI11__mbstate_tEEEES6_EENS_4pairIT0_S8_EET_SA_, symObjAddr: 0x12F20, symBinAddr: 0x10002A4C8, symSize: 0x84 }
  - { offsetInCU: 0x2D2AB, offset: 0x608D6, size: 0x8, addend: 0x0, symName: __ZNSt3__113__unwrap_iterB8ue170006INS_16reverse_iteratorIPNS_4fposI11__mbstate_tEEEENS_18__unwrap_iter_implIS6_Lb0EEELi0EEEDTclsrT0_8__unwrapclsr3stdE7declvalIT_EEEESA_, symObjAddr: 0x13040, symBinAddr: 0x10002A5E8, symSize: 0x44 }
  - { offsetInCU: 0x2D2EE, offset: 0x60919, size: 0x8, addend: 0x0, symName: __ZNSt3__19make_pairB8ue170006INS_16reverse_iteratorIPNS_4fposI11__mbstate_tEEEES6_EENS_4pairINS_18__unwrap_ref_decayIT_E4typeENS8_IT0_E4typeEEEOS9_OSC_, symObjAddr: 0x13084, symBinAddr: 0x10002A62C, symSize: 0x38 }
  - { offsetInCU: 0x2D33E, offset: 0x60969, size: 0x8, addend: 0x0, symName: __ZNSt3__114__rewrap_rangeB8ue170006INS_16reverse_iteratorIPNS_4fposI11__mbstate_tEEEES6_EET_S7_T0_, symObjAddr: 0x130BC, symBinAddr: 0x10002A664, symSize: 0x5C }
  - { offsetInCU: 0x2D38A, offset: 0x609B5, size: 0x8, addend: 0x0, symName: __ZNSt3__113__rewrap_iterB8ue170006INS_16reverse_iteratorIPNS_4fposI11__mbstate_tEEEES6_NS_18__unwrap_iter_implIS6_Lb0EEEEET_S9_T0_, symObjAddr: 0x13118, symBinAddr: 0x10002A6C0, symSize: 0x74 }
  - { offsetInCU: 0x2D3DF, offset: 0x60A0A, size: 0x8, addend: 0x0, symName: __ZNSt3__1neB8ue170006IPNS_4fposI11__mbstate_tEES4_EEbRKNS_16reverse_iteratorIT_EERKNS5_IT0_EE, symObjAddr: 0x1318C, symBinAddr: 0x10002A734, symSize: 0x48 }
  - { offsetInCU: 0x2D700, offset: 0x60D2B, size: 0x8, addend: 0x0, symName: __ZNSt3__1miB8ue170006I11__mbstate_tEExRKNS_4fposIT_EES6_, symObjAddr: 0x136D0, symBinAddr: 0x10002AC3C, symSize: 0x40 }
  - { offsetInCU: 0x2D743, offset: 0x60D6E, size: 0x8, addend: 0x0, symName: __ZNSt3__1neB8ue170006IPKN7doctest6StringEEEbRKNS_11__wrap_iterIT_EES9_, symObjAddr: 0x1397C, symBinAddr: 0x10002AEE8, symSize: 0x34 }
  - { offsetInCU: 0x2D786, offset: 0x60DB1, size: 0x8, addend: 0x0, symName: __ZNSt3__1eqB8ue170006IPKN7doctest6StringEEEbRKNS_11__wrap_iterIT_EES9_, symObjAddr: 0x13D0C, symBinAddr: 0x10002B278, symSize: 0x48 }
  - { offsetInCU: 0x2D7C9, offset: 0x60DF4, size: 0x8, addend: 0x0, symName: __ZNSt3__1eqB8ue170006IPPN7doctest9IReporterEEEbRKNS_11__wrap_iterIT_EES9_, symObjAddr: 0x13D6C, symBinAddr: 0x10002B2D8, symSize: 0x48 }
  - { offsetInCU: 0x2D80C, offset: 0x60E37, size: 0x8, addend: 0x0, symName: __ZNSt3__1neB8ue170006IPKN7doctest16SubcaseSignatureEEEbRKNS_11__wrap_iterIT_EES9_, symObjAddr: 0x13E38, symBinAddr: 0x10002B3A4, symSize: 0x34 }
  - { offsetInCU: 0x2D84F, offset: 0x60E7A, size: 0x8, addend: 0x0, symName: __ZNSt3__1eqB8ue170006IPKN7doctest16SubcaseSignatureEEEbRKNS_11__wrap_iterIT_EES9_, symObjAddr: 0x13F6C, symBinAddr: 0x10002B4D8, symSize: 0x48 }
  - { offsetInCU: 0x2D892, offset: 0x60EBD, size: 0x8, addend: 0x0, symName: __ZNSt3__112__to_addressB8ue170006IPKN7doctest6detail20IExceptionTranslatorEEEPT_S7_, symObjAddr: 0x14700, symBinAddr: 0x10002BC6C, symSize: 0x14 }
  - { offsetInCU: 0x2D8C7, offset: 0x60EF2, size: 0x8, addend: 0x0, symName: __ZNSt3__1neB8ue170006IPPKN7doctest6detail20IExceptionTranslatorEEEbRKNS_11__wrap_iterIT_EESB_, symObjAddr: 0x14AA8, symBinAddr: 0x10002C014, symSize: 0x34 }
  - { offsetInCU: 0x2D909, offset: 0x60F34, size: 0x8, addend: 0x0, symName: __ZNSt3__122__cxx_atomic_fetch_addB8ue170006ImEET_PNS_22__cxx_atomic_base_implIS1_EES1_NS_12memory_orderE, symObjAddr: 0x14CB4, symBinAddr: 0x10002C220, symSize: 0xC4 }
  - { offsetInCU: 0x2D95F, offset: 0x60F8A, size: 0x8, addend: 0x0, symName: __ZNSt3__122__cxx_atomic_fetch_addB8ue170006IiEET_PNS_22__cxx_atomic_base_implIS1_EES1_NS_12memory_orderE, symObjAddr: 0x14D8C, symBinAddr: 0x10002C2F8, symSize: 0xC4 }
  - { offsetInCU: 0x2D9B6, offset: 0x60FE1, size: 0x8, addend: 0x0, symName: __ZNSt3__122__make_exception_guardB8ue170006INS_6vectorINS1_IN7doctest6StringENS_9allocatorIS3_EEEENS4_IS6_EEE16__destroy_vectorEEENS_28__exception_guard_exceptionsIT_EESB_, symObjAddr: 0x1534C, symBinAddr: 0x10002C8B8, symSize: 0x40 }
  - { offsetInCU: 0x2D9EB, offset: 0x61016, size: 0x8, addend: 0x0, symName: __ZNSt3__119__allocate_at_leastB8ue170006INS_9allocatorINS_6vectorIN7doctest6StringENS1_IS4_EEEEEEEENS_19__allocation_resultINS_16allocator_traitsIT_E7pointerEEERSA_m, symObjAddr: 0x15740, symBinAddr: 0x10002CCAC, symSize: 0x40 }
  - { offsetInCU: 0x2DA2E, offset: 0x61059, size: 0x8, addend: 0x0, symName: __ZNSt3__112__to_addressB8ue170006INS_6vectorIN7doctest6StringENS_9allocatorIS3_EEEEEEPT_S8_, symObjAddr: 0x15A88, symBinAddr: 0x10002CFF4, symSize: 0x14 }
  - { offsetInCU: 0x2DA63, offset: 0x6108E, size: 0x8, addend: 0x0, symName: __ZNSt3__112__to_addressB8ue170006IN7doctest6StringEEEPT_S4_, symObjAddr: 0x162B8, symBinAddr: 0x10002D824, symSize: 0x14 }
  - { offsetInCU: 0x2DACB, offset: 0x610F6, size: 0x8, addend: 0x0, symName: __ZNSt3__112__to_addressB8ue170006IN7doctest16SubcaseSignatureEEEPT_S4_, symObjAddr: 0x178AC, symBinAddr: 0x10002EE18, symSize: 0x14 }
  - { offsetInCU: 0x2DB00, offset: 0x6112B, size: 0x8, addend: 0x0, symName: __ZNSt3__112__to_addressB8ue170006IPN7doctest9IReporterEEEPT_S5_, symObjAddr: 0x17D68, symBinAddr: 0x10002F2D4, symSize: 0x14 }
  - { offsetInCU: 0x2DB35, offset: 0x61160, size: 0x8, addend: 0x0, symName: __ZNSt3__1eqB8ue170006IPNS_6vectorIN7doctest6StringENS_9allocatorIS3_EEEEEEbRKNS_11__wrap_iterIT_EESC_, symObjAddr: 0x185F4, symBinAddr: 0x10002F864, symSize: 0x48 }
  - { offsetInCU: 0x2DB78, offset: 0x611A3, size: 0x8, addend: 0x0, symName: __ZNSt3__15beginB8ue170006IcLm1024EEEPT_RAT0__S1_, symObjAddr: 0x188C8, symBinAddr: 0x10002FB38, symSize: 0x14 }
  - { offsetInCU: 0x2DBB8, offset: 0x611E3, size: 0x8, addend: 0x0, symName: __ZNSt3__13endB8ue170006IcLm1024EEEPT_RAT0__S1_, symObjAddr: 0x188DC, symBinAddr: 0x10002FB4C, symSize: 0x18 }
  - { offsetInCU: 0x2DC2B, offset: 0x61256, size: 0x8, addend: 0x0, symName: __ZNSt3__1eqB8ue170006IPPKN7doctest6detail8TestCaseEEEbRKNS_11__wrap_iterIT_EESB_, symObjAddr: 0x19324, symBinAddr: 0x10003050C, symSize: 0x48 }
  - { offsetInCU: 0x2DC6D, offset: 0x61298, size: 0x8, addend: 0x0, symName: __ZNSt3__1eqB8ue170006INS_12basic_stringIcNS_11char_traitsIcEENS_9allocatorIcEEEEiS6_iEEbRKNS_4pairIT_T0_EERKNS7_IT1_T2_EE, symObjAddr: 0x1E118, symBinAddr: 0x100032210, symSize: 0x64 }
  - { offsetInCU: 0x2DCCF, offset: 0x612FA, size: 0x8, addend: 0x0, symName: __ZNSt3__13minB8ue170006IjNS_6__lessIvvEEEERKT_S5_S5_T0_, symObjAddr: 0x1F314, symBinAddr: 0x100033220, symSize: 0x54 }
  - { offsetInCU: 0x2DD29, offset: 0x61354, size: 0x8, addend: 0x0, symName: __ZNSt3__13maxB8ue170006IdNS_6__lessIvvEEEERKT_S5_S5_T0_, symObjAddr: 0x1F39C, symBinAddr: 0x1000332A8, symSize: 0x54 }
  - { offsetInCU: 0x2DD83, offset: 0x613AE, size: 0x8, addend: 0x0, symName: __ZNSt3__118__cxx_atomic_storeB8ue170006IbEEvPNS_22__cxx_atomic_base_implIT_EES2_NS_12memory_orderE, symObjAddr: 0x1F464, symBinAddr: 0x100033370, symSize: 0x90 }
  - { offsetInCU: 0x2DDD5, offset: 0x61400, size: 0x8, addend: 0x0, symName: __ZNSt3__119__allocate_at_leastB8ue170006INS_9allocatorIN7doctest16SubcaseSignatureEEEEENS_19__allocation_resultINS_16allocator_traitsIT_E7pointerEEERS7_m, symObjAddr: 0x1FCD8, symBinAddr: 0x100033BE4, symSize: 0x40 }
  - { offsetInCU: 0x2DE17, offset: 0x61442, size: 0x8, addend: 0x0, symName: __ZNSt3__142__uninitialized_allocator_move_if_noexceptB8ue170006INS_9allocatorIN7doctest16SubcaseSignatureEEENS_16reverse_iteratorIPS3_EES7_S7_EET2_RT_T0_T1_S8_, symObjAddr: 0x1FE90, symBinAddr: 0x100033D9C, symSize: 0x12C }
  - { offsetInCU: 0x2DEB8, offset: 0x614E3, size: 0x8, addend: 0x0, symName: __ZNSt3__14swapB8ue170006IPN7doctest16SubcaseSignatureEEENS_9enable_ifIXaasr21is_move_constructibleIT_EE5valuesr18is_move_assignableIS5_EE5valueEvE4typeERS5_S8_, symObjAddr: 0x20008, symBinAddr: 0x100033F14, symSize: 0x3C }
  - { offsetInCU: 0x2DF09, offset: 0x61534, size: 0x8, addend: 0x0, symName: __ZNSt3__122__make_exception_guardB8ue170006INS_29_AllocatorDestroyRangeReverseINS_9allocatorIN7doctest16SubcaseSignatureEEENS_16reverse_iteratorIPS4_EEEEEENS_28__exception_guard_exceptionsIT_EESB_, symObjAddr: 0x2010C, symBinAddr: 0x100034018, symSize: 0x4C }
  - { offsetInCU: 0x2DF3F, offset: 0x6156A, size: 0x8, addend: 0x0, symName: __ZNSt3__1neB8ue170006IPN7doctest16SubcaseSignatureES3_EEbRKNS_16reverse_iteratorIT_EERKNS4_IT0_EE, symObjAddr: 0x2019C, symBinAddr: 0x1000340A8, symSize: 0x48 }
  - { offsetInCU: 0x2DF8B, offset: 0x615B6, size: 0x8, addend: 0x0, symName: __ZNSt3__112__to_addressB8ue170006INS_16reverse_iteratorIPN7doctest16SubcaseSignatureEEEvEEu7__decayIDTclsr19__to_address_helperIT_EE6__callclsr3stdE7declvalIRKS6_EEEEES8_, symObjAddr: 0x20218, symBinAddr: 0x100034124, symSize: 0x24 }
  - { offsetInCU: 0x2DFE9, offset: 0x61614, size: 0x8, addend: 0x0, symName: __ZNSt3__119__allocator_destroyB8ue170006INS_9allocatorIN7doctest16SubcaseSignatureEEENS_16reverse_iteratorINS5_IPS3_EEEES8_EEvRT_T0_T1_, symObjAddr: 0x20574, symBinAddr: 0x100034480, symSize: 0x70 }
  - { offsetInCU: 0x2E04F, offset: 0x6167A, size: 0x8, addend: 0x0, symName: __ZNSt3__1neB8ue170006INS_16reverse_iteratorIPN7doctest16SubcaseSignatureEEES5_EEbRKNS1_IT_EERKNS1_IT0_EE, symObjAddr: 0x20620, symBinAddr: 0x10003452C, symSize: 0x60 }
  - { offsetInCU: 0x2E09B, offset: 0x616C6, size: 0x8, addend: 0x0, symName: __ZNSt3__112__to_addressB8ue170006INS_16reverse_iteratorINS1_IPN7doctest16SubcaseSignatureEEEEEvEEu7__decayIDTclsr19__to_address_helperIT_EE6__callclsr3stdE7declvalIRKS7_EEEEES9_, symObjAddr: 0x20680, symBinAddr: 0x10003458C, symSize: 0x24 }
  - { offsetInCU: 0x2E0FA, offset: 0x61725, size: 0x8, addend: 0x0, symName: __ZNSt3__116__constrain_hashB8ue170006Emm, symObjAddr: 0x20CC4, symBinAddr: 0x100034BD0, symSize: 0x98 }
  - { offsetInCU: 0x2E134, offset: 0x6175F, size: 0x8, addend: 0x0, symName: __ZNSt3__18distanceB8ue170006INS_11__wrap_iterIPN7doctest16SubcaseSignatureEEEEENS_15iterator_traitsIT_E15difference_typeES7_S7_, symObjAddr: 0x213E4, symBinAddr: 0x1000352F0, symSize: 0x3C }
  - { offsetInCU: 0x2E177, offset: 0x617A2, size: 0x8, addend: 0x0, symName: __ZNSt3__1miB8ue170006IPKN7doctest16SubcaseSignatureEPS2_EEDTmicldtfp_4baseEcldtfp0_4baseEERKNS_11__wrap_iterIT_EERKNS7_IT0_EE, symObjAddr: 0x21420, symBinAddr: 0x10003532C, symSize: 0x48 }
  - { offsetInCU: 0x2E1C3, offset: 0x617EE, size: 0x8, addend: 0x0, symName: __ZNSt3__14nextB8ue170006INS_11__wrap_iterIPN7doctest16SubcaseSignatureEEEEENS_9enable_ifIXsr29__has_input_iterator_categoryIT_EE5valueES7_E4typeES7_NS_15iterator_traitsIS7_E15difference_typeE, symObjAddr: 0x21468, symBinAddr: 0x100035374, symSize: 0x3C }
  - { offsetInCU: 0x2E206, offset: 0x61831, size: 0x8, addend: 0x0, symName: __ZNSt3__14copyB8ue170006INS_11__wrap_iterIPN7doctest16SubcaseSignatureEEES4_EET0_T_S7_S6_, symObjAddr: 0x216B4, symBinAddr: 0x1000355C0, symSize: 0x50 }
  - { offsetInCU: 0x2E260, offset: 0x6188B, size: 0x8, addend: 0x0, symName: __ZNSt3__19__advanceB8ue170006INS_11__wrap_iterIPN7doctest16SubcaseSignatureEEEEEvRT_NS_15iterator_traitsIS6_E15difference_typeENS_26random_access_iterator_tagE, symObjAddr: 0x2194C, symBinAddr: 0x100035844, symSize: 0x2C }
  - { offsetInCU: 0x2E2A8, offset: 0x618D3, size: 0x8, addend: 0x0, symName: __ZNSt3__130__uninitialized_allocator_copyB8ue170006INS_9allocatorIN7doctest16SubcaseSignatureEEENS_11__wrap_iterIPS3_EES7_S6_EET2_RT_T0_T1_S8_, symObjAddr: 0x21978, symBinAddr: 0x100035870, symSize: 0x90 }
  - { offsetInCU: 0x2E346, offset: 0x61971, size: 0x8, addend: 0x0, symName: __ZNSt3__114__unwrap_rangeB8ue170006INS_11__wrap_iterIPN7doctest16SubcaseSignatureEEES4_EENS_4pairIT0_S7_EET_S9_, symObjAddr: 0x21A08, symBinAddr: 0x100035900, symSize: 0x70 }
  - { offsetInCU: 0x2E391, offset: 0x619BC, size: 0x8, addend: 0x0, symName: __ZNSt3__135__uninitialized_allocator_copy_implB8ue170006INS_9allocatorIN7doctest16SubcaseSignatureEEEPS3_S5_S5_EET2_RT_T0_T1_S6_, symObjAddr: 0x21A78, symBinAddr: 0x100035970, symSize: 0xF4 }
  - { offsetInCU: 0x2E430, offset: 0x61A5B, size: 0x8, addend: 0x0, symName: __ZNSt3__113__unwrap_iterB8ue170006IPN7doctest16SubcaseSignatureENS_18__unwrap_iter_implIS3_Lb1EEELi0EEEDTclsrT0_8__unwrapclsr3stdE7declvalIT_EEEES7_, symObjAddr: 0x21B6C, symBinAddr: 0x100035A64, symSize: 0x24 }
  - { offsetInCU: 0x2E474, offset: 0x61A9F, size: 0x8, addend: 0x0, symName: __ZNSt3__113__rewrap_iterB8ue170006IPN7doctest16SubcaseSignatureES3_NS_18__unwrap_iter_implIS3_Lb1EEEEET_S6_T0_, symObjAddr: 0x21B90, symBinAddr: 0x100035A88, symSize: 0x3C }
  - { offsetInCU: 0x2E4C8, offset: 0x61AF3, size: 0x8, addend: 0x0, symName: __ZNSt3__19make_pairB8ue170006IPN7doctest16SubcaseSignatureES3_EENS_4pairINS_18__unwrap_ref_decayIT_E4typeENS5_IT0_E4typeEEEOS6_OS9_, symObjAddr: 0x21BCC, symBinAddr: 0x100035AC4, symSize: 0x38 }
  - { offsetInCU: 0x2E518, offset: 0x61B43, size: 0x8, addend: 0x0, symName: __ZNSt3__113__unwrap_iterB8ue170006INS_11__wrap_iterIPN7doctest16SubcaseSignatureEEENS_18__unwrap_iter_implIS5_Lb1EEELi0EEEDTclsrT0_8__unwrapclsr3stdE7declvalIT_EEEES9_, symObjAddr: 0x21C04, symBinAddr: 0x100035AFC, symSize: 0x2C }
  - { offsetInCU: 0x2E683, offset: 0x61CAE, size: 0x8, addend: 0x0, symName: __ZNSt3__112__to_addressB8ue170006INS_11__wrap_iterIPN7doctest16SubcaseSignatureEEEvEEu7__decayIDTclsr19__to_address_helperIT_EE6__callclsr3stdE7declvalIRKS6_EEEEES8_, symObjAddr: 0x21CC8, symBinAddr: 0x100035BC0, symSize: 0x24 }
  - { offsetInCU: 0x2E75E, offset: 0x61D89, size: 0x8, addend: 0x0, symName: __ZNSt3__122__make_exception_guardB8ue170006INS_29_AllocatorDestroyRangeReverseINS_9allocatorIN7doctest16SubcaseSignatureEEEPS4_EEEENS_28__exception_guard_exceptionsIT_EES9_, symObjAddr: 0x21D48, symBinAddr: 0x100035C40, symSize: 0x4C }
  - { offsetInCU: 0x2E793, offset: 0x61DBE, size: 0x8, addend: 0x0, symName: __ZNSt3__119__allocator_destroyB8ue170006INS_9allocatorIN7doctest16SubcaseSignatureEEENS_16reverse_iteratorIPS3_EES7_EEvRT_T0_T1_, symObjAddr: 0x21FD8, symBinAddr: 0x100035ED0, symSize: 0x70 }
  - { offsetInCU: 0x2E84A, offset: 0x61E75, size: 0x8, addend: 0x0, symName: __ZNSt3__113move_backwardB8ue170006IPN7doctest16SubcaseSignatureES3_EET0_T_S5_S4_, symObjAddr: 0x220C4, symBinAddr: 0x100035FBC, symSize: 0x40 }
  - { offsetInCU: 0x2E8A4, offset: 0x61ECF, size: 0x8, addend: 0x0, symName: __ZNSt3__115__move_backwardB8ue170006INS_17_ClassicAlgPolicyEPN7doctest16SubcaseSignatureES4_S4_EENS_4pairIT0_T2_EES6_T1_S7_, symObjAddr: 0x22104, symBinAddr: 0x100035FFC, symSize: 0x44 }
  - { offsetInCU: 0x2E910, offset: 0x61F3B, size: 0x8, addend: 0x0, symName: __ZNSt3__123__dispatch_copy_or_moveB8ue170006INS_17_ClassicAlgPolicyENS_20__move_backward_loopIS1_EENS_23__move_backward_trivialEPN7doctest16SubcaseSignatureES7_S7_EENS_4pairIT2_T4_EES9_T3_SA_, symObjAddr: 0x22148, symBinAddr: 0x100036040, symSize: 0x44 }
  - { offsetInCU: 0x2E98E, offset: 0x61FB9, size: 0x8, addend: 0x0, symName: __ZNSt3__121__unwrap_and_dispatchB8ue170006INS_10__overloadINS_20__move_backward_loopINS_17_ClassicAlgPolicyEEENS_23__move_backward_trivialEEEPN7doctest16SubcaseSignatureES9_S9_Li0EEENS_4pairIT0_T2_EESB_T1_SC_, symObjAddr: 0x2218C, symBinAddr: 0x100036084, symSize: 0xB4 }
  - { offsetInCU: 0x2EA1C, offset: 0x62047, size: 0x8, addend: 0x0, symName: __ZNSt3__114__unwrap_rangeB8ue170006IPN7doctest16SubcaseSignatureES3_EENS_4pairIT0_S5_EET_S7_, symObjAddr: 0x22240, symBinAddr: 0x100036138, symSize: 0x60 }
  - { offsetInCU: 0x2EABA, offset: 0x620E5, size: 0x8, addend: 0x0, symName: __ZNSt3__114__rewrap_rangeB8ue170006IPN7doctest16SubcaseSignatureES3_EET_S4_T0_, symObjAddr: 0x22344, symBinAddr: 0x10003623C, symSize: 0x2C }
  - { offsetInCU: 0x2EB2A, offset: 0x62155, size: 0x8, addend: 0x0, symName: __ZNSt3__16__copyB8ue170006INS_17_ClassicAlgPolicyENS_11__wrap_iterIPN7doctest16SubcaseSignatureEEES6_S5_EENS_4pairIT0_T2_EES8_T1_S9_, symObjAddr: 0x223FC, symBinAddr: 0x1000362F4, symSize: 0x54 }
  - { offsetInCU: 0x2EB96, offset: 0x621C1, size: 0x8, addend: 0x0, symName: __ZNSt3__123__dispatch_copy_or_moveB8ue170006INS_17_ClassicAlgPolicyENS_11__copy_loopIS1_EENS_14__copy_trivialENS_11__wrap_iterIPN7doctest16SubcaseSignatureEEES9_S8_EENS_4pairIT2_T4_EESB_T3_SC_, symObjAddr: 0x22450, symBinAddr: 0x100036348, symSize: 0x54 }
  - { offsetInCU: 0x2EC14, offset: 0x6223F, size: 0x8, addend: 0x0, symName: __ZNSt3__121__unwrap_and_dispatchB8ue170006INS_10__overloadINS_11__copy_loopINS_17_ClassicAlgPolicyEEENS_14__copy_trivialEEENS_11__wrap_iterIPN7doctest16SubcaseSignatureEEESB_SA_Li0EEENS_4pairIT0_T2_EESD_T1_SE_, symObjAddr: 0x224A4, symBinAddr: 0x10003639C, symSize: 0xCC }
  - { offsetInCU: 0x2ECF3, offset: 0x6231E, size: 0x8, addend: 0x0, symName: __ZNSt3__19make_pairB8ue170006INS_11__wrap_iterIPN7doctest16SubcaseSignatureEEES4_EENS_4pairINS_18__unwrap_ref_decayIT_E4typeENS7_IT0_E4typeEEEOS8_OSB_, symObjAddr: 0x225F8, symBinAddr: 0x1000364F0, symSize: 0x38 }
  - { offsetInCU: 0x2ED43, offset: 0x6236E, size: 0x8, addend: 0x0, symName: __ZNSt3__114__rewrap_rangeB8ue170006INS_11__wrap_iterIPN7doctest16SubcaseSignatureEEES4_EET_S6_T0_, symObjAddr: 0x22630, symBinAddr: 0x100036528, symSize: 0x3C }
  - { offsetInCU: 0x2EE63, offset: 0x6248E, size: 0x8, addend: 0x0, symName: __ZNSt3__113__rewrap_iterB8ue170006INS_11__wrap_iterIPN7doctest16SubcaseSignatureEEES4_NS_18__unwrap_iter_implIS5_Lb1EEEEET_S8_T0_, symObjAddr: 0x22724, symBinAddr: 0x10003661C, symSize: 0x4C }
  - { offsetInCU: 0x2EEB7, offset: 0x624E2, size: 0x8, addend: 0x0, symName: __ZNSt3__142__uninitialized_allocator_move_if_noexceptB8ue170006INS_9allocatorIN7doctest16SubcaseSignatureEEEPS3_S5_S5_EET2_RT_T0_T1_S6_, symObjAddr: 0x228D8, symBinAddr: 0x1000367D0, symSize: 0xF4 }
  - { offsetInCU: 0x2EF56, offset: 0x62581, size: 0x8, addend: 0x0, symName: __ZNSt3__110__distanceB8ue170006INS_11__wrap_iterIPN7doctest16SubcaseSignatureEEEEENS_15iterator_traitsIT_E15difference_typeES7_S7_NS_26random_access_iterator_tagE, symObjAddr: 0x229CC, symBinAddr: 0x1000368C4, symSize: 0x30 }
  - { offsetInCU: 0x2EFA3, offset: 0x625CE, size: 0x8, addend: 0x0, symName: __ZNSt3__1miB8ue170006IPN7doctest16SubcaseSignatureES3_EEDTmicldtfp_4baseEcldtfp0_4baseEERKNS_11__wrap_iterIT_EERKNS5_IT0_EE, symObjAddr: 0x229FC, symBinAddr: 0x1000368F4, symSize: 0x48 }
  - { offsetInCU: 0x2EFEF, offset: 0x6261A, size: 0x8, addend: 0x0, symName: __ZNSt3__116__is_hash_power2B8ue170006Em, symObjAddr: 0x2317C, symBinAddr: 0x100037074, symSize: 0x50 }
  - { offsetInCU: 0x2F039, offset: 0x62664, size: 0x8, addend: 0x0, symName: __ZNSt3__116__next_hash_pow2B8ue170006Em, symObjAddr: 0x23AE0, symBinAddr: 0x1000379D8, symSize: 0x6C }
  - { offsetInCU: 0x2F065, offset: 0x62690, size: 0x8, addend: 0x0, symName: __ZNSt3__112__libcpp_clzB8ue170006Em, symObjAddr: 0x23CA4, symBinAddr: 0x100037B9C, symSize: 0x1C }
  - { offsetInCU: 0x2F0AE, offset: 0x626D9, size: 0x8, addend: 0x0, symName: __ZNSt3__127__tree_balance_after_insertB8ue170006IPNS_16__tree_node_baseIPvEEEEvT_S5_, symObjAddr: 0x24FE4, symBinAddr: 0x100038EDC, symSize: 0x32C }
  - { offsetInCU: 0x2F12D, offset: 0x62758, size: 0x8, addend: 0x0, symName: __ZNSt3__120__tree_is_left_childB8ue170006IPNS_16__tree_node_baseIPvEEEEbT_, symObjAddr: 0x25350, symBinAddr: 0x100039248, symSize: 0x2C }
  - { offsetInCU: 0x2F161, offset: 0x6278C, size: 0x8, addend: 0x0, symName: __ZNSt3__118__tree_left_rotateB8ue170006IPNS_16__tree_node_baseIPvEEEEvT_, symObjAddr: 0x2537C, symBinAddr: 0x100039274, symSize: 0xD8 }
  - { offsetInCU: 0x2F1A3, offset: 0x627CE, size: 0x8, addend: 0x0, symName: __ZNSt3__119__tree_right_rotateB8ue170006IPNS_16__tree_node_baseIPvEEEEvT_, symObjAddr: 0x25454, symBinAddr: 0x10003934C, symSize: 0xCC }
  - { offsetInCU: 0x2F1E5, offset: 0x62810, size: 0x8, addend: 0x0, symName: __ZNSt3__17getlineB8ue170006IcNS_11char_traitsIcEENS_9allocatorIcEEEERNS_13basic_istreamIT_T0_EES9_RNS_12basic_stringIS6_S7_T1_EES6_, symObjAddr: 0x257C8, symBinAddr: 0x1000396C0, symSize: 0x238 }
  - { offsetInCU: 0x2F2A4, offset: 0x628CF, size: 0x8, addend: 0x0, symName: __ZNSt3__113__rewrap_iterB8ue170006INS_11__wrap_iterIPPKN7doctest6detail20IExceptionTranslatorEEES7_NS_18__unwrap_iter_implIS8_Lb1EEEEET_SB_T0_, symObjAddr: 0x25EE8, symBinAddr: 0x100039974, symSize: 0x4C }
  - { offsetInCU: 0x2F2F9, offset: 0x62924, size: 0x8, addend: 0x0, symName: __ZNSt3__111__find_implB8ue170006IPPKN7doctest6detail20IExceptionTranslatorES6_S5_NS_10__identityEEET_S8_T0_RKT1_RT2_, symObjAddr: 0x25F34, symBinAddr: 0x1000399C0, symSize: 0x88 }
  - { offsetInCU: 0x2F373, offset: 0x6299E, size: 0x8, addend: 0x0, symName: __ZNSt3__113__unwrap_iterB8ue170006INS_11__wrap_iterIPPKN7doctest6detail20IExceptionTranslatorEEENS_18__unwrap_iter_implIS8_Lb1EEELi0EEEDTclsrT0_8__unwrapclsr3stdE7declvalIT_EEEESC_, symObjAddr: 0x25FBC, symBinAddr: 0x100039A48, symSize: 0x2C }
  - { offsetInCU: 0x2F40A, offset: 0x62A35, size: 0x8, addend: 0x0, symName: __ZNSt3__112__to_addressB8ue170006INS_11__wrap_iterIPPKN7doctest6detail20IExceptionTranslatorEEEvEEu7__decayIDTclsr19__to_address_helperIT_EE6__callclsr3stdE7declvalIRKS9_EEEEESB_, symObjAddr: 0x26080, symBinAddr: 0x100039B0C, symSize: 0x24 }
  - { offsetInCU: 0x2F4E4, offset: 0x62B0F, size: 0x8, addend: 0x0, symName: __ZNSt3__18__invokeB8ue170006IRNS_10__identityEJRPKN7doctest6detail20IExceptionTranslatorEEEEDTclclsr3stdE7declvalIT_EEspclsr3stdE7declvalIT0_EEEEOS9_DpOSA_, symObjAddr: 0x26128, symBinAddr: 0x100039BB4, symSize: 0x2C }
  - { offsetInCU: 0x2F563, offset: 0x62B8E, size: 0x8, addend: 0x0, symName: __ZNSt3__119__allocate_at_leastB8ue170006INS_9allocatorIPKN7doctest6detail20IExceptionTranslatorEEEEENS_19__allocation_resultINS_16allocator_traitsIT_E7pointerEEERSA_m, symObjAddr: 0x268DC, symBinAddr: 0x10003A368, symSize: 0x40 }
  - { offsetInCU: 0x2F5A5, offset: 0x62BD0, size: 0x8, addend: 0x0, symName: __ZNSt3__142__uninitialized_allocator_move_if_noexceptB8ue170006INS_9allocatorIPKN7doctest6detail20IExceptionTranslatorEEENS_16reverse_iteratorIPS6_EESA_S6_vEET1_RT_T0_SE_SB_, symObjAddr: 0x26A90, symBinAddr: 0x10003A51C, symSize: 0x78 }
  - { offsetInCU: 0x2F624, offset: 0x62C4F, size: 0x8, addend: 0x0, symName: __ZNSt3__14swapB8ue170006IPPKN7doctest6detail20IExceptionTranslatorEEENS_9enable_ifIXaasr21is_move_constructibleIT_EE5valuesr18is_move_assignableIS8_EE5valueEvE4typeERS8_SB_, symObjAddr: 0x26B54, symBinAddr: 0x10003A5E0, symSize: 0x3C }
  - { offsetInCU: 0x2F675, offset: 0x62CA0, size: 0x8, addend: 0x0, symName: __ZNSt3__14moveB8ue170006INS_16reverse_iteratorIPPKN7doctest6detail20IExceptionTranslatorEEES8_EET0_T_SA_S9_, symObjAddr: 0x26C3C, symBinAddr: 0x10003A6C8, symSize: 0x78 }
  - { offsetInCU: 0x2F6CF, offset: 0x62CFA, size: 0x8, addend: 0x0, symName: __ZNSt3__16__moveB8ue170006INS_17_ClassicAlgPolicyENS_16reverse_iteratorIPPKN7doctest6detail20IExceptionTranslatorEEES9_S9_EENS_4pairIT0_T2_EESB_T1_SC_, symObjAddr: 0x26CB4, symBinAddr: 0x10003A740, symSize: 0x64 }
  - { offsetInCU: 0x2F73B, offset: 0x62D66, size: 0x8, addend: 0x0, symName: __ZNSt3__123__dispatch_copy_or_moveB8ue170006INS_17_ClassicAlgPolicyENS_11__move_loopIS1_EENS_14__move_trivialENS_16reverse_iteratorIPPKN7doctest6detail20IExceptionTranslatorEEESC_SC_EENS_4pairIT2_T4_EESE_T3_SF_, symObjAddr: 0x26D18, symBinAddr: 0x10003A7A4, symSize: 0x64 }
  - { offsetInCU: 0x2F7B9, offset: 0x62DE4, size: 0x8, addend: 0x0, symName: __ZNSt3__121__unwrap_and_dispatchB8ue170006INS_10__overloadINS_11__move_loopINS_17_ClassicAlgPolicyEEENS_14__move_trivialEEENS_16reverse_iteratorIPPKN7doctest6detail20IExceptionTranslatorEEESE_SE_Li0EEENS_4pairIT0_T2_EESG_T1_SH_, symObjAddr: 0x26D7C, symBinAddr: 0x10003A808, symSize: 0x12C }
  - { offsetInCU: 0x2F849, offset: 0x62E74, size: 0x8, addend: 0x0, symName: __ZNSt3__114__unwrap_rangeB8ue170006INS_16reverse_iteratorIPPKN7doctest6detail20IExceptionTranslatorEEES8_EENS_4pairIT0_SA_EET_SC_, symObjAddr: 0x26EA8, symBinAddr: 0x10003A934, symSize: 0x84 }
  - { offsetInCU: 0x2F969, offset: 0x62F94, size: 0x8, addend: 0x0, symName: __ZNSt3__113__unwrap_iterB8ue170006INS_16reverse_iteratorIPPKN7doctest6detail20IExceptionTranslatorEEENS_18__unwrap_iter_implIS8_Lb0EEELi0EEEDTclsrT0_8__unwrapclsr3stdE7declvalIT_EEEESC_, symObjAddr: 0x26FCC, symBinAddr: 0x10003AA58, symSize: 0x44 }
  - { offsetInCU: 0x2F9AC, offset: 0x62FD7, size: 0x8, addend: 0x0, symName: __ZNSt3__19make_pairB8ue170006INS_16reverse_iteratorIPPKN7doctest6detail20IExceptionTranslatorEEES8_EENS_4pairINS_18__unwrap_ref_decayIT_E4typeENSA_IT0_E4typeEEEOSB_OSE_, symObjAddr: 0x27010, symBinAddr: 0x10003AA9C, symSize: 0x38 }
  - { offsetInCU: 0x2F9FC, offset: 0x63027, size: 0x8, addend: 0x0, symName: __ZNSt3__114__rewrap_rangeB8ue170006INS_16reverse_iteratorIPPKN7doctest6detail20IExceptionTranslatorEEES8_EET_S9_T0_, symObjAddr: 0x27048, symBinAddr: 0x10003AAD4, symSize: 0x5C }
  - { offsetInCU: 0x2FA48, offset: 0x63073, size: 0x8, addend: 0x0, symName: __ZNSt3__113__rewrap_iterB8ue170006INS_16reverse_iteratorIPPKN7doctest6detail20IExceptionTranslatorEEES8_NS_18__unwrap_iter_implIS8_Lb0EEEEET_SB_T0_, symObjAddr: 0x270A4, symBinAddr: 0x10003AB30, symSize: 0x74 }
  - { offsetInCU: 0x2FA9D, offset: 0x630C8, size: 0x8, addend: 0x0, symName: __ZNSt3__1neB8ue170006IPPKN7doctest6detail20IExceptionTranslatorES6_EEbRKNS_16reverse_iteratorIT_EERKNS7_IT0_EE, symObjAddr: 0x27118, symBinAddr: 0x10003ABA4, symSize: 0x48 }
  - { offsetInCU: 0x2FB55, offset: 0x63180, size: 0x8, addend: 0x0, symName: __ZNSt3__112__to_addressB8ue170006IPN7doctest13IContextScopeEEEPT_S5_, symObjAddr: 0x27954, symBinAddr: 0x10003B3E0, symSize: 0x14 }
  - { offsetInCU: 0x2FB8A, offset: 0x631B5, size: 0x8, addend: 0x0, symName: __ZNSt3__119__allocate_at_leastB8ue170006INS_9allocatorIPN7doctest13IContextScopeEEEEENS_19__allocation_resultINS_16allocator_traitsIT_E7pointerEEERS8_m, symObjAddr: 0x281E4, symBinAddr: 0x10003BC70, symSize: 0x40 }
  - { offsetInCU: 0x2FBCC, offset: 0x631F7, size: 0x8, addend: 0x0, symName: __ZNSt3__142__uninitialized_allocator_move_if_noexceptB8ue170006INS_9allocatorIPN7doctest13IContextScopeEEENS_16reverse_iteratorIPS4_EES8_S4_vEET1_RT_T0_SC_S9_, symObjAddr: 0x28398, symBinAddr: 0x10003BE24, symSize: 0x78 }
  - { offsetInCU: 0x2FC4B, offset: 0x63276, size: 0x8, addend: 0x0, symName: __ZNSt3__14swapB8ue170006IPPN7doctest13IContextScopeEEENS_9enable_ifIXaasr21is_move_constructibleIT_EE5valuesr18is_move_assignableIS6_EE5valueEvE4typeERS6_S9_, symObjAddr: 0x2845C, symBinAddr: 0x10003BEE8, symSize: 0x3C }
  - { offsetInCU: 0x2FC9C, offset: 0x632C7, size: 0x8, addend: 0x0, symName: __ZNSt3__14moveB8ue170006INS_16reverse_iteratorIPPN7doctest13IContextScopeEEES6_EET0_T_S8_S7_, symObjAddr: 0x28544, symBinAddr: 0x10003BFD0, symSize: 0x78 }
  - { offsetInCU: 0x2FCF6, offset: 0x63321, size: 0x8, addend: 0x0, symName: __ZNSt3__16__moveB8ue170006INS_17_ClassicAlgPolicyENS_16reverse_iteratorIPPN7doctest13IContextScopeEEES7_S7_EENS_4pairIT0_T2_EES9_T1_SA_, symObjAddr: 0x285BC, symBinAddr: 0x10003C048, symSize: 0x64 }
  - { offsetInCU: 0x2FD62, offset: 0x6338D, size: 0x8, addend: 0x0, symName: __ZNSt3__123__dispatch_copy_or_moveB8ue170006INS_17_ClassicAlgPolicyENS_11__move_loopIS1_EENS_14__move_trivialENS_16reverse_iteratorIPPN7doctest13IContextScopeEEESA_SA_EENS_4pairIT2_T4_EESC_T3_SD_, symObjAddr: 0x28620, symBinAddr: 0x10003C0AC, symSize: 0x64 }
  - { offsetInCU: 0x2FDE0, offset: 0x6340B, size: 0x8, addend: 0x0, symName: __ZNSt3__121__unwrap_and_dispatchB8ue170006INS_10__overloadINS_11__move_loopINS_17_ClassicAlgPolicyEEENS_14__move_trivialEEENS_16reverse_iteratorIPPN7doctest13IContextScopeEEESC_SC_Li0EEENS_4pairIT0_T2_EESE_T1_SF_, symObjAddr: 0x28684, symBinAddr: 0x10003C110, symSize: 0x12C }
  - { offsetInCU: 0x2FE70, offset: 0x6349B, size: 0x8, addend: 0x0, symName: __ZNSt3__114__unwrap_rangeB8ue170006INS_16reverse_iteratorIPPN7doctest13IContextScopeEEES6_EENS_4pairIT0_S8_EET_SA_, symObjAddr: 0x287B0, symBinAddr: 0x10003C23C, symSize: 0x84 }
  - { offsetInCU: 0x2FF90, offset: 0x635BB, size: 0x8, addend: 0x0, symName: __ZNSt3__113__unwrap_iterB8ue170006INS_16reverse_iteratorIPPN7doctest13IContextScopeEEENS_18__unwrap_iter_implIS6_Lb0EEELi0EEEDTclsrT0_8__unwrapclsr3stdE7declvalIT_EEEESA_, symObjAddr: 0x288D4, symBinAddr: 0x10003C360, symSize: 0x44 }
  - { offsetInCU: 0x2FFD3, offset: 0x635FE, size: 0x8, addend: 0x0, symName: __ZNSt3__19make_pairB8ue170006INS_16reverse_iteratorIPPN7doctest13IContextScopeEEES6_EENS_4pairINS_18__unwrap_ref_decayIT_E4typeENS8_IT0_E4typeEEEOS9_OSC_, symObjAddr: 0x28918, symBinAddr: 0x10003C3A4, symSize: 0x38 }
  - { offsetInCU: 0x30023, offset: 0x6364E, size: 0x8, addend: 0x0, symName: __ZNSt3__114__rewrap_rangeB8ue170006INS_16reverse_iteratorIPPN7doctest13IContextScopeEEES6_EET_S7_T0_, symObjAddr: 0x28950, symBinAddr: 0x10003C3DC, symSize: 0x5C }
  - { offsetInCU: 0x3006F, offset: 0x6369A, size: 0x8, addend: 0x0, symName: __ZNSt3__113__rewrap_iterB8ue170006INS_16reverse_iteratorIPPN7doctest13IContextScopeEEES6_NS_18__unwrap_iter_implIS6_Lb0EEEEET_S9_T0_, symObjAddr: 0x289AC, symBinAddr: 0x10003C438, symSize: 0x74 }
  - { offsetInCU: 0x300C4, offset: 0x636EF, size: 0x8, addend: 0x0, symName: __ZNSt3__1neB8ue170006IPPN7doctest13IContextScopeES4_EEbRKNS_16reverse_iteratorIT_EERKNS5_IT0_EE, symObjAddr: 0x28A20, symBinAddr: 0x10003C4AC, symSize: 0x48 }
  - { offsetInCU: 0x3017C, offset: 0x637A7, size: 0x8, addend: 0x0, symName: __ZNSt3__119__allocate_at_leastB8ue170006INS_9allocatorIN7doctest6StringEEEEENS_19__allocation_resultINS_16allocator_traitsIT_E7pointerEEERS7_m, symObjAddr: 0x29518, symBinAddr: 0x10003CFA4, symSize: 0x40 }
  - { offsetInCU: 0x301BE, offset: 0x637E9, size: 0x8, addend: 0x0, symName: __ZNSt3__142__uninitialized_allocator_move_if_noexceptB8ue170006INS_9allocatorIN7doctest6StringEEENS_16reverse_iteratorIPS3_EES7_S7_EET2_RT_T0_T1_S8_, symObjAddr: 0x296D0, symBinAddr: 0x10003D15C, symSize: 0x12C }
  - { offsetInCU: 0x3025F, offset: 0x6388A, size: 0x8, addend: 0x0, symName: __ZNSt3__14swapB8ue170006IPN7doctest6StringEEENS_9enable_ifIXaasr21is_move_constructibleIT_EE5valuesr18is_move_assignableIS5_EE5valueEvE4typeERS5_S8_, symObjAddr: 0x29848, symBinAddr: 0x10003D2D4, symSize: 0x3C }
  - { offsetInCU: 0x302B0, offset: 0x638DB, size: 0x8, addend: 0x0, symName: __ZNSt3__122__make_exception_guardB8ue170006INS_29_AllocatorDestroyRangeReverseINS_9allocatorIN7doctest6StringEEENS_16reverse_iteratorIPS4_EEEEEENS_28__exception_guard_exceptionsIT_EESB_, symObjAddr: 0x2994C, symBinAddr: 0x10003D3D8, symSize: 0x4C }
  - { offsetInCU: 0x302E6, offset: 0x63911, size: 0x8, addend: 0x0, symName: __ZNSt3__1neB8ue170006IPN7doctest6StringES3_EEbRKNS_16reverse_iteratorIT_EERKNS4_IT0_EE, symObjAddr: 0x299DC, symBinAddr: 0x10003D468, symSize: 0x48 }
  - { offsetInCU: 0x30332, offset: 0x6395D, size: 0x8, addend: 0x0, symName: __ZNSt3__112__to_addressB8ue170006INS_16reverse_iteratorIPN7doctest6StringEEEvEEu7__decayIDTclsr19__to_address_helperIT_EE6__callclsr3stdE7declvalIRKS6_EEEEES8_, symObjAddr: 0x29A24, symBinAddr: 0x10003D4B0, symSize: 0x24 }
  - { offsetInCU: 0x30390, offset: 0x639BB, size: 0x8, addend: 0x0, symName: __ZNSt3__119__allocator_destroyB8ue170006INS_9allocatorIN7doctest6StringEEENS_16reverse_iteratorINS5_IPS3_EEEES8_EEvRT_T0_T1_, symObjAddr: 0x29CD4, symBinAddr: 0x10003D760, symSize: 0x70 }
  - { offsetInCU: 0x303F6, offset: 0x63A21, size: 0x8, addend: 0x0, symName: __ZNSt3__1neB8ue170006INS_16reverse_iteratorIPN7doctest6StringEEES5_EEbRKNS1_IT_EERKNS1_IT0_EE, symObjAddr: 0x29D80, symBinAddr: 0x10003D80C, symSize: 0x60 }
  - { offsetInCU: 0x30442, offset: 0x63A6D, size: 0x8, addend: 0x0, symName: __ZNSt3__112__to_addressB8ue170006INS_16reverse_iteratorINS1_IPN7doctest6StringEEEEEvEEu7__decayIDTclsr19__to_address_helperIT_EE6__callclsr3stdE7declvalIRKS7_EEEEES9_, symObjAddr: 0x29DE0, symBinAddr: 0x10003D86C, symSize: 0x24 }
  - { offsetInCU: 0x304A0, offset: 0x63ACB, size: 0x8, addend: 0x0, symName: __ZNSt3__1neB8ue170006ERKNS_15__tree_iteratorINS_12__value_typeINS_4pairIiN7doctest6StringEEEPFPNS3_9IReporterERKNS3_14ContextOptionsEEEEPNS_11__tree_nodeISD_PvEElEESK_, symObjAddr: 0x2A358, symBinAddr: 0x10003DDE4, symSize: 0x34 }
  - { offsetInCU: 0x304DD, offset: 0x63B08, size: 0x8, addend: 0x0, symName: __ZNSt3__1eqB8ue170006ERKNS_15__tree_iteratorINS_12__value_typeINS_4pairIiN7doctest6StringEEEPFPNS3_9IReporterERKNS3_14ContextOptionsEEEEPNS_11__tree_nodeISD_PvEElEESK_, symObjAddr: 0x2A38C, symBinAddr: 0x10003DE18, symSize: 0x30 }
  - { offsetInCU: 0x3051C, offset: 0x63B47, size: 0x8, addend: 0x0, symName: __ZNSt3__116__tree_next_iterB8ue170006IPNS_15__tree_end_nodeIPNS_16__tree_node_baseIPvEEEES5_EET_T0_, symObjAddr: 0x2A3F4, symBinAddr: 0x10003DE80, symSize: 0x80 }
  - { offsetInCU: 0x3055A, offset: 0x63B85, size: 0x8, addend: 0x0, symName: __ZNSt3__110__tree_minB8ue170006IPNS_16__tree_node_baseIPvEEEET_S5_, symObjAddr: 0x2A474, symBinAddr: 0x10003DF00, symSize: 0x40 }
  - { offsetInCU: 0x305C1, offset: 0x63BEC, size: 0x8, addend: 0x0, symName: __ZNSt3__1lsB8ue170006INS_11char_traitsIcEEEERNS_13basic_ostreamIcT_EES6_c, symObjAddr: 0x2D164, symBinAddr: 0x100040BF0, symSize: 0x34 }
  - { offsetInCU: 0x30608, offset: 0x63C33, size: 0x8, addend: 0x0, symName: __ZNSt3__112__to_addressB8ue170006INS_12basic_stringIcNS_11char_traitsIcEENS_9allocatorIcEEEEEEPT_S8_, symObjAddr: 0x2D514, symBinAddr: 0x100040EF0, symSize: 0x14 }
  - { offsetInCU: 0x3063D, offset: 0x63C68, size: 0x8, addend: 0x0, symName: __ZNSt3__119__allocate_at_leastB8ue170006INS_9allocatorINS_12basic_stringIcNS_11char_traitsIcEENS1_IcEEEEEEEENS_19__allocation_resultINS_16allocator_traitsIT_E7pointerEEERSA_m, symObjAddr: 0x2DB58, symBinAddr: 0x100041534, symSize: 0x40 }
  - { offsetInCU: 0x3067F, offset: 0x63CAA, size: 0x8, addend: 0x0, symName: __ZNSt3__142__uninitialized_allocator_move_if_noexceptB8ue170006INS_9allocatorINS_12basic_stringIcNS_11char_traitsIcEENS1_IcEEEEEENS_16reverse_iteratorIPS6_EESA_SA_EET2_RT_T0_T1_SB_, symObjAddr: 0x2DDE4, symBinAddr: 0x1000417C0, symSize: 0x12C }
  - { offsetInCU: 0x30720, offset: 0x63D4B, size: 0x8, addend: 0x0, symName: __ZNSt3__14swapB8ue170006IPNS_12basic_stringIcNS_11char_traitsIcEENS_9allocatorIcEEEEEENS_9enable_ifIXaasr21is_move_constructibleIT_EE5valuesr18is_move_assignableIS9_EE5valueEvE4typeERS9_SC_, symObjAddr: 0x2DF5C, symBinAddr: 0x100041938, symSize: 0x3C }
  - { offsetInCU: 0x30771, offset: 0x63D9C, size: 0x8, addend: 0x0, symName: __ZNSt3__122__make_exception_guardB8ue170006INS_29_AllocatorDestroyRangeReverseINS_9allocatorINS_12basic_stringIcNS_11char_traitsIcEENS2_IcEEEEEENS_16reverse_iteratorIPS7_EEEEEENS_28__exception_guard_exceptionsIT_EESE_, symObjAddr: 0x2E0A8, symBinAddr: 0x100041A84, symSize: 0x4C }
  - { offsetInCU: 0x307A7, offset: 0x63DD2, size: 0x8, addend: 0x0, symName: __ZNSt3__1neB8ue170006IPNS_12basic_stringIcNS_11char_traitsIcEENS_9allocatorIcEEEES7_EEbRKNS_16reverse_iteratorIT_EERKNS8_IT0_EE, symObjAddr: 0x2E138, symBinAddr: 0x100041B14, symSize: 0x48 }
  - { offsetInCU: 0x307F3, offset: 0x63E1E, size: 0x8, addend: 0x0, symName: __ZNSt3__112__to_addressB8ue170006INS_16reverse_iteratorIPNS_12basic_stringIcNS_11char_traitsIcEENS_9allocatorIcEEEEEEvEEu7__decayIDTclsr19__to_address_helperIT_EE6__callclsr3stdE7declvalIRKSA_EEEEESC_, symObjAddr: 0x2E1B4, symBinAddr: 0x100041B90, symSize: 0x24 }
  - { offsetInCU: 0x30851, offset: 0x63E7C, size: 0x8, addend: 0x0, symName: __ZNSt3__119__allocator_destroyB8ue170006INS_9allocatorINS_12basic_stringIcNS_11char_traitsIcEENS1_IcEEEEEENS_16reverse_iteratorINS8_IPS6_EEEESB_EEvRT_T0_T1_, symObjAddr: 0x2E494, symBinAddr: 0x100041E70, symSize: 0x70 }
  - { offsetInCU: 0x308B7, offset: 0x63EE2, size: 0x8, addend: 0x0, symName: __ZNSt3__1neB8ue170006INS_16reverse_iteratorIPNS_12basic_stringIcNS_11char_traitsIcEENS_9allocatorIcEEEEEES9_EEbRKNS1_IT_EERKNS1_IT0_EE, symObjAddr: 0x2E540, symBinAddr: 0x100041F1C, symSize: 0x60 }
  - { offsetInCU: 0x30903, offset: 0x63F2E, size: 0x8, addend: 0x0, symName: __ZNSt3__112__to_addressB8ue170006INS_16reverse_iteratorINS1_IPNS_12basic_stringIcNS_11char_traitsIcEENS_9allocatorIcEEEEEEEEvEEu7__decayIDTclsr19__to_address_helperIT_EE6__callclsr3stdE7declvalIRKSB_EEEEESD_, symObjAddr: 0x2E5CC, symBinAddr: 0x100041FA8, symSize: 0x24 }
  - { offsetInCU: 0x30961, offset: 0x63F8C, size: 0x8, addend: 0x0, symName: __ZNSt3__1lsB8ue170006INS_11char_traitsIcEEEERNS_13basic_ostreamIcT_EES6_h, symObjAddr: 0x2F198, symBinAddr: 0x100042B74, symSize: 0x34 }
  - { offsetInCU: 0x309A7, offset: 0x63FD2, size: 0x8, addend: 0x0, symName: __ZNSt3__1lsB8ue170006IcNS_11char_traitsIcEEEERNS_13basic_ostreamIT_T0_EES7_RKNS_8__iom_t6E, symObjAddr: 0x2F438, symBinAddr: 0x100042E14, symSize: 0x40 }
  - { offsetInCU: 0x309F7, offset: 0x64022, size: 0x8, addend: 0x0, symName: __ZNSt3__1lsB8ue170006INS_11char_traitsIcEEEERNS_13basic_ostreamIcT_EES6_RKNS_8__iom_t4IcEE, symObjAddr: 0x2F478, symBinAddr: 0x100042E54, symSize: 0x40 }
  - { offsetInCU: 0x30A39, offset: 0x64064, size: 0x8, addend: 0x0, symName: __ZNSt3__19uppercaseB8ue170006ERNS_8ios_baseE, symObjAddr: 0x2F4F8, symBinAddr: 0x100042ED4, symSize: 0x2C }
  - { offsetInCU: 0x30A67, offset: 0x64092, size: 0x8, addend: 0x0, symName: __ZNSt3__13hexB8ue170006ERNS_8ios_baseE, symObjAddr: 0x2F524, symBinAddr: 0x100042F00, symSize: 0x30 }
  - { offsetInCU: 0x30A96, offset: 0x640C1, size: 0x8, addend: 0x0, symName: __ZNSt3__17setfillB8ue170006IcEENS_8__iom_t4IT_EES2_, symObjAddr: 0x2F554, symBinAddr: 0x100042F30, symSize: 0x2C }
  - { offsetInCU: 0x30ACA, offset: 0x640F5, size: 0x8, addend: 0x0, symName: __ZNSt3__14setwB8ue170006Ei, symObjAddr: 0x2F580, symBinAddr: 0x100042F5C, symSize: 0x2C }
  - { offsetInCU: 0x30BA0, offset: 0x641CB, size: 0x8, addend: 0x0, symName: __ZNSt3__1neB8ue170006IPN7doctest12_GLOBAL__N_113JUnitReporter17JUnitTestCaseData13JUnitTestCaseEEEbRKNS_11__wrap_iterIT_EESB_, symObjAddr: 0x32288, symBinAddr: 0x100045A04, symSize: 0x34 }
  - { offsetInCU: 0x30BE4, offset: 0x6420F, size: 0x8, addend: 0x0, symName: __ZNSt3__1neB8ue170006IPKN7doctest12_GLOBAL__N_113JUnitReporter17JUnitTestCaseData16JUnitTestMessageEEEbRKNS_11__wrap_iterIT_EESC_, symObjAddr: 0x32334, symBinAddr: 0x100045AB0, symSize: 0x34 }
  - { offsetInCU: 0x30C28, offset: 0x64253, size: 0x8, addend: 0x0, symName: __ZNSt3__1eqB8ue170006IPN7doctest12_GLOBAL__N_113JUnitReporter17JUnitTestCaseData13JUnitTestCaseEEEbRKNS_11__wrap_iterIT_EESB_, symObjAddr: 0x32484, symBinAddr: 0x100045C00, symSize: 0x48 }
  - { offsetInCU: 0x30C6C, offset: 0x64297, size: 0x8, addend: 0x0, symName: __ZNSt3__1eqB8ue170006IPKN7doctest12_GLOBAL__N_113JUnitReporter17JUnitTestCaseData16JUnitTestMessageEEEbRKNS_11__wrap_iterIT_EESC_, symObjAddr: 0x32568, symBinAddr: 0x100045CE4, symSize: 0x48 }
  - { offsetInCU: 0x30CB0, offset: 0x642DB, size: 0x8, addend: 0x0, symName: __ZNSt3__112__to_addressB8ue170006IN7doctest12_GLOBAL__N_113JUnitReporter17JUnitTestCaseData13JUnitTestCaseEEEPT_S7_, symObjAddr: 0x328EC, symBinAddr: 0x100046068, symSize: 0x14 }
  - { offsetInCU: 0x30CE6, offset: 0x64311, size: 0x8, addend: 0x0, symName: __ZNSt3__119__allocate_at_leastB8ue170006INS_9allocatorIN7doctest12_GLOBAL__N_113JUnitReporter17JUnitTestCaseData13JUnitTestCaseEEEEENS_19__allocation_resultINS_16allocator_traitsIT_E7pointerEEERSA_m, symObjAddr: 0x33188, symBinAddr: 0x100046904, symSize: 0x40 }
  - { offsetInCU: 0x30D29, offset: 0x64354, size: 0x8, addend: 0x0, symName: __ZNSt3__142__uninitialized_allocator_move_if_noexceptB8ue170006INS_9allocatorIN7doctest12_GLOBAL__N_113JUnitReporter17JUnitTestCaseData13JUnitTestCaseEEENS_16reverse_iteratorIPS6_EESA_SA_EET2_RT_T0_T1_SB_, symObjAddr: 0x33414, symBinAddr: 0x100046B90, symSize: 0x12C }
  - { offsetInCU: 0x30DCB, offset: 0x643F6, size: 0x8, addend: 0x0, symName: __ZNSt3__14swapB8ue170006IPN7doctest12_GLOBAL__N_113JUnitReporter17JUnitTestCaseData13JUnitTestCaseEEENS_9enable_ifIXaasr21is_move_constructibleIT_EE5valuesr18is_move_assignableIS8_EE5valueEvE4typeERS8_SB_, symObjAddr: 0x3358C, symBinAddr: 0x100046D08, symSize: 0x3C }
  - { offsetInCU: 0x30E1D, offset: 0x64448, size: 0x8, addend: 0x0, symName: __ZNSt3__122__make_exception_guardB8ue170006INS_29_AllocatorDestroyRangeReverseINS_9allocatorIN7doctest12_GLOBAL__N_113JUnitReporter17JUnitTestCaseData13JUnitTestCaseEEENS_16reverse_iteratorIPS7_EEEEEENS_28__exception_guard_exceptionsIT_EESE_, symObjAddr: 0x336D8, symBinAddr: 0x100046E54, symSize: 0x4C }
  - { offsetInCU: 0x30E54, offset: 0x6447F, size: 0x8, addend: 0x0, symName: __ZNSt3__1neB8ue170006IPN7doctest12_GLOBAL__N_113JUnitReporter17JUnitTestCaseData13JUnitTestCaseES6_EEbRKNS_16reverse_iteratorIT_EERKNS7_IT0_EE, symObjAddr: 0x33768, symBinAddr: 0x100046EE4, symSize: 0x48 }
  - { offsetInCU: 0x30EA1, offset: 0x644CC, size: 0x8, addend: 0x0, symName: __ZNSt3__112__to_addressB8ue170006INS_16reverse_iteratorIPN7doctest12_GLOBAL__N_113JUnitReporter17JUnitTestCaseData13JUnitTestCaseEEEvEEu7__decayIDTclsr19__to_address_helperIT_EE6__callclsr3stdE7declvalIRKS9_EEEEESB_, symObjAddr: 0x337E4, symBinAddr: 0x100046F60, symSize: 0x24 }
  - { offsetInCU: 0x30F01, offset: 0x6452C, size: 0x8, addend: 0x0, symName: __ZNSt3__119__allocator_destroyB8ue170006INS_9allocatorIN7doctest12_GLOBAL__N_113JUnitReporter17JUnitTestCaseData13JUnitTestCaseEEENS_16reverse_iteratorINS8_IPS6_EEEESB_EEvRT_T0_T1_, symObjAddr: 0x33DC4, symBinAddr: 0x100047540, symSize: 0x70 }
  - { offsetInCU: 0x30F68, offset: 0x64593, size: 0x8, addend: 0x0, symName: __ZNSt3__1neB8ue170006INS_16reverse_iteratorIPN7doctest12_GLOBAL__N_113JUnitReporter17JUnitTestCaseData13JUnitTestCaseEEES8_EEbRKNS1_IT_EERKNS1_IT0_EE, symObjAddr: 0x33E70, symBinAddr: 0x1000475EC, symSize: 0x60 }
  - { offsetInCU: 0x30FB5, offset: 0x645E0, size: 0x8, addend: 0x0, symName: __ZNSt3__112__to_addressB8ue170006INS_16reverse_iteratorINS1_IPN7doctest12_GLOBAL__N_113JUnitReporter17JUnitTestCaseData13JUnitTestCaseEEEEEvEEu7__decayIDTclsr19__to_address_helperIT_EE6__callclsr3stdE7declvalIRKSA_EEEEESC_, symObjAddr: 0x33EFC, symBinAddr: 0x100047678, symSize: 0x24 }
  - { offsetInCU: 0x30FEC, offset: 0x64617, size: 0x8, addend: 0x0, symName: __ZNSt3__112__to_addressB8ue170006IN7doctest12_GLOBAL__N_113JUnitReporter17JUnitTestCaseData16JUnitTestMessageEEEPT_S7_, symObjAddr: 0x34394, symBinAddr: 0x100047B10, symSize: 0x14 }
  - { offsetInCU: 0x3104C, offset: 0x64677, size: 0x8, addend: 0x0, symName: __ZNSt3__1neB8ue170006IPN7doctest6StringEEEbRKNS_11__wrap_iterIT_EES8_, symObjAddr: 0x34B14, symBinAddr: 0x100048290, symSize: 0x34 }
  - { offsetInCU: 0x3108F, offset: 0x646BA, size: 0x8, addend: 0x0, symName: __ZNSt3__1eqB8ue170006IPN7doctest6StringEEEbRKNS_11__wrap_iterIT_EES8_, symObjAddr: 0x34C70, symBinAddr: 0x100048380, symSize: 0x48 }
  - { offsetInCU: 0x310D2, offset: 0x646FD, size: 0x8, addend: 0x0, symName: __ZNSt3__122__make_exception_guardB8ue170006INS_6vectorIN7doctest6StringENS_9allocatorIS3_EEE16__destroy_vectorEEENS_28__exception_guard_exceptionsIT_EES9_, symObjAddr: 0x34F10, symBinAddr: 0x1000485D4, symSize: 0x40 }
  - { offsetInCU: 0x31106, offset: 0x64731, size: 0x8, addend: 0x0, symName: __ZNSt3__130__uninitialized_allocator_copyB8ue170006INS_9allocatorIN7doctest6StringEEEPS3_S5_S5_EET2_RT_T0_T1_S6_, symObjAddr: 0x35130, symBinAddr: 0x1000487F4, symSize: 0x80 }
  - { offsetInCU: 0x311A4, offset: 0x647CF, size: 0x8, addend: 0x0, symName: __ZNSt3__114__unwrap_rangeB8ue170006IPN7doctest6StringES3_EENS_4pairIT0_S5_EET_S7_, symObjAddr: 0x351B0, symBinAddr: 0x100048874, symSize: 0x60 }
  - { offsetInCU: 0x311EF, offset: 0x6481A, size: 0x8, addend: 0x0, symName: __ZNSt3__135__uninitialized_allocator_copy_implB8ue170006INS_9allocatorIN7doctest6StringEEEPS3_S5_S5_EET2_RT_T0_T1_S6_, symObjAddr: 0x35210, symBinAddr: 0x1000488D4, symSize: 0xF4 }
  - { offsetInCU: 0x3128E, offset: 0x648B9, size: 0x8, addend: 0x0, symName: __ZNSt3__113__unwrap_iterB8ue170006IPN7doctest6StringENS_18__unwrap_iter_implIS3_Lb1EEELi0EEEDTclsrT0_8__unwrapclsr3stdE7declvalIT_EEEES7_, symObjAddr: 0x35304, symBinAddr: 0x1000489C8, symSize: 0x24 }
  - { offsetInCU: 0x312D2, offset: 0x648FD, size: 0x8, addend: 0x0, symName: __ZNSt3__113__rewrap_iterB8ue170006IPN7doctest6StringES3_NS_18__unwrap_iter_implIS3_Lb1EEEEET_S6_T0_, symObjAddr: 0x35328, symBinAddr: 0x1000489EC, symSize: 0x3C }
  - { offsetInCU: 0x31326, offset: 0x64951, size: 0x8, addend: 0x0, symName: __ZNSt3__19make_pairB8ue170006IPN7doctest6StringES3_EENS_4pairINS_18__unwrap_ref_decayIT_E4typeENS5_IT0_E4typeEEEOS6_OS9_, symObjAddr: 0x35364, symBinAddr: 0x100048A28, symSize: 0x38 }
  - { offsetInCU: 0x3144A, offset: 0x64A75, size: 0x8, addend: 0x0, symName: __ZNSt3__122__make_exception_guardB8ue170006INS_29_AllocatorDestroyRangeReverseINS_9allocatorIN7doctest6StringEEEPS4_EEEENS_28__exception_guard_exceptionsIT_EES9_, symObjAddr: 0x3540C, symBinAddr: 0x100048AD0, symSize: 0x4C }
  - { offsetInCU: 0x3147F, offset: 0x64AAA, size: 0x8, addend: 0x0, symName: __ZNSt3__119__allocator_destroyB8ue170006INS_9allocatorIN7doctest6StringEEENS_16reverse_iteratorIPS3_EES7_EEvRT_T0_T1_, symObjAddr: 0x3569C, symBinAddr: 0x100048D60, symSize: 0x70 }
  - { offsetInCU: 0x31536, offset: 0x64B61, size: 0x8, addend: 0x0, symName: __ZNSt3__119__allocate_at_leastB8ue170006INS_9allocatorIN7doctest12_GLOBAL__N_113JUnitReporter17JUnitTestCaseData16JUnitTestMessageEEEEENS_19__allocation_resultINS_16allocator_traitsIT_E7pointerEEERSA_m, symObjAddr: 0x3608C, symBinAddr: 0x100049750, symSize: 0x40 }
  - { offsetInCU: 0x31579, offset: 0x64BA4, size: 0x8, addend: 0x0, symName: __ZNSt3__142__uninitialized_allocator_move_if_noexceptB8ue170006INS_9allocatorIN7doctest12_GLOBAL__N_113JUnitReporter17JUnitTestCaseData16JUnitTestMessageEEENS_16reverse_iteratorIPS6_EESA_SA_EET2_RT_T0_T1_SB_, symObjAddr: 0x36244, symBinAddr: 0x100049908, symSize: 0x12C }
  - { offsetInCU: 0x3161B, offset: 0x64C46, size: 0x8, addend: 0x0, symName: __ZNSt3__14swapB8ue170006IPN7doctest12_GLOBAL__N_113JUnitReporter17JUnitTestCaseData16JUnitTestMessageEEENS_9enable_ifIXaasr21is_move_constructibleIT_EE5valuesr18is_move_assignableIS8_EE5valueEvE4typeERS8_SB_, symObjAddr: 0x363BC, symBinAddr: 0x100049A80, symSize: 0x3C }
  - { offsetInCU: 0x3166D, offset: 0x64C98, size: 0x8, addend: 0x0, symName: __ZNSt3__122__make_exception_guardB8ue170006INS_29_AllocatorDestroyRangeReverseINS_9allocatorIN7doctest12_GLOBAL__N_113JUnitReporter17JUnitTestCaseData16JUnitTestMessageEEENS_16reverse_iteratorIPS7_EEEEEENS_28__exception_guard_exceptionsIT_EESE_, symObjAddr: 0x364C0, symBinAddr: 0x100049B84, symSize: 0x4C }
  - { offsetInCU: 0x316A4, offset: 0x64CCF, size: 0x8, addend: 0x0, symName: __ZNSt3__1neB8ue170006IPN7doctest12_GLOBAL__N_113JUnitReporter17JUnitTestCaseData16JUnitTestMessageES6_EEbRKNS_16reverse_iteratorIT_EERKNS7_IT0_EE, symObjAddr: 0x36550, symBinAddr: 0x100049C14, symSize: 0x48 }
  - { offsetInCU: 0x316F1, offset: 0x64D1C, size: 0x8, addend: 0x0, symName: __ZNSt3__112__to_addressB8ue170006INS_16reverse_iteratorIPN7doctest12_GLOBAL__N_113JUnitReporter17JUnitTestCaseData16JUnitTestMessageEEEvEEu7__decayIDTclsr19__to_address_helperIT_EE6__callclsr3stdE7declvalIRKS9_EEEEESB_, symObjAddr: 0x365CC, symBinAddr: 0x100049C90, symSize: 0x24 }
  - { offsetInCU: 0x31751, offset: 0x64D7C, size: 0x8, addend: 0x0, symName: __ZNSt3__119__allocator_destroyB8ue170006INS_9allocatorIN7doctest12_GLOBAL__N_113JUnitReporter17JUnitTestCaseData16JUnitTestMessageEEENS_16reverse_iteratorINS8_IPS6_EEEESB_EEvRT_T0_T1_, symObjAddr: 0x3693C, symBinAddr: 0x10004A000, symSize: 0x70 }
  - { offsetInCU: 0x317B8, offset: 0x64DE3, size: 0x8, addend: 0x0, symName: __ZNSt3__1neB8ue170006INS_16reverse_iteratorIPN7doctest12_GLOBAL__N_113JUnitReporter17JUnitTestCaseData16JUnitTestMessageEEES8_EEbRKNS1_IT_EERKNS1_IT0_EE, symObjAddr: 0x369E8, symBinAddr: 0x10004A0AC, symSize: 0x60 }
  - { offsetInCU: 0x31805, offset: 0x64E30, size: 0x8, addend: 0x0, symName: __ZNSt3__112__to_addressB8ue170006INS_16reverse_iteratorINS1_IPN7doctest12_GLOBAL__N_113JUnitReporter17JUnitTestCaseData16JUnitTestMessageEEEEEvEEu7__decayIDTclsr19__to_address_helperIT_EE6__callclsr3stdE7declvalIRKSA_EEEEESC_, symObjAddr: 0x36A48, symBinAddr: 0x10004A10C, symSize: 0x24 }
  - { offsetInCU: 0x31865, offset: 0x64E90, size: 0x8, addend: 0x0, symName: __ZNSt3__1neB8ue170006ERKNS_20__map_const_iteratorINS_21__tree_const_iteratorINS_12__value_typeINS_4pairIiN7doctest6StringEEEPFPNS4_9IReporterERKNS4_14ContextOptionsEEEEPNS_11__tree_nodeISE_PvEElEEEESM_, symObjAddr: 0x3A478, symBinAddr: 0x10004DB3C, symSize: 0x30 }
  - { offsetInCU: 0x318A2, offset: 0x64ECD, size: 0x8, addend: 0x0, symName: __ZNSt3__1neB8ue170006ERKNS_21__tree_const_iteratorINS_12__value_typeINS_4pairIiN7doctest6StringEEEPFPNS3_9IReporterERKNS3_14ContextOptionsEEEEPNS_11__tree_nodeISD_PvEElEESK_, symObjAddr: 0x3A66C, symBinAddr: 0x10004DD30, symSize: 0x34 }
  - { offsetInCU: 0x318DF, offset: 0x64F0A, size: 0x8, addend: 0x0, symName: __ZNSt3__1eqB8ue170006ERKNS_21__tree_const_iteratorINS_12__value_typeINS_4pairIiN7doctest6StringEEEPFPNS3_9IReporterERKNS3_14ContextOptionsEEEEPNS_11__tree_nodeISD_PvEElEESK_, symObjAddr: 0x3A6A0, symBinAddr: 0x10004DD64, symSize: 0x30 }
  - { offsetInCU: 0x31950, offset: 0x64F7B, size: 0x8, addend: 0x0, symName: __ZNSt3__13decB8ue170006ERNS_8ios_baseE, symObjAddr: 0x3A7EC, symBinAddr: 0x10004DEB0, symSize: 0x30 }
  - { offsetInCU: 0x3197F, offset: 0x64FAA, size: 0x8, addend: 0x0, symName: __ZNSt3__13maxB8ue170006IjEERKT_S3_S3_, symObjAddr: 0x3A848, symBinAddr: 0x10004DF0C, symSize: 0x2C }
  - { offsetInCU: 0x319C2, offset: 0x64FED, size: 0x8, addend: 0x0, symName: __ZNSt3__13maxB8ue170006IjNS_6__lessIvvEEEERKT_S5_S5_T0_, symObjAddr: 0x3A874, symBinAddr: 0x10004DF38, symSize: 0x54 }
  - { offsetInCU: 0x31A1C, offset: 0x65047, size: 0x8, addend: 0x0, symName: __ZNSt3__1lsB8ue170006IcNS_11char_traitsIcEEEERNS_13basic_ostreamIT_T0_EES7_RKNS_8__iom_t5E, symObjAddr: 0x3AC5C, symBinAddr: 0x10004E320, symSize: 0x40 }
  - { offsetInCU: 0x31A68, offset: 0x65093, size: 0x8, addend: 0x0, symName: __ZNSt3__112setprecisionB8ue170006Ei, symObjAddr: 0x3AC9C, symBinAddr: 0x10004E360, symSize: 0x2C }
  - { offsetInCU: 0x31A93, offset: 0x650BE, size: 0x8, addend: 0x0, symName: __ZNSt3__15fixedB8ue170006ERNS_8ios_baseE, symObjAddr: 0x3ACC8, symBinAddr: 0x10004E38C, symSize: 0x30 }
  - { offsetInCU: 0x31AC2, offset: 0x650ED, size: 0x8, addend: 0x0, symName: __ZNSt3__119__allocate_at_leastB8ue170006INS_9allocatorIPN7doctest9IReporterEEEEENS_19__allocation_resultINS_16allocator_traitsIT_E7pointerEEERS8_m, symObjAddr: 0x3B830, symBinAddr: 0x10004EEF4, symSize: 0x40 }
  - { offsetInCU: 0x31B04, offset: 0x6512F, size: 0x8, addend: 0x0, symName: __ZNSt3__142__uninitialized_allocator_move_if_noexceptB8ue170006INS_9allocatorIPN7doctest9IReporterEEENS_16reverse_iteratorIPS4_EES8_S4_vEET1_RT_T0_SC_S9_, symObjAddr: 0x3B9E4, symBinAddr: 0x10004F0A8, symSize: 0x78 }
  - { offsetInCU: 0x31B83, offset: 0x651AE, size: 0x8, addend: 0x0, symName: __ZNSt3__14swapB8ue170006IPPN7doctest9IReporterEEENS_9enable_ifIXaasr21is_move_constructibleIT_EE5valuesr18is_move_assignableIS6_EE5valueEvE4typeERS6_S9_, symObjAddr: 0x3BAA8, symBinAddr: 0x10004F16C, symSize: 0x3C }
  - { offsetInCU: 0x31BD4, offset: 0x651FF, size: 0x8, addend: 0x0, symName: __ZNSt3__14moveB8ue170006INS_16reverse_iteratorIPPN7doctest9IReporterEEES6_EET0_T_S8_S7_, symObjAddr: 0x3BB90, symBinAddr: 0x10004F254, symSize: 0x78 }
  - { offsetInCU: 0x31C2E, offset: 0x65259, size: 0x8, addend: 0x0, symName: __ZNSt3__16__moveB8ue170006INS_17_ClassicAlgPolicyENS_16reverse_iteratorIPPN7doctest9IReporterEEES7_S7_EENS_4pairIT0_T2_EES9_T1_SA_, symObjAddr: 0x3BC08, symBinAddr: 0x10004F2CC, symSize: 0x64 }
  - { offsetInCU: 0x31C9A, offset: 0x652C5, size: 0x8, addend: 0x0, symName: __ZNSt3__123__dispatch_copy_or_moveB8ue170006INS_17_ClassicAlgPolicyENS_11__move_loopIS1_EENS_14__move_trivialENS_16reverse_iteratorIPPN7doctest9IReporterEEESA_SA_EENS_4pairIT2_T4_EESC_T3_SD_, symObjAddr: 0x3BC6C, symBinAddr: 0x10004F330, symSize: 0x64 }
  - { offsetInCU: 0x31D18, offset: 0x65343, size: 0x8, addend: 0x0, symName: __ZNSt3__121__unwrap_and_dispatchB8ue170006INS_10__overloadINS_11__move_loopINS_17_ClassicAlgPolicyEEENS_14__move_trivialEEENS_16reverse_iteratorIPPN7doctest9IReporterEEESC_SC_Li0EEENS_4pairIT0_T2_EESE_T1_SF_, symObjAddr: 0x3BCD0, symBinAddr: 0x10004F394, symSize: 0x12C }
  - { offsetInCU: 0x31DA8, offset: 0x653D3, size: 0x8, addend: 0x0, symName: __ZNSt3__114__unwrap_rangeB8ue170006INS_16reverse_iteratorIPPN7doctest9IReporterEEES6_EENS_4pairIT0_S8_EET_SA_, symObjAddr: 0x3BDFC, symBinAddr: 0x10004F4C0, symSize: 0x84 }
  - { offsetInCU: 0x31EC8, offset: 0x654F3, size: 0x8, addend: 0x0, symName: __ZNSt3__113__unwrap_iterB8ue170006INS_16reverse_iteratorIPPN7doctest9IReporterEEENS_18__unwrap_iter_implIS6_Lb0EEELi0EEEDTclsrT0_8__unwrapclsr3stdE7declvalIT_EEEESA_, symObjAddr: 0x3BF20, symBinAddr: 0x10004F5E4, symSize: 0x44 }
  - { offsetInCU: 0x31F0B, offset: 0x65536, size: 0x8, addend: 0x0, symName: __ZNSt3__19make_pairB8ue170006INS_16reverse_iteratorIPPN7doctest9IReporterEEES6_EENS_4pairINS_18__unwrap_ref_decayIT_E4typeENS8_IT0_E4typeEEEOS9_OSC_, symObjAddr: 0x3BF64, symBinAddr: 0x10004F628, symSize: 0x38 }
  - { offsetInCU: 0x31F5B, offset: 0x65586, size: 0x8, addend: 0x0, symName: __ZNSt3__114__rewrap_rangeB8ue170006INS_16reverse_iteratorIPPN7doctest9IReporterEEES6_EET_S7_T0_, symObjAddr: 0x3BF9C, symBinAddr: 0x10004F660, symSize: 0x5C }
  - { offsetInCU: 0x31FA7, offset: 0x655D2, size: 0x8, addend: 0x0, symName: __ZNSt3__113__rewrap_iterB8ue170006INS_16reverse_iteratorIPPN7doctest9IReporterEEES6_NS_18__unwrap_iter_implIS6_Lb0EEEEET_S9_T0_, symObjAddr: 0x3BFF8, symBinAddr: 0x10004F6BC, symSize: 0x74 }
  - { offsetInCU: 0x31FFC, offset: 0x65627, size: 0x8, addend: 0x0, symName: __ZNSt3__1neB8ue170006IPPN7doctest9IReporterES4_EEbRKNS_16reverse_iteratorIT_EERKNS5_IT0_EE, symObjAddr: 0x3C06C, symBinAddr: 0x10004F730, symSize: 0x48 }
  - { offsetInCU: 0x320B4, offset: 0x656DF, size: 0x8, addend: 0x0, symName: __ZNSt3__1miB8ue170006IPKPN7doctest9IReporterEPS3_EEDTmicldtfp_4baseEcldtfp0_4baseEERKNS_11__wrap_iterIT_EERKNS8_IT0_EE, symObjAddr: 0x3C3FC, symBinAddr: 0x10004FAC0, symSize: 0x48 }
  - { offsetInCU: 0x32100, offset: 0x6572B, size: 0x8, addend: 0x0, symName: __ZNSt3__113move_backwardB8ue170006IPPN7doctest9IReporterES4_EET0_T_S6_S5_, symObjAddr: 0x3C934, symBinAddr: 0x10004FFF8, symSize: 0x40 }
  - { offsetInCU: 0x3215A, offset: 0x65785, size: 0x8, addend: 0x0, symName: __ZNSt3__115__move_backwardB8ue170006INS_17_ClassicAlgPolicyEPPN7doctest9IReporterES5_S5_EENS_4pairIT0_T2_EES7_T1_S8_, symObjAddr: 0x3C974, symBinAddr: 0x100050038, symSize: 0x44 }
  - { offsetInCU: 0x321C6, offset: 0x657F1, size: 0x8, addend: 0x0, symName: __ZNSt3__123__dispatch_copy_or_moveB8ue170006INS_17_ClassicAlgPolicyENS_20__move_backward_loopIS1_EENS_23__move_backward_trivialEPPN7doctest9IReporterES8_S8_EENS_4pairIT2_T4_EESA_T3_SB_, symObjAddr: 0x3C9B8, symBinAddr: 0x10005007C, symSize: 0x44 }
  - { offsetInCU: 0x32244, offset: 0x6586F, size: 0x8, addend: 0x0, symName: __ZNSt3__121__unwrap_and_dispatchB8ue170006INS_10__overloadINS_20__move_backward_loopINS_17_ClassicAlgPolicyEEENS_23__move_backward_trivialEEEPPN7doctest9IReporterESA_SA_Li0EEENS_4pairIT0_T2_EESC_T1_SD_, symObjAddr: 0x3C9FC, symBinAddr: 0x1000500C0, symSize: 0xB4 }
  - { offsetInCU: 0x322D2, offset: 0x658FD, size: 0x8, addend: 0x0, symName: __ZNSt3__114__unwrap_rangeB8ue170006IPPN7doctest9IReporterES4_EENS_4pairIT0_S6_EET_S8_, symObjAddr: 0x3CAB0, symBinAddr: 0x100050174, symSize: 0x60 }
  - { offsetInCU: 0x32496, offset: 0x65AC1, size: 0x8, addend: 0x0, symName: __ZNSt3__113__unwrap_iterB8ue170006IPPN7doctest9IReporterENS_18__unwrap_iter_implIS4_Lb1EEELi0EEEDTclsrT0_8__unwrapclsr3stdE7declvalIT_EEEES8_, symObjAddr: 0x3CB58, symBinAddr: 0x10005021C, symSize: 0x24 }
  - { offsetInCU: 0x324D9, offset: 0x65B04, size: 0x8, addend: 0x0, symName: __ZNSt3__19make_pairB8ue170006IPPN7doctest9IReporterES4_EENS_4pairINS_18__unwrap_ref_decayIT_E4typeENS6_IT0_E4typeEEEOS7_OSA_, symObjAddr: 0x3CB7C, symBinAddr: 0x100050240, symSize: 0x38 }
  - { offsetInCU: 0x32529, offset: 0x65B54, size: 0x8, addend: 0x0, symName: __ZNSt3__114__rewrap_rangeB8ue170006IPPN7doctest9IReporterES4_EET_S5_T0_, symObjAddr: 0x3CBB4, symBinAddr: 0x100050278, symSize: 0x2C }
  - { offsetInCU: 0x32575, offset: 0x65BA0, size: 0x8, addend: 0x0, symName: __ZNSt3__113__rewrap_iterB8ue170006IPPN7doctest9IReporterES4_NS_18__unwrap_iter_implIS4_Lb1EEEEET_S7_T0_, symObjAddr: 0x3CBE0, symBinAddr: 0x1000502A4, symSize: 0x3C }
  - { offsetInCU: 0x325CA, offset: 0x65BF5, size: 0x8, addend: 0x0, symName: __ZNSt3__128__copy_backward_trivial_implB8ue170006IPN7doctest9IReporterES3_EENS_4pairIPT_PT0_EES6_S6_S8_, symObjAddr: 0x3CC1C, symBinAddr: 0x1000502E0, symSize: 0x90 }
  - { offsetInCU: 0x32632, offset: 0x65C5D, size: 0x8, addend: 0x0, symName: __ZNSt3__119__constexpr_memmoveB8ue170006IPN7doctest9IReporterES3_Li0EEEPT_S5_PT0_NS_15__element_countE, symObjAddr: 0x3CCAC, symBinAddr: 0x100050370, symSize: 0x64 }
  - { offsetInCU: 0x3269F, offset: 0x65CCA, size: 0x8, addend: 0x0, symName: __ZNSt3__19make_pairB8ue170006IRPPN7doctest9IReporterES5_EENS_4pairINS_18__unwrap_ref_decayIT_E4typeENS7_IT0_E4typeEEEOS8_OSB_, symObjAddr: 0x3CD10, symBinAddr: 0x1000503D4, symSize: 0x38 }
  - { offsetInCU: 0x32742, offset: 0x65D6D, size: 0x8, addend: 0x0, symName: __ZNSt3__14moveB8ue170006IPPN7doctest9IReporterES4_EET0_T_S6_S5_, symObjAddr: 0x3CE9C, symBinAddr: 0x100050560, symSize: 0x40 }
  - { offsetInCU: 0x3279C, offset: 0x65DC7, size: 0x8, addend: 0x0, symName: __ZNSt3__16__moveB8ue170006INS_17_ClassicAlgPolicyEPPN7doctest9IReporterES5_S5_EENS_4pairIT0_T2_EES7_T1_S8_, symObjAddr: 0x3CF70, symBinAddr: 0x100050634, symSize: 0x44 }
  - { offsetInCU: 0x32808, offset: 0x65E33, size: 0x8, addend: 0x0, symName: __ZNSt3__123__dispatch_copy_or_moveB8ue170006INS_17_ClassicAlgPolicyENS_11__move_loopIS1_EENS_14__move_trivialEPPN7doctest9IReporterES8_S8_EENS_4pairIT2_T4_EESA_T3_SB_, symObjAddr: 0x3CFB4, symBinAddr: 0x100050678, symSize: 0x44 }
  - { offsetInCU: 0x32886, offset: 0x65EB1, size: 0x8, addend: 0x0, symName: __ZNSt3__121__unwrap_and_dispatchB8ue170006INS_10__overloadINS_11__move_loopINS_17_ClassicAlgPolicyEEENS_14__move_trivialEEEPPN7doctest9IReporterESA_SA_Li0EEENS_4pairIT0_T2_EESC_T1_SD_, symObjAddr: 0x3CFF8, symBinAddr: 0x1000506BC, symSize: 0xB4 }
  - { offsetInCU: 0x3295A, offset: 0x65F85, size: 0x8, addend: 0x0, symName: __ZNSt3__119__copy_trivial_implB8ue170006IPN7doctest9IReporterES3_EENS_4pairIPT_PT0_EES6_S6_S8_, symObjAddr: 0x3D0F4, symBinAddr: 0x1000507B8, symSize: 0x80 }
  - { offsetInCU: 0x329C1, offset: 0x65FEC, size: 0x8, addend: 0x0, symName: __ZNSt3__19make_pairB8ue170006IRPPN7doctest9IReporterES4_EENS_4pairINS_18__unwrap_ref_decayIT_E4typeENS7_IT0_E4typeEEEOS8_OSB_, symObjAddr: 0x3D174, symBinAddr: 0x100050838, symSize: 0x38 }
  - { offsetInCU: 0x32A11, offset: 0x6603C, size: 0x8, addend: 0x0, symName: __ZNSt3__18distanceB8ue170006INS_13move_iteratorIPPN7doctest9IReporterEEEEENS_15iterator_traitsIT_E15difference_typeES8_S8_, symObjAddr: 0x3D2F8, symBinAddr: 0x1000509BC, symSize: 0x3C }
  - { offsetInCU: 0x32A54, offset: 0x6607F, size: 0x8, addend: 0x0, symName: __ZNSt3__110__distanceB8ue170006INS_13move_iteratorIPPN7doctest9IReporterEEEEENS_15iterator_traitsIT_E15difference_typeES8_S8_NS_26random_access_iterator_tagE, symObjAddr: 0x3D438, symBinAddr: 0x100050AFC, symSize: 0x30 }
  - { offsetInCU: 0x32AA0, offset: 0x660CB, size: 0x8, addend: 0x0, symName: __ZNSt3__1miB8ue170006IPPN7doctest9IReporterES4_EEDTmicldtfp_4baseEcldtfp0_4baseEERKNS_13move_iteratorIT_EERKNS6_IT0_EE, symObjAddr: 0x3D468, symBinAddr: 0x100050B2C, symSize: 0x48 }
  - { offsetInCU: 0x32AEF, offset: 0x6611A, size: 0x8, addend: 0x0, symName: __ZNSt3__142__uninitialized_allocator_move_if_noexceptB8ue170006INS_9allocatorIPN7doctest9IReporterEEEPS4_S6_S4_vEET1_RT_T0_SA_S7_, symObjAddr: 0x3D4E8, symBinAddr: 0x100050BAC, symSize: 0x38 }
  - { offsetInCU: 0x32B6D, offset: 0x66198, size: 0x8, addend: 0x0, symName: __ZNSt3__112__to_addressB8ue170006IPKN7doctest6detail8TestCaseEEEPT_S7_, symObjAddr: 0x3DA0C, symBinAddr: 0x1000510D0, symSize: 0x14 }
  - { offsetInCU: 0x32BA1, offset: 0x661CC, size: 0x8, addend: 0x0, symName: __ZNSt3__1eqB8ue170006ERKNS_21__tree_const_iteratorIN7doctest6detail8TestCaseEPNS_11__tree_nodeIS3_PvEElEESA_, symObjAddr: 0x3DC10, symBinAddr: 0x1000512D4, symSize: 0x30 }
  - { offsetInCU: 0x32BE0, offset: 0x6620B, size: 0x8, addend: 0x0, symName: __ZNSt3__119__allocate_at_leastB8ue170006INS_9allocatorIPKN7doctest6detail8TestCaseEEEEENS_19__allocation_resultINS_16allocator_traitsIT_E7pointerEEERSA_m, symObjAddr: 0x3E3A0, symBinAddr: 0x100051A64, symSize: 0x40 }
  - { offsetInCU: 0x32C22, offset: 0x6624D, size: 0x8, addend: 0x0, symName: __ZNSt3__142__uninitialized_allocator_move_if_noexceptB8ue170006INS_9allocatorIPKN7doctest6detail8TestCaseEEENS_16reverse_iteratorIPS6_EESA_S6_vEET1_RT_T0_SE_SB_, symObjAddr: 0x3E554, symBinAddr: 0x100051C18, symSize: 0x78 }
  - { offsetInCU: 0x32CA1, offset: 0x662CC, size: 0x8, addend: 0x0, symName: __ZNSt3__14swapB8ue170006IPPKN7doctest6detail8TestCaseEEENS_9enable_ifIXaasr21is_move_constructibleIT_EE5valuesr18is_move_assignableIS8_EE5valueEvE4typeERS8_SB_, symObjAddr: 0x3E618, symBinAddr: 0x100051CDC, symSize: 0x3C }
  - { offsetInCU: 0x32CF2, offset: 0x6631D, size: 0x8, addend: 0x0, symName: __ZNSt3__14moveB8ue170006INS_16reverse_iteratorIPPKN7doctest6detail8TestCaseEEES8_EET0_T_SA_S9_, symObjAddr: 0x3E700, symBinAddr: 0x100051DC4, symSize: 0x78 }
  - { offsetInCU: 0x32D4C, offset: 0x66377, size: 0x8, addend: 0x0, symName: __ZNSt3__16__moveB8ue170006INS_17_ClassicAlgPolicyENS_16reverse_iteratorIPPKN7doctest6detail8TestCaseEEES9_S9_EENS_4pairIT0_T2_EESB_T1_SC_, symObjAddr: 0x3E778, symBinAddr: 0x100051E3C, symSize: 0x64 }
  - { offsetInCU: 0x32DB8, offset: 0x663E3, size: 0x8, addend: 0x0, symName: __ZNSt3__123__dispatch_copy_or_moveB8ue170006INS_17_ClassicAlgPolicyENS_11__move_loopIS1_EENS_14__move_trivialENS_16reverse_iteratorIPPKN7doctest6detail8TestCaseEEESC_SC_EENS_4pairIT2_T4_EESE_T3_SF_, symObjAddr: 0x3E7DC, symBinAddr: 0x100051EA0, symSize: 0x64 }
  - { offsetInCU: 0x32E36, offset: 0x66461, size: 0x8, addend: 0x0, symName: __ZNSt3__121__unwrap_and_dispatchB8ue170006INS_10__overloadINS_11__move_loopINS_17_ClassicAlgPolicyEEENS_14__move_trivialEEENS_16reverse_iteratorIPPKN7doctest6detail8TestCaseEEESE_SE_Li0EEENS_4pairIT0_T2_EESG_T1_SH_, symObjAddr: 0x3E840, symBinAddr: 0x100051F04, symSize: 0x12C }
  - { offsetInCU: 0x32EC6, offset: 0x664F1, size: 0x8, addend: 0x0, symName: __ZNSt3__114__unwrap_rangeB8ue170006INS_16reverse_iteratorIPPKN7doctest6detail8TestCaseEEES8_EENS_4pairIT0_SA_EET_SC_, symObjAddr: 0x3E96C, symBinAddr: 0x100052030, symSize: 0x84 }
  - { offsetInCU: 0x32FE6, offset: 0x66611, size: 0x8, addend: 0x0, symName: __ZNSt3__113__unwrap_iterB8ue170006INS_16reverse_iteratorIPPKN7doctest6detail8TestCaseEEENS_18__unwrap_iter_implIS8_Lb0EEELi0EEEDTclsrT0_8__unwrapclsr3stdE7declvalIT_EEEESC_, symObjAddr: 0x3EA90, symBinAddr: 0x100052154, symSize: 0x44 }
  - { offsetInCU: 0x33029, offset: 0x66654, size: 0x8, addend: 0x0, symName: __ZNSt3__19make_pairB8ue170006INS_16reverse_iteratorIPPKN7doctest6detail8TestCaseEEES8_EENS_4pairINS_18__unwrap_ref_decayIT_E4typeENSA_IT0_E4typeEEEOSB_OSE_, symObjAddr: 0x3EAD4, symBinAddr: 0x100052198, symSize: 0x38 }
  - { offsetInCU: 0x33079, offset: 0x666A4, size: 0x8, addend: 0x0, symName: __ZNSt3__114__rewrap_rangeB8ue170006INS_16reverse_iteratorIPPKN7doctest6detail8TestCaseEEES8_EET_S9_T0_, symObjAddr: 0x3EB0C, symBinAddr: 0x1000521D0, symSize: 0x5C }
  - { offsetInCU: 0x330C5, offset: 0x666F0, size: 0x8, addend: 0x0, symName: __ZNSt3__113__rewrap_iterB8ue170006INS_16reverse_iteratorIPPKN7doctest6detail8TestCaseEEES8_NS_18__unwrap_iter_implIS8_Lb0EEEEET_SB_T0_, symObjAddr: 0x3EB68, symBinAddr: 0x10005222C, symSize: 0x74 }
  - { offsetInCU: 0x3311A, offset: 0x66745, size: 0x8, addend: 0x0, symName: __ZNSt3__1neB8ue170006IPPKN7doctest6detail8TestCaseES6_EEbRKNS_16reverse_iteratorIT_EERKNS7_IT0_EE, symObjAddr: 0x3EBDC, symBinAddr: 0x1000522A0, symSize: 0x48 }
  - { offsetInCU: 0x331D1, offset: 0x667FC, size: 0x8, addend: 0x0, symName: __ZNSt3__111__sort_implB8ue170006INS_17_ClassicAlgPolicyENS_11__wrap_iterIPPKN7doctest6detail8TestCaseEEEPFbS7_S7_EEEvT0_SC_RT1_, symObjAddr: 0x3EFF0, symBinAddr: 0x1000526B4, symSize: 0xA8 }
  - { offsetInCU: 0x33235, offset: 0x66860, size: 0x8, addend: 0x0, symName: __ZNSt3__123__debug_randomize_rangeB8ue170006INS_17_ClassicAlgPolicyENS_11__wrap_iterIPPKN7doctest6detail8TestCaseEEES9_EEvT0_T1_, symObjAddr: 0x3F098, symBinAddr: 0x10005275C, symSize: 0x14 }
  - { offsetInCU: 0x33285, offset: 0x668B0, size: 0x8, addend: 0x0, symName: __ZNSt3__115__sort_dispatchB8ue170006INS_17_ClassicAlgPolicyEPPKN7doctest6detail8TestCaseEPFbS6_S6_EEEvT0_SA_RT1_, symObjAddr: 0x3F0AC, symBinAddr: 0x100052770, symSize: 0x64 }
  - { offsetInCU: 0x33304, offset: 0x6692F, size: 0x8, addend: 0x0, symName: __ZNSt3__113__unwrap_iterB8ue170006INS_11__wrap_iterIPPKN7doctest6detail8TestCaseEEENS_18__unwrap_iter_implIS8_Lb1EEELi0EEEDTclsrT0_8__unwrapclsr3stdE7declvalIT_EEEESC_, symObjAddr: 0x3F110, symBinAddr: 0x1000527D4, symSize: 0x2C }
  - { offsetInCU: 0x33348, offset: 0x66973, size: 0x8, addend: 0x0, symName: __ZNSt3__135__check_strict_weak_ordering_sortedB8ue170006IPPKN7doctest6detail8TestCaseEPFbS5_S5_EEEvT_S9_RT0_, symObjAddr: 0x3F13C, symBinAddr: 0x100052800, symSize: 0x18 }
  - { offsetInCU: 0x3339D, offset: 0x669C8, size: 0x8, addend: 0x0, symName: __ZNSt3__17__log2iB8ue170006IlEET_S1_, symObjAddr: 0x3F154, symBinAddr: 0x100052818, symSize: 0x54 }
  - { offsetInCU: 0x333D5, offset: 0x66A00, size: 0x8, addend: 0x0, symName: __ZNSt3__124__sort3_maybe_branchlessB8ue170006INS_17_ClassicAlgPolicyERPFbPKN7doctest6detail8TestCaseES6_EPS6_EENS_9enable_ifIXntsr21__use_branchless_sortIT0_T1_EE5valueEvE4typeESD_SD_SD_SC_, symObjAddr: 0x3F63C, symBinAddr: 0x100052D00, symSize: 0x3C }
  - { offsetInCU: 0x33446, offset: 0x66A71, size: 0x8, addend: 0x0, symName: __ZNSt3__124__sort4_maybe_branchlessB8ue170006INS_17_ClassicAlgPolicyERPFbPKN7doctest6detail8TestCaseES6_EPS6_EENS_9enable_ifIXntsr21__use_branchless_sortIT0_T1_EE5valueEvE4typeESD_SD_SD_SD_SC_, symObjAddr: 0x3F678, symBinAddr: 0x100052D3C, symSize: 0x44 }
  - { offsetInCU: 0x334C5, offset: 0x66AF0, size: 0x8, addend: 0x0, symName: __ZNSt3__124__sort5_maybe_branchlessB8ue170006INS_17_ClassicAlgPolicyERPFbPKN7doctest6detail8TestCaseES6_EPS6_EENS_9enable_ifIXntsr21__use_branchless_sortIT0_T1_EE5valueEvE4typeESD_SD_SD_SD_SD_SC_, symObjAddr: 0x3F6BC, symBinAddr: 0x100052D80, symSize: 0x4C }
  - { offsetInCU: 0x33552, offset: 0x66B7D, size: 0x8, addend: 0x0, symName: __ZNSt3__116__insertion_sortB8ue170006INS_17_ClassicAlgPolicyERPFbPKN7doctest6detail8TestCaseES6_EPS6_EEvT1_SB_T0_, symObjAddr: 0x3F708, symBinAddr: 0x100052DCC, symSize: 0x164 }
  - { offsetInCU: 0x33617, offset: 0x66C42, size: 0x8, addend: 0x0, symName: __ZNSt3__114__partial_sortB8ue170006INS_17_ClassicAlgPolicyERPFbPKN7doctest6detail8TestCaseES6_EPS6_SA_EET1_SB_SB_T2_RT0_, symObjAddr: 0x3F9A0, symBinAddr: 0x100053064, symSize: 0x94 }
  - { offsetInCU: 0x3369F, offset: 0x66CCA, size: 0x8, addend: 0x0, symName: __ZNSt3__17__sort3B8ue170006INS_17_ClassicAlgPolicyERPFbPKN7doctest6detail8TestCaseES6_EPS6_EEjT1_SB_SB_T0_, symObjAddr: 0x3FA34, symBinAddr: 0x1000530F8, symSize: 0x180 }
  - { offsetInCU: 0x3371E, offset: 0x66D49, size: 0x8, addend: 0x0, symName: __ZNSt3__19iter_swapB8ue170006IPPKN7doctest6detail8TestCaseES6_EEvT_T0_, symObjAddr: 0x406E0, symBinAddr: 0x100053DA4, symSize: 0x2C }
  - { offsetInCU: 0x33766, offset: 0x66D91, size: 0x8, addend: 0x0, symName: __ZNSt3__14swapB8ue170006IPKN7doctest6detail8TestCaseEEENS_9enable_ifIXaasr21is_move_constructibleIT_EE5valuesr18is_move_assignableIS7_EE5valueEvE4typeERS7_SA_, symObjAddr: 0x4070C, symBinAddr: 0x100053DD0, symSize: 0x3C }
  - { offsetInCU: 0x337B7, offset: 0x66DE2, size: 0x8, addend: 0x0, symName: __ZNSt3__17__sort4B8ue170006INS_17_ClassicAlgPolicyERPFbPKN7doctest6detail8TestCaseES6_EPS6_EEvT1_SB_SB_SB_T0_, symObjAddr: 0x40748, symBinAddr: 0x100053E0C, symSize: 0xDC }
  - { offsetInCU: 0x33832, offset: 0x66E5D, size: 0x8, addend: 0x0, symName: __ZNSt3__17__sort5B8ue170006INS_17_ClassicAlgPolicyERPFbPKN7doctest6detail8TestCaseES6_EPS6_EEvT1_SB_SB_SB_SB_T0_, symObjAddr: 0x40824, symBinAddr: 0x100053EE8, symSize: 0x118 }
  - { offsetInCU: 0x338BB, offset: 0x66EE6, size: 0x8, addend: 0x0, symName: __ZNSt3__123__debug_randomize_rangeB8ue170006INS_17_ClassicAlgPolicyEPPKN7doctest6detail8TestCaseES7_EEvT0_T1_, symObjAddr: 0x40980, symBinAddr: 0x100054044, symSize: 0x14 }
  - { offsetInCU: 0x3390C, offset: 0x66F37, size: 0x8, addend: 0x0, symName: __ZNSt3__119__partial_sort_implB8ue170006INS_17_ClassicAlgPolicyERPFbPKN7doctest6detail8TestCaseES6_EPS6_SA_EET1_SB_SB_T2_OT0_, symObjAddr: 0x40994, symBinAddr: 0x100054058, symSize: 0x11C }
  - { offsetInCU: 0x339A2, offset: 0x66FCD, size: 0x8, addend: 0x0, symName: __ZNSt3__111__make_heapB8ue170006INS_17_ClassicAlgPolicyERPFbPKN7doctest6detail8TestCaseES6_EPS6_EEvT1_SB_OT0_, symObjAddr: 0x40AB0, symBinAddr: 0x100054174, symSize: 0xB8 }
  - { offsetInCU: 0x33A45, offset: 0x67070, size: 0x8, addend: 0x0, symName: __ZNSt3__111__sort_heapB8ue170006INS_17_ClassicAlgPolicyERPFbPKN7doctest6detail8TestCaseES6_EPS6_EEvT1_SB_OT0_, symObjAddr: 0x40D98, symBinAddr: 0x10005445C, symSize: 0xA8 }
  - { offsetInCU: 0x33AE8, offset: 0x67113, size: 0x8, addend: 0x0, symName: __ZNSt3__110__pop_heapB8ue170006INS_17_ClassicAlgPolicyEPFbPKN7doctest6detail8TestCaseES6_EPS6_EEvT1_SA_RT0_NS_15iterator_traitsISA_E15difference_typeE, symObjAddr: 0x40E40, symBinAddr: 0x100054504, symSize: 0xF4 }
  - { offsetInCU: 0x33B99, offset: 0x671C4, size: 0x8, addend: 0x0, symName: __ZNSt3__19__sift_upB8ue170006INS_17_ClassicAlgPolicyERPFbPKN7doctest6detail8TestCaseES6_EPS6_EEvT1_SB_OT0_NS_15iterator_traitsISB_E15difference_typeE, symObjAddr: 0x4103C, symBinAddr: 0x100054700, symSize: 0x130 }
  - { offsetInCU: 0x33C4A, offset: 0x67275, size: 0x8, addend: 0x0, symName: __ZNSt3__122__populate_left_bitsetB8ue170006IRPFbPKN7doctest6detail8TestCaseES5_EPS5_S5_EEvT0_T_RT1_Ry, symObjAddr: 0x4116C, symBinAddr: 0x100054830, symSize: 0xB4 }
  - { offsetInCU: 0x33D07, offset: 0x67332, size: 0x8, addend: 0x0, symName: __ZNSt3__123__populate_right_bitsetB8ue170006IRPFbPKN7doctest6detail8TestCaseES5_EPS5_S5_EEvT0_T_RT1_Ry, symObjAddr: 0x41220, symBinAddr: 0x1000548E4, symSize: 0xAC }
  - { offsetInCU: 0x33DC4, offset: 0x673EF, size: 0x8, addend: 0x0, symName: __ZNSt3__117__swap_bitmap_posB8ue170006INS_17_ClassicAlgPolicyEPPKN7doctest6detail8TestCaseEEEvT0_S8_RyS9_, symObjAddr: 0x412CC, symBinAddr: 0x100054990, symSize: 0x100 }
  - { offsetInCU: 0x33E66, offset: 0x67491, size: 0x8, addend: 0x0, symName: __ZNSt3__133__bitset_partition_partial_blocksB8ue170006INS_17_ClassicAlgPolicyERPFbPKN7doctest6detail8TestCaseES6_EPS6_S6_EEvRT1_SC_T0_RT2_RySG_, symObjAddr: 0x413CC, symBinAddr: 0x100054A90, symSize: 0x300 }
  - { offsetInCU: 0x33FED, offset: 0x67618, size: 0x8, addend: 0x0, symName: __ZNSt3__19make_pairB8ue170006IRPPKN7doctest6detail8TestCaseERbEENS_4pairINS_18__unwrap_ref_decayIT_E4typeENSA_IT0_E4typeEEEOSB_OSE_, symObjAddr: 0x418AC, symBinAddr: 0x100054F70, symSize: 0x38 }
  - { offsetInCU: 0x3403D, offset: 0x67668, size: 0x8, addend: 0x0, symName: __ZNSt3__112__libcpp_ctzB8ue170006Ey, symObjAddr: 0x418E4, symBinAddr: 0x100054FA8, symSize: 0x20 }
  - { offsetInCU: 0x34069, offset: 0x67694, size: 0x8, addend: 0x0, symName: __ZNSt3__113__libcpp_blsrB8ue170006Ey, symObjAddr: 0x41904, symBinAddr: 0x100054FC8, symSize: 0x2C }
  - { offsetInCU: 0x34095, offset: 0x676C0, size: 0x8, addend: 0x0, symName: __ZNSt3__112__libcpp_clzB8ue170006Ey, symObjAddr: 0x41964, symBinAddr: 0x100055028, symSize: 0x1C }
  - { offsetInCU: 0x341E8, offset: 0x67813, size: 0x8, addend: 0x0, symName: __ZNSt3__112__to_addressB8ue170006INS_11__wrap_iterIPPKN7doctest6detail8TestCaseEEEvEEu7__decayIDTclsr19__to_address_helperIT_EE6__callclsr3stdE7declvalIRKS9_EEEEESB_, symObjAddr: 0x41A1C, symBinAddr: 0x1000550E0, symSize: 0x24 }
  - { offsetInCU: 0x342C3, offset: 0x678EE, size: 0x8, addend: 0x0, symName: __ZNSt3__112__to_addressB8ue170006IPKN7doctest12TestCaseDataEEEPT_S6_, symObjAddr: 0x424B8, symBinAddr: 0x100055B7C, symSize: 0x14 }
  - { offsetInCU: 0x342F8, offset: 0x67923, size: 0x8, addend: 0x0, symName: __ZNSt3__119__allocate_at_leastB8ue170006INS_9allocatorIPKN7doctest12TestCaseDataEEEEENS_19__allocation_resultINS_16allocator_traitsIT_E7pointerEEERS9_m, symObjAddr: 0x42D48, symBinAddr: 0x10005640C, symSize: 0x40 }
  - { offsetInCU: 0x3433A, offset: 0x67965, size: 0x8, addend: 0x0, symName: __ZNSt3__142__uninitialized_allocator_move_if_noexceptB8ue170006INS_9allocatorIPKN7doctest12TestCaseDataEEENS_16reverse_iteratorIPS5_EES9_S5_vEET1_RT_T0_SD_SA_, symObjAddr: 0x42EFC, symBinAddr: 0x1000565C0, symSize: 0x78 }
  - { offsetInCU: 0x343B9, offset: 0x679E4, size: 0x8, addend: 0x0, symName: __ZNSt3__14swapB8ue170006IPPKN7doctest12TestCaseDataEEENS_9enable_ifIXaasr21is_move_constructibleIT_EE5valuesr18is_move_assignableIS7_EE5valueEvE4typeERS7_SA_, symObjAddr: 0x42FC0, symBinAddr: 0x100056684, symSize: 0x3C }
  - { offsetInCU: 0x3440A, offset: 0x67A35, size: 0x8, addend: 0x0, symName: __ZNSt3__14moveB8ue170006INS_16reverse_iteratorIPPKN7doctest12TestCaseDataEEES7_EET0_T_S9_S8_, symObjAddr: 0x430A8, symBinAddr: 0x10005676C, symSize: 0x78 }
  - { offsetInCU: 0x34464, offset: 0x67A8F, size: 0x8, addend: 0x0, symName: __ZNSt3__16__moveB8ue170006INS_17_ClassicAlgPolicyENS_16reverse_iteratorIPPKN7doctest12TestCaseDataEEES8_S8_EENS_4pairIT0_T2_EESA_T1_SB_, symObjAddr: 0x43120, symBinAddr: 0x1000567E4, symSize: 0x64 }
  - { offsetInCU: 0x344D0, offset: 0x67AFB, size: 0x8, addend: 0x0, symName: __ZNSt3__123__dispatch_copy_or_moveB8ue170006INS_17_ClassicAlgPolicyENS_11__move_loopIS1_EENS_14__move_trivialENS_16reverse_iteratorIPPKN7doctest12TestCaseDataEEESB_SB_EENS_4pairIT2_T4_EESD_T3_SE_, symObjAddr: 0x43184, symBinAddr: 0x100056848, symSize: 0x64 }
  - { offsetInCU: 0x3454E, offset: 0x67B79, size: 0x8, addend: 0x0, symName: __ZNSt3__121__unwrap_and_dispatchB8ue170006INS_10__overloadINS_11__move_loopINS_17_ClassicAlgPolicyEEENS_14__move_trivialEEENS_16reverse_iteratorIPPKN7doctest12TestCaseDataEEESD_SD_Li0EEENS_4pairIT0_T2_EESF_T1_SG_, symObjAddr: 0x431E8, symBinAddr: 0x1000568AC, symSize: 0x12C }
  - { offsetInCU: 0x345DE, offset: 0x67C09, size: 0x8, addend: 0x0, symName: __ZNSt3__114__unwrap_rangeB8ue170006INS_16reverse_iteratorIPPKN7doctest12TestCaseDataEEES7_EENS_4pairIT0_S9_EET_SB_, symObjAddr: 0x43314, symBinAddr: 0x1000569D8, symSize: 0x84 }
  - { offsetInCU: 0x346FE, offset: 0x67D29, size: 0x8, addend: 0x0, symName: __ZNSt3__113__unwrap_iterB8ue170006INS_16reverse_iteratorIPPKN7doctest12TestCaseDataEEENS_18__unwrap_iter_implIS7_Lb0EEELi0EEEDTclsrT0_8__unwrapclsr3stdE7declvalIT_EEEESB_, symObjAddr: 0x43438, symBinAddr: 0x100056AFC, symSize: 0x44 }
  - { offsetInCU: 0x34741, offset: 0x67D6C, size: 0x8, addend: 0x0, symName: __ZNSt3__19make_pairB8ue170006INS_16reverse_iteratorIPPKN7doctest12TestCaseDataEEES7_EENS_4pairINS_18__unwrap_ref_decayIT_E4typeENS9_IT0_E4typeEEEOSA_OSD_, symObjAddr: 0x4347C, symBinAddr: 0x100056B40, symSize: 0x38 }
  - { offsetInCU: 0x34791, offset: 0x67DBC, size: 0x8, addend: 0x0, symName: __ZNSt3__114__rewrap_rangeB8ue170006INS_16reverse_iteratorIPPKN7doctest12TestCaseDataEEES7_EET_S8_T0_, symObjAddr: 0x434B4, symBinAddr: 0x100056B78, symSize: 0x5C }
  - { offsetInCU: 0x347DD, offset: 0x67E08, size: 0x8, addend: 0x0, symName: __ZNSt3__113__rewrap_iterB8ue170006INS_16reverse_iteratorIPPKN7doctest12TestCaseDataEEES7_NS_18__unwrap_iter_implIS7_Lb0EEEEET_SA_T0_, symObjAddr: 0x43510, symBinAddr: 0x100056BD4, symSize: 0x74 }
  - { offsetInCU: 0x34832, offset: 0x67E5D, size: 0x8, addend: 0x0, symName: __ZNSt3__1neB8ue170006IPPKN7doctest12TestCaseDataES5_EEbRKNS_16reverse_iteratorIT_EERKNS6_IT0_EE, symObjAddr: 0x43584, symBinAddr: 0x100056C48, symSize: 0x48 }
  - { offsetInCU: 0x34908, offset: 0x67F33, size: 0x8, addend: 0x0, symName: __ZNSt3__118__cxx_atomic_storeB8ue170006IiEEvPNS_22__cxx_atomic_base_implIT_EES2_NS_12memory_orderE, symObjAddr: 0x4480C, symBinAddr: 0x100057ED0, symSize: 0x84 }
  - { offsetInCU: 0x3497D, offset: 0x67FA8, size: 0x8, addend: 0x0, symName: __ZNSt3__1ltB8ue170006IiN7doctest6StringEiS2_EEbRKNS_4pairIT_T0_EERKNS3_IT1_T2_EE, symObjAddr: 0x451A8, symBinAddr: 0x10005886C, symSize: 0xA0 }
  - { offsetInCU: 0x37AD5, offset: 0x6B100, size: 0x8, addend: 0x0, symName: __ZN28doctest_detail_test_suite_ns19getCurrentTestSuiteEv, symObjAddr: 0x3CC0, symBinAddr: 0x10001B5D8, symSize: 0xC }
  - { offsetInCU: 0x37B01, offset: 0x6B12C, size: 0x8, addend: 0x0, symName: __ZZN28doctest_detail_test_suite_ns19getCurrentTestSuiteEvE4data, symObjAddr: 0x1CF238, symBinAddr: 0x100068280, symSize: 0x0 }
  - { offsetInCU: 0x37FC9, offset: 0x6B5F4, size: 0x8, addend: 0x0, symName: __ZL19DOCTEST_ANON_VAR_14, symObjAddr: 0x1CF770, symBinAddr: 0x1000687B8, symSize: 0x0 }
  - { offsetInCU: 0x37FE3, offset: 0x6B60E, size: 0x8, addend: 0x0, symName: __ZL19DOCTEST_ANON_VAR_18, symObjAddr: 0x1CF774, symBinAddr: 0x1000687BC, symSize: 0x0 }
  - { offsetInCU: 0x37FFD, offset: 0x6B628, size: 0x8, addend: 0x0, symName: __ZL19DOCTEST_ANON_VAR_21, symObjAddr: 0x1CF778, symBinAddr: 0x1000687C0, symSize: 0x0 }
  - { offsetInCU: 0x381AF, offset: 0x6B7DA, size: 0x8, addend: 0x0, symName: __ZN7doctest6detail15MultiLaneAtomicIiE8myAtomicEv, symObjAddr: 0x14B7C, symBinAddr: 0x10002C0E8, symSize: 0xA0 }
  - { offsetInCU: 0x381D4, offset: 0x6B7FF, size: 0x8, addend: 0x0, symName: __ZZN7doctest6detail15MultiLaneAtomicIiE8myAtomicEvE11laneCounter, symObjAddr: 0x4B248, symBinAddr: 0x100068000, symSize: 0x0 }
  - { offsetInCU: 0x38853, offset: 0x6BE7E, size: 0x8, addend: 0x0, symName: __ZNSt3__16vectorINS_4fposI11__mbstate_tEENS_9allocatorIS3_EEE26__swap_out_circular_bufferERNS_14__split_bufferIS3_RS5_EE, symObjAddr: 0x12310, symBinAddr: 0x100029B6C, symSize: 0x110 }
  - { offsetInCU: 0x389F2, offset: 0x6C01D, size: 0x8, addend: 0x0, symName: __ZNSt3__16vectorIN7doctest16SubcaseSignatureENS_9allocatorIS2_EEE26__swap_out_circular_bufferERNS_14__split_bufferIS2_RS4_EE, symObjAddr: 0x1F968, symBinAddr: 0x100033874, symSize: 0x110 }
  - { offsetInCU: 0x38AAB, offset: 0x6C0D6, size: 0x8, addend: 0x0, symName: __ZNSt3__16vectorIN7doctest16SubcaseSignatureENS_9allocatorIS2_EEE26__swap_out_circular_bufferERNS_14__split_bufferIS2_RS4_EEPS2_, symObjAddr: 0x217D4, symBinAddr: 0x1000356E0, symSize: 0x14C }
  - { offsetInCU: 0x38B0F, offset: 0x6C13A, size: 0x8, addend: 0x0, symName: __ZNSt3__16vectorIPKN7doctest6detail20IExceptionTranslatorENS_9allocatorIS5_EEE26__swap_out_circular_bufferERNS_14__split_bufferIS5_RS7_EE, symObjAddr: 0x2657C, symBinAddr: 0x10003A008, symSize: 0x110 }
  - { offsetInCU: 0x38B69, offset: 0x6C194, size: 0x8, addend: 0x0, symName: __ZNSt3__16vectorIPN7doctest13IContextScopeENS_9allocatorIS3_EEE26__swap_out_circular_bufferERNS_14__split_bufferIS3_RS5_EE, symObjAddr: 0x27E84, symBinAddr: 0x10003B910, symSize: 0x110 }
  - { offsetInCU: 0x38BBE, offset: 0x6C1E9, size: 0x8, addend: 0x0, symName: __ZNSt3__16vectorIN7doctest6StringENS_9allocatorIS2_EEE26__swap_out_circular_bufferERNS_14__split_bufferIS2_RS4_EE, symObjAddr: 0x291A8, symBinAddr: 0x10003CC34, symSize: 0x110 }
  - { offsetInCU: 0x38DB2, offset: 0x6C3DD, size: 0x8, addend: 0x0, symName: __ZNSt3__16vectorINS_12basic_stringIcNS_11char_traitsIcEENS_9allocatorIcEEEENS4_IS6_EEE26__swap_out_circular_bufferERNS_14__split_bufferIS6_RS7_EE, symObjAddr: 0x2D748, symBinAddr: 0x100041124, symSize: 0x110 }
  - { offsetInCU: 0x3922E, offset: 0x6C859, size: 0x8, addend: 0x0, symName: __ZNSt3__16vectorIN7doctest12_GLOBAL__N_113JUnitReporter17JUnitTestCaseData13JUnitTestCaseENS_9allocatorIS5_EEE26__swap_out_circular_bufferERNS_14__split_bufferIS5_RS7_EE, symObjAddr: 0x32D70, symBinAddr: 0x1000464EC, symSize: 0x110 }
  - { offsetInCU: 0x39305, offset: 0x6C930, size: 0x8, addend: 0x0, symName: __ZNSt3__16vectorIN7doctest12_GLOBAL__N_113JUnitReporter17JUnitTestCaseData16JUnitTestMessageENS_9allocatorIS5_EEE26__swap_out_circular_bufferERNS_14__split_bufferIS5_RS7_EE, symObjAddr: 0x35D14, symBinAddr: 0x1000493D8, symSize: 0x110 }
  - { offsetInCU: 0x393A5, offset: 0x6C9D0, size: 0x8, addend: 0x0, symName: __ZNSt3__16vectorIPN7doctest9IReporterENS_9allocatorIS3_EEE26__swap_out_circular_bufferERNS_14__split_bufferIS3_RS5_EE, symObjAddr: 0x3B4D0, symBinAddr: 0x10004EB94, symSize: 0x110 }
  - { offsetInCU: 0x39413, offset: 0x6CA3E, size: 0x8, addend: 0x0, symName: __ZNSt3__16vectorIPN7doctest9IReporterENS_9allocatorIS3_EEE26__swap_out_circular_bufferERNS_14__split_bufferIS3_RS5_EEPS3_, symObjAddr: 0x3C7D0, symBinAddr: 0x10004FE94, symSize: 0x14C }
  - { offsetInCU: 0x395F8, offset: 0x6CC23, size: 0x8, addend: 0x0, symName: __ZNSt3__16vectorIPKN7doctest6detail8TestCaseENS_9allocatorIS5_EEE26__swap_out_circular_bufferERNS_14__split_bufferIS5_RS7_EE, symObjAddr: 0x3E040, symBinAddr: 0x100051704, symSize: 0x110 }
  - { offsetInCU: 0x39A03, offset: 0x6D02E, size: 0x8, addend: 0x0, symName: __ZNSt3__16vectorIPKN7doctest12TestCaseDataENS_9allocatorIS4_EEE26__swap_out_circular_bufferERNS_14__split_bufferIS4_RS6_EE, symObjAddr: 0x429E8, symBinAddr: 0x1000560AC, symSize: 0x110 }
  - { offsetInCU: 0x3A0DA, offset: 0x6D705, size: 0x8, addend: 0x0, symName: __Z7toloweri, symObjAddr: 0x138F0, symBinAddr: 0x10002AE5C, symSize: 0x24 }
  - { offsetInCU: 0x3A9F7, offset: 0x6E022, size: 0x8, addend: 0x0, symName: __Z5isnanB8ue170006e, symObjAddr: 0x3FC, symBinAddr: 0x100017D5C, symSize: 0x20 }
  - { offsetInCU: 0x3B8DE, offset: 0x6EF09, size: 0x8, addend: 0x0, symName: __ZN7doctest6detail9TestSuiteC1Ev, symObjAddr: 0x50, symBinAddr: 0x1000179B0, symSize: 0x2C }
  - { offsetInCU: 0x3B90A, offset: 0x6EF35, size: 0x8, addend: 0x0, symName: __ZN7doctest6detail9TestSuitemlEPKc, symObjAddr: 0x7C, symBinAddr: 0x1000179DC, symSize: 0x20 }
  - { offsetInCU: 0x3B940, offset: 0x6EF6B, size: 0x8, addend: 0x0, symName: __ZN7doctest5IsNaNIfEC2Efb, symObjAddr: 0x9C, symBinAddr: 0x1000179FC, symSize: 0x38 }
  - { offsetInCU: 0x3B987, offset: 0x6EFB2, size: 0x8, addend: 0x0, symName: __ZN7doctest5IsNaNIfEC1Efb, symObjAddr: 0xD4, symBinAddr: 0x100017A34, symSize: 0x48 }
  - { offsetInCU: 0x3B9CE, offset: 0x6EFF9, size: 0x8, addend: 0x0, symName: __ZNK7doctest5IsNaNIfEntEv, symObjAddr: 0x11C, symBinAddr: 0x100017A7C, symSize: 0x3C }
  - { offsetInCU: 0x3B9F3, offset: 0x6F01E, size: 0x8, addend: 0x0, symName: __ZNK7doctest5IsNaNIfEcvbEv, symObjAddr: 0x158, symBinAddr: 0x100017AB8, symSize: 0x4C }
  - { offsetInCU: 0x3BA18, offset: 0x6F043, size: 0x8, addend: 0x0, symName: __Z5isnanB8ue170006f, symObjAddr: 0x1A4, symBinAddr: 0x100017B04, symSize: 0x20 }
  - { offsetInCU: 0x3BA48, offset: 0x6F073, size: 0x8, addend: 0x0, symName: __ZN7doctest5IsNaNIdEC2Edb, symObjAddr: 0x1C4, symBinAddr: 0x100017B24, symSize: 0x38 }
  - { offsetInCU: 0x3BA8F, offset: 0x6F0BA, size: 0x8, addend: 0x0, symName: __ZN7doctest5IsNaNIdEC1Edb, symObjAddr: 0x1FC, symBinAddr: 0x100017B5C, symSize: 0x48 }
  - { offsetInCU: 0x3BAD6, offset: 0x6F101, size: 0x8, addend: 0x0, symName: __ZNK7doctest5IsNaNIdEntEv, symObjAddr: 0x244, symBinAddr: 0x100017BA4, symSize: 0x40 }
  - { offsetInCU: 0x3BAFB, offset: 0x6F126, size: 0x8, addend: 0x0, symName: __ZNK7doctest5IsNaNIdEcvbEv, symObjAddr: 0x284, symBinAddr: 0x100017BE4, symSize: 0x4C }
  - { offsetInCU: 0x3BB20, offset: 0x6F14B, size: 0x8, addend: 0x0, symName: __Z5isnanB8ue170006Ua9enable_ifIXLb1EEEd, symObjAddr: 0x2D0, symBinAddr: 0x100017C30, symSize: 0x20 }
  - { offsetInCU: 0x3BB50, offset: 0x6F17B, size: 0x8, addend: 0x0, symName: __ZN7doctest5IsNaNIeEC2Eeb, symObjAddr: 0x2F0, symBinAddr: 0x100017C50, symSize: 0x38 }
  - { offsetInCU: 0x3BB97, offset: 0x6F1C2, size: 0x8, addend: 0x0, symName: __ZN7doctest5IsNaNIeEC1Eeb, symObjAddr: 0x328, symBinAddr: 0x100017C88, symSize: 0x48 }
  - { offsetInCU: 0x3BBDE, offset: 0x6F209, size: 0x8, addend: 0x0, symName: __ZNK7doctest5IsNaNIeEntEv, symObjAddr: 0x370, symBinAddr: 0x100017CD0, symSize: 0x40 }
  - { offsetInCU: 0x3BC03, offset: 0x6F22E, size: 0x8, addend: 0x0, symName: __ZNK7doctest5IsNaNIeEcvbEv, symObjAddr: 0x3B0, symBinAddr: 0x100017D10, symSize: 0x4C }
  - { offsetInCU: 0x3BC29, offset: 0x6F254, size: 0x8, addend: 0x0, symName: '__ZN7doctest6detail3$_0C1Ev', symObjAddr: 0x41C, symBinAddr: 0x100017D7C, symSize: 0x2C }
  - { offsetInCU: 0x3BC55, offset: 0x6F280, size: 0x8, addend: 0x0, symName: '__ZN7doctest6detail3$_0D1Ev', symObjAddr: 0x448, symBinAddr: 0x100017DA8, symSize: 0x2C }
  - { offsetInCU: 0x3BC81, offset: 0x6F2AC, size: 0x8, addend: 0x0, symName: '__ZN7doctest6detail3$_04pushEv', symObjAddr: 0x4B0, symBinAddr: 0x100017E10, symSize: 0xB0 }
  - { offsetInCU: 0x3BCA6, offset: 0x6F2D1, size: 0x8, addend: 0x0, symName: '__ZN7doctest6detail3$_03popEv', symObjAddr: 0x588, symBinAddr: 0x100017EE8, symSize: 0x154 }
  - { offsetInCU: 0x3BCEC, offset: 0x6F317, size: 0x8, addend: 0x0, symName: __ZN7doctest6String8allocateEj, symObjAddr: 0x718, symBinAddr: 0x100018078, symSize: 0xC4 }
  - { offsetInCU: 0x3BD21, offset: 0x6F34C, size: 0x8, addend: 0x0, symName: __ZN7doctest6String7setLastEj, symObjAddr: 0x7DC, symBinAddr: 0x10001813C, symSize: 0x20 }
  - { offsetInCU: 0x3BD57, offset: 0x6F382, size: 0x8, addend: 0x0, symName: __ZN7doctest6String9setOnHeapEv, symObjAddr: 0x7FC, symBinAddr: 0x10001815C, symSize: 0x1C }
  - { offsetInCU: 0x3BD7E, offset: 0x6F3A9, size: 0x8, addend: 0x0, symName: __ZN7doctest6String7setSizeEj, symObjAddr: 0x818, symBinAddr: 0x100018178, symSize: 0x80 }
  - { offsetInCU: 0x3BDB3, offset: 0x6F3DE, size: 0x8, addend: 0x0, symName: __ZNK7doctest6String9isOnStackEv, symObjAddr: 0x898, symBinAddr: 0x1000181F8, symSize: 0x24 }
  - { offsetInCU: 0x3BDD8, offset: 0x6F403, size: 0x8, addend: 0x0, symName: __ZN7doctest6String4copyERKS0_, symObjAddr: 0x8BC, symBinAddr: 0x10001821C, symSize: 0x80 }
  - { offsetInCU: 0x3BE0D, offset: 0x6F438, size: 0x8, addend: 0x0, symName: __ZN7doctest6StringC2Ev, symObjAddr: 0x93C, symBinAddr: 0x10001829C, symSize: 0x34 }
  - { offsetInCU: 0x3BE38, offset: 0x6F463, size: 0x8, addend: 0x0, symName: __ZN7doctest6StringC1Ev, symObjAddr: 0x970, symBinAddr: 0x1000182D0, symSize: 0x2C }
  - { offsetInCU: 0x3BE63, offset: 0x6F48E, size: 0x8, addend: 0x0, symName: __ZN7doctest6StringD2Ev, symObjAddr: 0x99C, symBinAddr: 0x1000182FC, symSize: 0x68 }
  - { offsetInCU: 0x3BE8E, offset: 0x6F4B9, size: 0x8, addend: 0x0, symName: __ZN7doctest6StringD1Ev, symObjAddr: 0xA04, symBinAddr: 0x100018364, symSize: 0x2C }
  - { offsetInCU: 0x3BEB9, offset: 0x6F4E4, size: 0x8, addend: 0x0, symName: __ZN7doctest6StringC2EPKc, symObjAddr: 0xA30, symBinAddr: 0x100018390, symSize: 0x50 }
  - { offsetInCU: 0x3BEF3, offset: 0x6F51E, size: 0x8, addend: 0x0, symName: __ZN7doctest6StringC2EPKcj, symObjAddr: 0xA80, symBinAddr: 0x1000183E0, symSize: 0x48 }
  - { offsetInCU: 0x3BF3C, offset: 0x6F567, size: 0x8, addend: 0x0, symName: __ZN7doctest6StringC1EPKc, symObjAddr: 0xAC8, symBinAddr: 0x100018428, symSize: 0x50 }
  - { offsetInCU: 0x3BF76, offset: 0x6F5A1, size: 0x8, addend: 0x0, symName: __ZN7doctest6StringC1EPKcj, symObjAddr: 0xB18, symBinAddr: 0x100018478, symSize: 0x3C }
  - { offsetInCU: 0x3BFBF, offset: 0x6F5EA, size: 0x8, addend: 0x0, symName: __ZN7doctest6StringC2ERNSt3__113basic_istreamIcNS1_11char_traitsIcEEEEj, symObjAddr: 0xB54, symBinAddr: 0x1000184B4, symSize: 0x54 }
  - { offsetInCU: 0x3C008, offset: 0x6F633, size: 0x8, addend: 0x0, symName: __ZN7doctest6StringC1ERNSt3__113basic_istreamIcNS1_11char_traitsIcEEEEj, symObjAddr: 0xBA8, symBinAddr: 0x100018508, symSize: 0x3C }
  - { offsetInCU: 0x3C051, offset: 0x6F67C, size: 0x8, addend: 0x0, symName: __ZN7doctest6StringC2ERKS0_, symObjAddr: 0xBE4, symBinAddr: 0x100018544, symSize: 0x34 }
  - { offsetInCU: 0x3C08B, offset: 0x6F6B6, size: 0x8, addend: 0x0, symName: __ZN7doctest6StringC1ERKS0_, symObjAddr: 0xC18, symBinAddr: 0x100018578, symSize: 0x34 }
  - { offsetInCU: 0x3C0C5, offset: 0x6F6F0, size: 0x8, addend: 0x0, symName: __ZN7doctest6StringaSERKS0_, symObjAddr: 0xC4C, symBinAddr: 0x1000185AC, symSize: 0x8C }
  - { offsetInCU: 0x3C0FA, offset: 0x6F725, size: 0x8, addend: 0x0, symName: __ZN7doctest6StringpLERKS0_, symObjAddr: 0xCD8, symBinAddr: 0x100018638, symSize: 0x280 }
  - { offsetInCU: 0x3C198, offset: 0x6F7C3, size: 0x8, addend: 0x0, symName: __ZNK7doctest6String4sizeEv, symObjAddr: 0xF58, symBinAddr: 0x1000188B8, symSize: 0x60 }
  - { offsetInCU: 0x3C1BE, offset: 0x6F7E9, size: 0x8, addend: 0x0, symName: __ZNK7doctest6String5c_strEv, symObjAddr: 0xFB8, symBinAddr: 0x100018918, symSize: 0x24 }
  - { offsetInCU: 0x3C1E3, offset: 0x6F80E, size: 0x8, addend: 0x0, symName: __ZN7doctest6StringC2EOS0_, symObjAddr: 0xFDC, symBinAddr: 0x10001893C, symSize: 0x54 }
  - { offsetInCU: 0x3C21D, offset: 0x6F848, size: 0x8, addend: 0x0, symName: __ZN7doctest6StringC1EOS0_, symObjAddr: 0x1030, symBinAddr: 0x100018990, symSize: 0x34 }
  - { offsetInCU: 0x3C257, offset: 0x6F882, size: 0x8, addend: 0x0, symName: __ZN7doctest6StringaSEOS0_, symObjAddr: 0x1064, symBinAddr: 0x1000189C4, symSize: 0xAC }
  - { offsetInCU: 0x3C28C, offset: 0x6F8B7, size: 0x8, addend: 0x0, symName: __ZNK7doctest6StringixEj, symObjAddr: 0x1110, symBinAddr: 0x100018A70, symSize: 0x30 }
  - { offsetInCU: 0x3C2C1, offset: 0x6F8EC, size: 0x8, addend: 0x0, symName: __ZN7doctest6StringixEj, symObjAddr: 0x1140, symBinAddr: 0x100018AA0, symSize: 0x64 }
  - { offsetInCU: 0x3C2F6, offset: 0x6F921, size: 0x8, addend: 0x0, symName: __ZNK7doctest6String8capacityEv, symObjAddr: 0x11A4, symBinAddr: 0x100018B04, symSize: 0x50 }
  - { offsetInCU: 0x3C31C, offset: 0x6F947, size: 0x8, addend: 0x0, symName: __ZNO7doctest6String6substrEjj, symObjAddr: 0x11F4, symBinAddr: 0x100018B54, symSize: 0xAC }
  - { offsetInCU: 0x3C36F, offset: 0x6F99A, size: 0x8, addend: 0x0, symName: __ZN7doctest6String5c_strEv, symObjAddr: 0x12CC, symBinAddr: 0x100018C2C, symSize: 0x50 }
  - { offsetInCU: 0x3C394, offset: 0x6F9BF, size: 0x8, addend: 0x0, symName: __ZNKR7doctest6String6substrEjj, symObjAddr: 0x131C, symBinAddr: 0x100018C7C, symSize: 0x8C }
  - { offsetInCU: 0x3C3D8, offset: 0x6FA03, size: 0x8, addend: 0x0, symName: __ZNK7doctest6String4findEcj, symObjAddr: 0x13A8, symBinAddr: 0x100018D08, symSize: 0x100 }
  - { offsetInCU: 0x3C449, offset: 0x6FA74, size: 0x8, addend: 0x0, symName: __ZNK7doctest6String5rfindEcj, symObjAddr: 0x14A8, symBinAddr: 0x100018E08, symSize: 0x114 }
  - { offsetInCU: 0x3C4AB, offset: 0x6FAD6, size: 0x8, addend: 0x0, symName: __ZNK7doctest6String7compareEPKcb, symObjAddr: 0x15BC, symBinAddr: 0x100018F1C, symSize: 0x74 }
  - { offsetInCU: 0x3C4EF, offset: 0x6FB1A, size: 0x8, addend: 0x0, symName: __ZNK7doctest6String7compareERKS0_b, symObjAddr: 0x16D0, symBinAddr: 0x100019030, symSize: 0x50 }
  - { offsetInCU: 0x3C533, offset: 0x6FB5E, size: 0x8, addend: 0x0, symName: __ZN7doctest8ContainsC2ERKNS_6StringE, symObjAddr: 0x1A3C, symBinAddr: 0x100019354, symSize: 0x34 }
  - { offsetInCU: 0x3C56D, offset: 0x6FB98, size: 0x8, addend: 0x0, symName: __ZN7doctest8ContainsC1ERKNS_6StringE, symObjAddr: 0x1A70, symBinAddr: 0x100019388, symSize: 0x34 }
  - { offsetInCU: 0x3C5A7, offset: 0x6FBD2, size: 0x8, addend: 0x0, symName: __ZNK7doctest8Contains9checkWithERKNS_6StringE, symObjAddr: 0x1AA4, symBinAddr: 0x1000193BC, symSize: 0x58 }
  - { offsetInCU: 0x3C5DC, offset: 0x6FC07, size: 0x8, addend: 0x0, symName: __Z6strstrB8ue170006Ua9enable_ifIXLb1EEEPKcS0_, symObjAddr: 0x1AFC, symBinAddr: 0x100019414, symSize: 0x2C }
  - { offsetInCU: 0x3C616, offset: 0x6FC41, size: 0x8, addend: 0x0, symName: __Z7strrchrB8ue170006Ua9enable_ifIXLb1EEEPKci, symObjAddr: 0x2780, symBinAddr: 0x10001A098, symSize: 0x2C }
  - { offsetInCU: 0x3C650, offset: 0x6FC7B, size: 0x8, addend: 0x0, symName: __ZNK7doctest16SubcaseSignatureeqERKS0_, symObjAddr: 0x27AC, symBinAddr: 0x10001A0C4, symSize: 0x94 }
  - { offsetInCU: 0x3C685, offset: 0x6FCB0, size: 0x8, addend: 0x0, symName: __ZNK7doctest16SubcaseSignatureltERKS0_, symObjAddr: 0x2840, symBinAddr: 0x10001A158, symSize: 0xF0 }
  - { offsetInCU: 0x3C6BA, offset: 0x6FCE5, size: 0x8, addend: 0x0, symName: __ZN7doctest13IContextScopeD2Ev, symObjAddr: 0x2930, symBinAddr: 0x10001A248, symSize: 0x14 }
  - { offsetInCU: 0x3C6E5, offset: 0x6FD10, size: 0x8, addend: 0x0, symName: __ZN7doctest13IContextScopeD1Ev, symObjAddr: 0x2944, symBinAddr: 0x10001A25C, symSize: 0x14 }
  - { offsetInCU: 0x3C710, offset: 0x6FD3B, size: 0x8, addend: 0x0, symName: __ZN7doctest13IContextScopeD0Ev, symObjAddr: 0x2958, symBinAddr: 0x10001A270, symSize: 0xC }
  - { offsetInCU: 0x3C73B, offset: 0x6FD66, size: 0x8, addend: 0x0, symName: __ZN7doctest6detail8filldataIPKvE4fillEPNSt3__113basic_ostreamIcNS5_11char_traitsIcEEEES3_, symObjAddr: 0x2964, symBinAddr: 0x10001A27C, symSize: 0x58 }
  - { offsetInCU: 0x3C770, offset: 0x6FD9B, size: 0x8, addend: 0x0, symName: __ZN7doctest6ApproxC2Ed, symObjAddr: 0x2FB4, symBinAddr: 0x10001A8CC, symSize: 0x54 }
  - { offsetInCU: 0x3C7AA, offset: 0x6FDD5, size: 0x8, addend: 0x0, symName: __ZNSt3__114numeric_limitsIfE7epsilonB8ue170006Ev, symObjAddr: 0x3008, symBinAddr: 0x10001A920, symSize: 0x14 }
  - { offsetInCU: 0x3C7BE, offset: 0x6FDE9, size: 0x8, addend: 0x0, symName: __ZN7doctest6ApproxC1Ed, symObjAddr: 0x301C, symBinAddr: 0x10001A934, symSize: 0x34 }
  - { offsetInCU: 0x3C7F8, offset: 0x6FE23, size: 0x8, addend: 0x0, symName: __ZNK7doctest6ApproxclEd, symObjAddr: 0x3050, symBinAddr: 0x10001A968, symSize: 0x64 }
  - { offsetInCU: 0x3C83C, offset: 0x6FE67, size: 0x8, addend: 0x0, symName: __ZN7doctest6Approx7epsilonEd, symObjAddr: 0x30B4, symBinAddr: 0x10001A9CC, symSize: 0x20 }
  - { offsetInCU: 0x3C872, offset: 0x6FE9D, size: 0x8, addend: 0x0, symName: __ZN7doctest6Approx5scaleEd, symObjAddr: 0x30D4, symBinAddr: 0x10001A9EC, symSize: 0x20 }
  - { offsetInCU: 0x3C8A8, offset: 0x6FED3, size: 0x8, addend: 0x0, symName: __ZNK7doctest6detail15MultiLaneAtomicIiEcviEv, symObjAddr: 0x3DB0, symBinAddr: 0x10001B6C8, symSize: 0x28 }
  - { offsetInCU: 0x3C8CD, offset: 0x6FEF8, size: 0x8, addend: 0x0, symName: __ZNSt3__16atomicIbEaSB8ue170006Eb, symObjAddr: 0x3E14, symBinAddr: 0x10001B72C, symSize: 0x44 }
  - { offsetInCU: 0x3C91E, offset: 0x6FF49, size: 0x8, addend: 0x0, symName: __ZN7doctest6detail7Subcase12checkFiltersEv, symObjAddr: 0x3E58, symBinAddr: 0x10001B770, symSize: 0x148 }
  - { offsetInCU: 0x3C944, offset: 0x6FF6F, size: 0x8, addend: 0x0, symName: __ZNKSt3__16vectorIN7doctest16SubcaseSignatureENS_9allocatorIS2_EEE4sizeB8ue170006Ev, symObjAddr: 0x3FA0, symBinAddr: 0x10001B8B8, symSize: 0x28 }
  - { offsetInCU: 0x3C969, offset: 0x6FF94, size: 0x8, addend: 0x0, symName: __ZNSt3__16vectorINS0_IN7doctest6StringENS_9allocatorIS2_EEEENS3_IS5_EEEixB8ue170006Em, symObjAddr: 0x40E4, symBinAddr: 0x10001B9FC, symSize: 0x2C }
  - { offsetInCU: 0x3C99F, offset: 0x6FFCA, size: 0x8, addend: 0x0, symName: __ZN7doctest6detail7SubcaseC2ERKNS_6StringEPKci, symObjAddr: 0x4110, symBinAddr: 0x10001BA28, symSize: 0x500 }
  - { offsetInCU: 0x3CAA7, offset: 0x700D2, size: 0x8, addend: 0x0, symName: __ZNSt3__16vectorIN7doctest16SubcaseSignatureENS_9allocatorIS2_EEEixB8ue170006Em, symObjAddr: 0x4610, symBinAddr: 0x10001BF28, symSize: 0x2C }
  - { offsetInCU: 0x3CADD, offset: 0x70108, size: 0x8, addend: 0x0, symName: __ZNSt3__16vectorIN7doctest16SubcaseSignatureENS_9allocatorIS2_EEE9push_backB8ue170006ERKS2_, symObjAddr: 0x463C, symBinAddr: 0x10001BF54, symSize: 0x6C }
  - { offsetInCU: 0x3CB12, offset: 0x7013D, size: 0x8, addend: 0x0, symName: __ZNSt3__16vectorIPN7doctest9IReporterENS_9allocatorIS3_EEE5beginB8ue170006Ev, symObjAddr: 0x46A8, symBinAddr: 0x10001BFC0, symSize: 0x30 }
  - { offsetInCU: 0x3CB38, offset: 0x70163, size: 0x8, addend: 0x0, symName: __ZNSt3__16vectorIPN7doctest9IReporterENS_9allocatorIS3_EEE3endB8ue170006Ev, symObjAddr: 0x46D8, symBinAddr: 0x10001BFF0, symSize: 0x30 }
  - { offsetInCU: 0x3CB5E, offset: 0x70189, size: 0x8, addend: 0x0, symName: __ZNKSt3__111__wrap_iterIPPN7doctest9IReporterEEdeB8ue170006Ev, symObjAddr: 0x473C, symBinAddr: 0x10001C054, symSize: 0x18 }
  - { offsetInCU: 0x3CB83, offset: 0x701AE, size: 0x8, addend: 0x0, symName: __ZNSt3__111__wrap_iterIPPN7doctest9IReporterEEppB8ue170006Ev, symObjAddr: 0x4754, symBinAddr: 0x10001C06C, symSize: 0x20 }
  - { offsetInCU: 0x3CBA8, offset: 0x701D3, size: 0x8, addend: 0x0, symName: __ZNSt3__113unordered_setIyNS_4hashIyEENS_8equal_toIyEENS_9allocatorIyEEE4findB8ue170006ERKy, symObjAddr: 0x47A4, symBinAddr: 0x10001C0BC, symSize: 0x40 }
  - { offsetInCU: 0x3CBDC, offset: 0x70207, size: 0x8, addend: 0x0, symName: __ZNSt3__113unordered_setIyNS_4hashIyEENS_8equal_toIyEENS_9allocatorIyEEE3endB8ue170006Ev, symObjAddr: 0x48FC, symBinAddr: 0x10001C214, symSize: 0x38 }
  - { offsetInCU: 0x3CC01, offset: 0x7022C, size: 0x8, addend: 0x0, symName: __ZNSt3__16vectorIN7doctest16SubcaseSignatureENS_9allocatorIS2_EEE5clearB8ue170006Ev, symObjAddr: 0x4934, symBinAddr: 0x10001C24C, symSize: 0x44 }
  - { offsetInCU: 0x3CC35, offset: 0x70260, size: 0x8, addend: 0x0, symName: __ZNSt3__16vectorIN7doctest16SubcaseSignatureENS_9allocatorIS2_EEE6insertINS_11__wrap_iterIPS2_EELi0EEES9_NS7_IPKS2_EET_SD_, symObjAddr: 0x4978, symBinAddr: 0x10001C290, symSize: 0x84 }
  - { offsetInCU: 0x3CC97, offset: 0x702C2, size: 0x8, addend: 0x0, symName: __ZNSt3__16vectorIN7doctest16SubcaseSignatureENS_9allocatorIS2_EEE3endB8ue170006Ev, symObjAddr: 0x49FC, symBinAddr: 0x10001C314, symSize: 0x30 }
  - { offsetInCU: 0x3CCC7, offset: 0x702F2, size: 0x8, addend: 0x0, symName: __ZNSt3__111__wrap_iterIPKN7doctest16SubcaseSignatureEEC1B8ue170006IPS2_EERKNS0_IT_EEPNS_9enable_ifIXsr14is_convertibleIS8_S4_EE5valueEvE4typeE, symObjAddr: 0x4A2C, symBinAddr: 0x10001C344, symSize: 0x3C }
  - { offsetInCU: 0x3CD11, offset: 0x7033C, size: 0x8, addend: 0x0, symName: __ZNSt3__16vectorIN7doctest16SubcaseSignatureENS_9allocatorIS2_EEE5beginB8ue170006Ev, symObjAddr: 0x4A68, symBinAddr: 0x10001C380, symSize: 0x30 }
  - { offsetInCU: 0x3CD37, offset: 0x70362, size: 0x8, addend: 0x0, symName: __ZNKSt3__111__wrap_iterIPN7doctest16SubcaseSignatureEEplB8ue170006El, symObjAddr: 0x4A98, symBinAddr: 0x10001C3B0, symSize: 0x3C }
  - { offsetInCU: 0x3CD7D, offset: 0x703A8, size: 0x8, addend: 0x0, symName: __ZN7doctest16SubcaseSignatureD1Ev, symObjAddr: 0x4AD4, symBinAddr: 0x10001C3EC, symSize: 0x2C }
  - { offsetInCU: 0x3CDA9, offset: 0x703D4, size: 0x8, addend: 0x0, symName: __ZN7doctest6detail7SubcaseC1ERKNS_6StringEPKci, symObjAddr: 0x4B00, symBinAddr: 0x10001C418, symSize: 0x44 }
  - { offsetInCU: 0x3CE01, offset: 0x7042C, size: 0x8, addend: 0x0, symName: __ZN7doctest6detail7SubcaseD2Ev, symObjAddr: 0x4B44, symBinAddr: 0x10001C45C, symSize: 0x330 }
  - { offsetInCU: 0x3CEDD, offset: 0x70508, size: 0x8, addend: 0x0, symName: __ZNSt3__113unordered_setIyNS_4hashIyEENS_8equal_toIyEENS_9allocatorIyEEE6insertB8ue170006EOy, symObjAddr: 0x4E74, symBinAddr: 0x10001C78C, symSize: 0x4C }
  - { offsetInCU: 0x3CF11, offset: 0x7053C, size: 0x8, addend: 0x0, symName: __ZNKSt3__16vectorIN7doctest16SubcaseSignatureENS_9allocatorIS2_EEE5emptyB8ue170006Ev, symObjAddr: 0x4F64, symBinAddr: 0x10001C870, symSize: 0x28 }
  - { offsetInCU: 0x3CF36, offset: 0x70561, size: 0x8, addend: 0x0, symName: __ZNKSt3__113__atomic_baseIbLb0EEcvbB8ue170006Ev, symObjAddr: 0x4F8C, symBinAddr: 0x10001C898, symSize: 0x2C }
  - { offsetInCU: 0x3CF60, offset: 0x7058B, size: 0x8, addend: 0x0, symName: __ZN7doctest17TestCaseExceptionD1Ev, symObjAddr: 0x4FB8, symBinAddr: 0x10001C8C4, symSize: 0x2C }
  - { offsetInCU: 0x3CF8C, offset: 0x705B7, size: 0x8, addend: 0x0, symName: __ZN7doctest6detail7SubcaseD1Ev, symObjAddr: 0x4FE4, symBinAddr: 0x10001C8F0, symSize: 0x2C }
  - { offsetInCU: 0x3CFB7, offset: 0x705E2, size: 0x8, addend: 0x0, symName: __ZNK7doctest6detail7SubcasecvbEv, symObjAddr: 0x5010, symBinAddr: 0x10001C91C, symSize: 0x1C }
  - { offsetInCU: 0x3CFDE, offset: 0x70609, size: 0x8, addend: 0x0, symName: __ZN7doctest6detail6ResultC2EbRKNS_6StringE, symObjAddr: 0x502C, symBinAddr: 0x10001C938, symSize: 0x50 }
  - { offsetInCU: 0x3D027, offset: 0x70652, size: 0x8, addend: 0x0, symName: __ZN7doctest6detail6ResultC1EbRKNS_6StringE, symObjAddr: 0x507C, symBinAddr: 0x10001C988, symSize: 0x48 }
  - { offsetInCU: 0x3D070, offset: 0x7069B, size: 0x8, addend: 0x0, symName: __ZN7doctest6detail20ExpressionDecomposerC2ENS_10assertType4EnumE, symObjAddr: 0x50C4, symBinAddr: 0x10001C9D0, symSize: 0x20 }
  - { offsetInCU: 0x3D0AA, offset: 0x706D5, size: 0x8, addend: 0x0, symName: __ZN7doctest6detail20ExpressionDecomposerC1ENS_10assertType4EnumE, symObjAddr: 0x50E4, symBinAddr: 0x10001C9F0, symSize: 0x34 }
  - { offsetInCU: 0x3D0E4, offset: 0x7070F, size: 0x8, addend: 0x0, symName: __ZN7doctest6detail8TestCaseC2EPFvvEPKcjRKNS0_9TestSuiteERKNS_6StringEi, symObjAddr: 0x5118, symBinAddr: 0x10001CA24, symSize: 0x1AC }
  - { offsetInCU: 0x3D170, offset: 0x7079B, size: 0x8, addend: 0x0, symName: __ZN7doctest12TestCaseDataC2Ev, symObjAddr: 0x52C4, symBinAddr: 0x10001CBD0, symSize: 0x2C }
  - { offsetInCU: 0x3D19C, offset: 0x707C7, size: 0x8, addend: 0x0, symName: __ZN7doctest12TestCaseDataD2Ev, symObjAddr: 0x52F0, symBinAddr: 0x10001CBFC, symSize: 0x2C }
  - { offsetInCU: 0x3D1C8, offset: 0x707F3, size: 0x8, addend: 0x0, symName: __ZN7doctest6detail8TestCaseC1EPFvvEPKcjRKNS0_9TestSuiteERKNS_6StringEi, symObjAddr: 0x531C, symBinAddr: 0x10001CC28, symSize: 0x5C }
  - { offsetInCU: 0x3D24D, offset: 0x70878, size: 0x8, addend: 0x0, symName: __ZN7doctest6detail8TestCaseC2ERKS1_, symObjAddr: 0x5378, symBinAddr: 0x10001CC84, symSize: 0xA4 }
  - { offsetInCU: 0x3D287, offset: 0x708B2, size: 0x8, addend: 0x0, symName: __ZN7doctest6detail8TestCaseaSERKS1_, symObjAddr: 0x541C, symBinAddr: 0x10001CD28, symSize: 0xA4 }
  - { offsetInCU: 0x3D2BC, offset: 0x708E7, size: 0x8, addend: 0x0, symName: __ZN7doctest6detail8TestCaseC1ERKS1_, symObjAddr: 0x54C0, symBinAddr: 0x10001CDCC, symSize: 0x34 }
  - { offsetInCU: 0x3D2FB, offset: 0x70926, size: 0x8, addend: 0x0, symName: __ZN7doctest12TestCaseDataaSERKS0_, symObjAddr: 0x54F4, symBinAddr: 0x10001CE00, symSize: 0x4C }
  - { offsetInCU: 0x3D32C, offset: 0x70957, size: 0x8, addend: 0x0, symName: __ZN7doctest6detail8TestCasemlEPKc, symObjAddr: 0x5540, symBinAddr: 0x10001CE4C, symSize: 0x1E0 }
  - { offsetInCU: 0x3D361, offset: 0x7098C, size: 0x8, addend: 0x0, symName: __ZNK7doctest6detail8TestCaseltERKS1_, symObjAddr: 0x5720, symBinAddr: 0x10001D02C, symSize: 0x12C }
  - { offsetInCU: 0x3D3B4, offset: 0x709DF, size: 0x8, addend: 0x0, symName: __ZNSt3__13setIN7doctest6detail8TestCaseENS_4lessIS3_EENS_9allocatorIS3_EEEC1B8ue170006Ev, symObjAddr: 0x58E0, symBinAddr: 0x10001D1EC, symSize: 0x2C }
  - { offsetInCU: 0x3D3DD, offset: 0x70A08, size: 0x8, addend: 0x0, symName: __ZNSt3__13setIN7doctest6detail8TestCaseENS_4lessIS3_EENS_9allocatorIS3_EEED1B8ue170006Ev, symObjAddr: 0x590C, symBinAddr: 0x10001D218, symSize: 0x2C }
  - { offsetInCU: 0x3D406, offset: 0x70A31, size: 0x8, addend: 0x0, symName: __ZNSt3__13setIN7doctest6detail8TestCaseENS_4lessIS3_EENS_9allocatorIS3_EEE6insertB8ue170006ERKS3_, symObjAddr: 0x596C, symBinAddr: 0x10001D278, symSize: 0x4C }
  - { offsetInCU: 0x3D43F, offset: 0x70A6A, size: 0x8, addend: 0x0, symName: __ZN7doctest6detail10ErrnoGuardC1Ev, symObjAddr: 0x5BB0, symBinAddr: 0x10001D4BC, symSize: 0x2C }
  - { offsetInCU: 0x3D500, offset: 0x70B2B, size: 0x8, addend: 0x0, symName: __ZNSt3__114basic_ifstreamIcNS_11char_traitsIcEEEC1EPKcj, symObjAddr: 0x5BDC, symBinAddr: 0x10001D4E8, symSize: 0x16C }
  - { offsetInCU: 0x3D549, offset: 0x70B74, size: 0x8, addend: 0x0, symName: __ZNKSt3__19basic_iosIcNS_11char_traitsIcEEEcvbB8ue170006Ev, symObjAddr: 0x5DD0, symBinAddr: 0x10001D6B0, symSize: 0x2C }
  - { offsetInCU: 0x3D56E, offset: 0x70B99, size: 0x8, addend: 0x0, symName: __ZNKSt3__112basic_stringIcNS_11char_traitsIcEENS_9allocatorIcEEE6lengthB8ue170006Ev, symObjAddr: 0x5DFC, symBinAddr: 0x10001D6DC, symSize: 0x24 }
  - { offsetInCU: 0x3D593, offset: 0x70BBE, size: 0x8, addend: 0x0, symName: __ZNSt3__112basic_stringIcNS_11char_traitsIcEENS_9allocatorIcEEEixB8ue170006Em, symObjAddr: 0x5E20, symBinAddr: 0x10001D700, symSize: 0x30 }
  - { offsetInCU: 0x3D5CC, offset: 0x70BF7, size: 0x8, addend: 0x0, symName: __ZNSt3__114basic_ifstreamIcNS_11char_traitsIcEEED1Ev, symObjAddr: 0x5E50, symBinAddr: 0x10001D730, symSize: 0x40 }
  - { offsetInCU: 0x3D5F8, offset: 0x70C23, size: 0x8, addend: 0x0, symName: __ZN7doctest6detail10ErrnoGuardD1Ev, symObjAddr: 0x5E90, symBinAddr: 0x10001D770, symSize: 0x2C }
  - { offsetInCU: 0x3D621, offset: 0x70C4C, size: 0x8, addend: 0x0, symName: __ZNSt3__16vectorIPKN7doctest6detail20IExceptionTranslatorENS_9allocatorIS5_EEE5beginB8ue170006Ev, symObjAddr: 0x609C, symBinAddr: 0x10001D97C, symSize: 0x30 }
  - { offsetInCU: 0x3D647, offset: 0x70C72, size: 0x8, addend: 0x0, symName: __ZNSt3__16vectorIPKN7doctest6detail20IExceptionTranslatorENS_9allocatorIS5_EEE3endB8ue170006Ev, symObjAddr: 0x60CC, symBinAddr: 0x10001D9AC, symSize: 0x30 }
  - { offsetInCU: 0x3D66D, offset: 0x70C98, size: 0x8, addend: 0x0, symName: __ZNSt3__16vectorIPKN7doctest6detail20IExceptionTranslatorENS_9allocatorIS5_EEE9push_backB8ue170006ERKS5_, symObjAddr: 0x60FC, symBinAddr: 0x10001D9DC, symSize: 0x6C }
  - { offsetInCU: 0x3D6A2, offset: 0x70CCD, size: 0x8, addend: 0x0, symName: __ZNSt3__16vectorIPN7doctest13IContextScopeENS_9allocatorIS3_EEEC1B8ue170006Ev, symObjAddr: 0x6168, symBinAddr: 0x10001DA48, symSize: 0x2C }
  - { offsetInCU: 0x3D6CB, offset: 0x70CF6, size: 0x8, addend: 0x0, symName: __ZNSt3__16vectorIPN7doctest13IContextScopeENS_9allocatorIS3_EEED1B8ue170006Ev, symObjAddr: 0x6194, symBinAddr: 0x10001DA74, symSize: 0x2C }
  - { offsetInCU: 0x3D70D, offset: 0x70D38, size: 0x8, addend: 0x0, symName: __ZN7doctest6detail16ContextScopeBaseC2Ev, symObjAddr: 0x61C0, symBinAddr: 0x10001DAA0, symSize: 0x88 }
  - { offsetInCU: 0x3D738, offset: 0x70D63, size: 0x8, addend: 0x0, symName: __ZN7doctest13IContextScopeC2Ev, symObjAddr: 0x6248, symBinAddr: 0x10001DB28, symSize: 0x24 }
  - { offsetInCU: 0x3D761, offset: 0x70D8C, size: 0x8, addend: 0x0, symName: __ZNSt3__16vectorIPN7doctest13IContextScopeENS_9allocatorIS3_EEE9push_backB8ue170006EOS3_, symObjAddr: 0x6290, symBinAddr: 0x10001DB70, symSize: 0x6C }
  - { offsetInCU: 0x3D796, offset: 0x70DC1, size: 0x8, addend: 0x0, symName: __ZN7doctest6detail16ContextScopeBaseC2EOS1_, symObjAddr: 0x62FC, symBinAddr: 0x10001DBDC, symSize: 0xA0 }
  - { offsetInCU: 0x3D7D0, offset: 0x70DFB, size: 0x8, addend: 0x0, symName: __ZN7doctest6detail16ContextScopeBase7destroyEv, symObjAddr: 0x639C, symBinAddr: 0x10001DC7C, symSize: 0x158 }
  - { offsetInCU: 0x3D80C, offset: 0x70E37, size: 0x8, addend: 0x0, symName: __ZNSt3__119basic_ostringstreamIcNS_11char_traitsIcEENS_9allocatorIcEEEC1B8ue170006Ev, symObjAddr: 0x64F4, symBinAddr: 0x10001DDD4, symSize: 0xEC }
  - { offsetInCU: 0x3D835, offset: 0x70E60, size: 0x8, addend: 0x0, symName: __ZNSt3__16vectorIN7doctest6StringENS_9allocatorIS2_EEE9push_backB8ue170006EOS2_, symObjAddr: 0x65E0, symBinAddr: 0x10001DEC0, symSize: 0x6C }
  - { offsetInCU: 0x3D86A, offset: 0x70E95, size: 0x8, addend: 0x0, symName: __ZNKSt3__119basic_ostringstreamIcNS_11char_traitsIcEENS_9allocatorIcEEE3strB8ue170006Ev, symObjAddr: 0x664C, symBinAddr: 0x10001DF2C, symSize: 0x30 }
  - { offsetInCU: 0x3D88F, offset: 0x70EBA, size: 0x8, addend: 0x0, symName: __ZNKSt3__112basic_stringIcNS_11char_traitsIcEENS_9allocatorIcEEE5c_strB8ue170006Ev, symObjAddr: 0x667C, symBinAddr: 0x10001DF5C, symSize: 0x24 }
  - { offsetInCU: 0x3D8B9, offset: 0x70EE4, size: 0x8, addend: 0x0, symName: __ZNSt3__119basic_ostringstreamIcNS_11char_traitsIcEENS_9allocatorIcEEED1Ev, symObjAddr: 0x66A0, symBinAddr: 0x10001DF80, symSize: 0x40 }
  - { offsetInCU: 0x3D8E5, offset: 0x70F10, size: 0x8, addend: 0x0, symName: __ZNSt3__16vectorIPN7doctest13IContextScopeENS_9allocatorIS3_EEE8pop_backEv, symObjAddr: 0x66E0, symBinAddr: 0x10001DFC0, symSize: 0x2C }
  - { offsetInCU: 0x3D90B, offset: 0x70F36, size: 0x8, addend: 0x0, symName: __ZN7doctest10AssertDataC2ENS_10assertType4EnumEPKciS4_S4_RKNS0_14StringContainsE, symObjAddr: 0x670C, symBinAddr: 0x10001DFEC, symSize: 0xE4 }
  - { offsetInCU: 0x3D990, offset: 0x70FBB, size: 0x8, addend: 0x0, symName: __ZN7doctest10AssertData14StringContainsC1ERKS1_, symObjAddr: 0x67F0, symBinAddr: 0x10001E0D0, symSize: 0x34 }
  - { offsetInCU: 0x3D9C5, offset: 0x70FF0, size: 0x8, addend: 0x0, symName: __ZN7doctest10AssertDataC1ENS_10assertType4EnumEPKciS4_S4_RKNS0_14StringContainsE, symObjAddr: 0x6824, symBinAddr: 0x10001E104, symSize: 0x5C }
  - { offsetInCU: 0x3DA68, offset: 0x71093, size: 0x8, addend: 0x0, symName: __ZN7doctest6detail13ResultBuilderC2ENS_10assertType4EnumEPKciS5_S5_RKNS_6StringE, symObjAddr: 0x6880, symBinAddr: 0x10001E160, symSize: 0xF8 }
  - { offsetInCU: 0x3DAF1, offset: 0x7111C, size: 0x8, addend: 0x0, symName: __ZN7doctest10AssertData14StringContainsC1ERKNS_6StringE, symObjAddr: 0x6978, symBinAddr: 0x10001E258, symSize: 0x34 }
  - { offsetInCU: 0x3DB29, offset: 0x71154, size: 0x8, addend: 0x0, symName: __ZN7doctest10AssertData14StringContainsD1Ev, symObjAddr: 0x69AC, symBinAddr: 0x10001E28C, symSize: 0x2C }
  - { offsetInCU: 0x3DB55, offset: 0x71180, size: 0x8, addend: 0x0, symName: __ZN7doctest6detail13ResultBuilderC1ENS_10assertType4EnumEPKciS5_S5_RKNS_6StringE, symObjAddr: 0x69D8, symBinAddr: 0x10001E2B8, symSize: 0x5C }
  - { offsetInCU: 0x3DBDA, offset: 0x71205, size: 0x8, addend: 0x0, symName: __ZN7doctest6detail13ResultBuilderC2ENS_10assertType4EnumEPKciS5_S5_RKNS_8ContainsE, symObjAddr: 0x6A34, symBinAddr: 0x10001E314, symSize: 0x12C }
  - { offsetInCU: 0x3DC66, offset: 0x71291, size: 0x8, addend: 0x0, symName: __ZN7doctest8ContainsC1ERKS0_, symObjAddr: 0x6B60, symBinAddr: 0x10001E440, symSize: 0x34 }
  - { offsetInCU: 0x3DC9B, offset: 0x712C6, size: 0x8, addend: 0x0, symName: __ZN7doctest10AssertData14StringContainsC1ENS_8ContainsE, symObjAddr: 0x6B94, symBinAddr: 0x10001E474, symSize: 0x34 }
  - { offsetInCU: 0x3DCD4, offset: 0x712FF, size: 0x8, addend: 0x0, symName: __ZN7doctest8ContainsD1Ev, symObjAddr: 0x6BC8, symBinAddr: 0x10001E4A8, symSize: 0x2C }
  - { offsetInCU: 0x3DD00, offset: 0x7132B, size: 0x8, addend: 0x0, symName: __ZN7doctest6detail13ResultBuilderC1ENS_10assertType4EnumEPKciS5_S5_RKNS_8ContainsE, symObjAddr: 0x6BF4, symBinAddr: 0x10001E4D4, symSize: 0x5C }
  - { offsetInCU: 0x3DD85, offset: 0x713B0, size: 0x8, addend: 0x0, symName: __ZN7doctest6detail13ResultBuilder9setResultERKNS0_6ResultE, symObjAddr: 0x6C50, symBinAddr: 0x10001E530, symSize: 0x54 }
  - { offsetInCU: 0x3DDBA, offset: 0x713E5, size: 0x8, addend: 0x0, symName: __ZN7doctest6detail13ResultBuilder18translateExceptionEv, symObjAddr: 0x6CA4, symBinAddr: 0x10001E584, symSize: 0x84 }
  - { offsetInCU: 0x3DDE0, offset: 0x7140B, size: 0x8, addend: 0x0, symName: __ZN7doctest6detail13ResultBuilder3logEv, symObjAddr: 0x6FE4, symBinAddr: 0x10001E8C4, symSize: 0x428 }
  - { offsetInCU: 0x3DE5D, offset: 0x71488, size: 0x8, addend: 0x0, symName: __ZN7doctest10AssertData14StringContains5checkERKNS_6StringE, symObjAddr: 0x740C, symBinAddr: 0x10001ECEC, symSize: 0x64 }
  - { offsetInCU: 0x3DE91, offset: 0x714BC, size: 0x8, addend: 0x0, symName: __ZNK7doctest6detail13ResultBuilder5reactEv, symObjAddr: 0x7554, symBinAddr: 0x10001EE34, symSize: 0x48 }
  - { offsetInCU: 0x3DEB7, offset: 0x714E2, size: 0x8, addend: 0x0, symName: __ZN7doctest6detail13ResultBuilderD1Ev, symObjAddr: 0x78EC, symBinAddr: 0x10001F1CC, symSize: 0x2C }
  - { offsetInCU: 0x3DEFC, offset: 0x71527, size: 0x8, addend: 0x0, symName: __ZN7doctest6detail14MessageBuilderC2EPKciNS_10assertType4EnumE, symObjAddr: 0x7918, symBinAddr: 0x10001F1F8, symSize: 0x90 }
  - { offsetInCU: 0x3DF59, offset: 0x71584, size: 0x8, addend: 0x0, symName: __ZN7doctest11MessageDataC2Ev, symObjAddr: 0x79A8, symBinAddr: 0x10001F288, symSize: 0x2C }
  - { offsetInCU: 0x3DF85, offset: 0x715B0, size: 0x8, addend: 0x0, symName: __ZN7doctest11MessageDataD2Ev, symObjAddr: 0x79D4, symBinAddr: 0x10001F2B4, symSize: 0x2C }
  - { offsetInCU: 0x3DFB1, offset: 0x715DC, size: 0x8, addend: 0x0, symName: __ZN7doctest6detail14MessageBuilderC1EPKciNS_10assertType4EnumE, symObjAddr: 0x7A00, symBinAddr: 0x10001F2E0, symSize: 0x44 }
  - { offsetInCU: 0x3E009, offset: 0x71634, size: 0x8, addend: 0x0, symName: __ZN7doctest6detail14MessageBuilderD2Ev, symObjAddr: 0x7A44, symBinAddr: 0x10001F324, symSize: 0x9C }
  - { offsetInCU: 0x3E034, offset: 0x7165F, size: 0x8, addend: 0x0, symName: __ZN7doctest6detail14MessageBuilderD1Ev, symObjAddr: 0x7AE0, symBinAddr: 0x10001F3C0, symSize: 0x2C }
  - { offsetInCU: 0x3E05F, offset: 0x7168A, size: 0x8, addend: 0x0, symName: __ZN7doctest6detail20IExceptionTranslatorD2Ev, symObjAddr: 0x7B0C, symBinAddr: 0x10001F3EC, symSize: 0x14 }
  - { offsetInCU: 0x3E08A, offset: 0x716B5, size: 0x8, addend: 0x0, symName: __ZN7doctest6detail20IExceptionTranslatorD1Ev, symObjAddr: 0x7B20, symBinAddr: 0x10001F400, symSize: 0x14 }
  - { offsetInCU: 0x3E0B5, offset: 0x716E0, size: 0x8, addend: 0x0, symName: __ZN7doctest6detail20IExceptionTranslatorD0Ev, symObjAddr: 0x7B34, symBinAddr: 0x10001F414, symSize: 0xC }
  - { offsetInCU: 0x3E0E0, offset: 0x7170B, size: 0x8, addend: 0x0, symName: __ZN7doctest6detail14MessageBuilder3logEv, symObjAddr: 0x7B40, symBinAddr: 0x10001F420, symSize: 0x1EC }
  - { offsetInCU: 0x3E169, offset: 0x71794, size: 0x8, addend: 0x0, symName: __ZN7doctest6detail14MessageBuilder5reactEv, symObjAddr: 0x7D2C, symBinAddr: 0x10001F60C, symSize: 0x38 }
  - { offsetInCU: 0x3E1B2, offset: 0x717DD, size: 0x8, addend: 0x0, symName: __ZN7doctest7ContextC2EiPKPKc, symObjAddr: 0x7E48, symBinAddr: 0x10001F728, symSize: 0x110 }
  - { offsetInCU: 0x3E1FB, offset: 0x71826, size: 0x8, addend: 0x0, symName: __ZN7doctest6detail12ContextStateC1Ev, symObjAddr: 0x7F58, symBinAddr: 0x10001F838, symSize: 0x2C }
  - { offsetInCU: 0x3E227, offset: 0x71852, size: 0x8, addend: 0x0, symName: __ZN7doctest7Context9parseArgsEiPKPKcb, symObjAddr: 0x7F84, symBinAddr: 0x10001F864, symSize: 0x23DC }
  - { offsetInCU: 0x3E2A6, offset: 0x718D1, size: 0x8, addend: 0x0, symName: __ZN7doctest7ContextC1EiPKPKc, symObjAddr: 0xA360, symBinAddr: 0x100021C40, symSize: 0x3C }
  - { offsetInCU: 0x3E2EF, offset: 0x7191A, size: 0x8, addend: 0x0, symName: __ZN7doctest7ContextD2Ev, symObjAddr: 0xA39C, symBinAddr: 0x100021C7C, symSize: 0x88 }
  - { offsetInCU: 0x3E31A, offset: 0x71945, size: 0x8, addend: 0x0, symName: __ZN7doctest6detail12ContextStateD1Ev, symObjAddr: 0xA424, symBinAddr: 0x100021D04, symSize: 0x2C }
  - { offsetInCU: 0x3E346, offset: 0x71971, size: 0x8, addend: 0x0, symName: __ZN7doctest7ContextD1Ev, symObjAddr: 0xA450, symBinAddr: 0x100021D30, symSize: 0x2C }
  - { offsetInCU: 0x3E371, offset: 0x7199C, size: 0x8, addend: 0x0, symName: __ZN7doctest7Context16applyCommandLineEiPKPKc, symObjAddr: 0xA47C, symBinAddr: 0x100021D5C, symSize: 0xBC }
  - { offsetInCU: 0x3E3B5, offset: 0x719E0, size: 0x8, addend: 0x0, symName: __ZN7doctest7Context9addFilterEPKcS2_, symObjAddr: 0xAC8C, symBinAddr: 0x10002256C, symSize: 0x34 }
  - { offsetInCU: 0x3E3F9, offset: 0x71A24, size: 0x8, addend: 0x0, symName: __ZN7doctest7Context9setOptionEPKcS2_, symObjAddr: 0xACC0, symBinAddr: 0x1000225A0, symSize: 0x218 }
  - { offsetInCU: 0x3E45B, offset: 0x71A86, size: 0x8, addend: 0x0, symName: __ZN7doctest7Context12clearFiltersEv, symObjAddr: 0xAED8, symBinAddr: 0x1000227B8, symSize: 0x84 }
  - { offsetInCU: 0x3E4D5, offset: 0x71B00, size: 0x8, addend: 0x0, symName: __ZNSt3__16vectorINS0_IN7doctest6StringENS_9allocatorIS2_EEEENS3_IS5_EEE5beginB8ue170006Ev, symObjAddr: 0xAF5C, symBinAddr: 0x10002283C, symSize: 0x30 }
  - { offsetInCU: 0x3E4FB, offset: 0x71B26, size: 0x8, addend: 0x0, symName: __ZNSt3__16vectorINS0_IN7doctest6StringENS_9allocatorIS2_EEEENS3_IS5_EEE3endB8ue170006Ev, symObjAddr: 0xAF8C, symBinAddr: 0x10002286C, symSize: 0x30 }
  - { offsetInCU: 0x3E521, offset: 0x71B4C, size: 0x8, addend: 0x0, symName: __ZNKSt3__111__wrap_iterIPNS_6vectorIN7doctest6StringENS_9allocatorIS3_EEEEEdeB8ue170006Ev, symObjAddr: 0xAFF0, symBinAddr: 0x1000228D0, symSize: 0x18 }
  - { offsetInCU: 0x3E546, offset: 0x71B71, size: 0x8, addend: 0x0, symName: __ZNSt3__16vectorIN7doctest6StringENS_9allocatorIS2_EEE5clearB8ue170006Ev, symObjAddr: 0xB008, symBinAddr: 0x1000228E8, symSize: 0x44 }
  - { offsetInCU: 0x3E57A, offset: 0x71BA5, size: 0x8, addend: 0x0, symName: __ZNSt3__111__wrap_iterIPNS_6vectorIN7doctest6StringENS_9allocatorIS3_EEEEEppB8ue170006Ev, symObjAddr: 0xB04C, symBinAddr: 0x10002292C, symSize: 0x20 }
  - { offsetInCU: 0x3E59F, offset: 0x71BCA, size: 0x8, addend: 0x0, symName: __ZN7doctest7Context9setOptionEPKcb, symObjAddr: 0xB06C, symBinAddr: 0x10002294C, symSize: 0x58 }
  - { offsetInCU: 0x3E5E3, offset: 0x71C0E, size: 0x8, addend: 0x0, symName: __ZN7doctest7Context9setOptionEPKci, symObjAddr: 0xB0C4, symBinAddr: 0x1000229A4, symSize: 0xC4 }
  - { offsetInCU: 0x3E627, offset: 0x71C52, size: 0x8, addend: 0x0, symName: __ZN7doctest7Context10shouldExitEv, symObjAddr: 0xB188, symBinAddr: 0x100022A68, symSize: 0x20 }
  - { offsetInCU: 0x3E64E, offset: 0x71C79, size: 0x8, addend: 0x0, symName: __ZN7doctest7Context36setAsDefaultForAssertsOutOfTestCasesEv, symObjAddr: 0xB1A8, symBinAddr: 0x100022A88, symSize: 0x20 }
  - { offsetInCU: 0x3E675, offset: 0x71CA0, size: 0x8, addend: 0x0, symName: __ZN7doctest7Context16setAssertHandlerEPFvRKNS_10AssertDataEE, symObjAddr: 0xB1C8, symBinAddr: 0x100022AA8, symSize: 0x24 }
  - { offsetInCU: 0x3E6AB, offset: 0x71CD6, size: 0x8, addend: 0x0, symName: __ZN7doctest7Context7setCoutEPNSt3__113basic_ostreamIcNS1_11char_traitsIcEEEE, symObjAddr: 0xB1EC, symBinAddr: 0x100022ACC, symSize: 0x24 }
  - { offsetInCU: 0x3E6E1, offset: 0x71D0C, size: 0x8, addend: 0x0, symName: __ZN7doctest14DiscardOStreamC1Ev, symObjAddr: 0xB210, symBinAddr: 0x100022AF0, symSize: 0xE8 }
  - { offsetInCU: 0x3E70A, offset: 0x71D35, size: 0x8, addend: 0x0, symName: __ZN7doctest14DiscardOStreamD1Ev, symObjAddr: 0xB2F8, symBinAddr: 0x100022BD8, symSize: 0x40 }
  - { offsetInCU: 0x3E736, offset: 0x71D61, size: 0x8, addend: 0x0, symName: __ZN7doctest7Context3runEv, symObjAddr: 0xB338, symBinAddr: 0x100022C18, symSize: 0x168C }
  - { offsetInCU: 0x3ED5E, offset: 0x72389, size: 0x8, addend: 0x0, symName: __ZN7doctest6detail12ContextState12resetRunDataEv, symObjAddr: 0xC9C4, symBinAddr: 0x1000242A4, symSize: 0x34 }
  - { offsetInCU: 0x3ED9C, offset: 0x723C7, size: 0x8, addend: 0x0, symName: __ZNSt3__113basic_fstreamIcNS_11char_traitsIcEEEC1Ev, symObjAddr: 0xC9F8, symBinAddr: 0x1000242D8, symSize: 0x100 }
  - { offsetInCU: 0x3EDC7, offset: 0x723F2, size: 0x8, addend: 0x0, symName: __ZNSt3__113basic_fstreamIcNS_11char_traitsIcEEE4openEPKcj, symObjAddr: 0xCAF8, symBinAddr: 0x1000243D8, symSize: 0x84 }
  - { offsetInCU: 0x3EE0B, offset: 0x72436, size: 0x8, addend: 0x0, symName: __ZN7doctest12_GLOBAL__N_121FatalConditionHandler19allocateAltStackMemEv, symObjAddr: 0xCB7C, symBinAddr: 0x10002445C, symSize: 0x24 }
  - { offsetInCU: 0x3EE1F, offset: 0x7244A, size: 0x8, addend: 0x0, symName: __ZNKSt3__16vectorIN7doctest6StringENS_9allocatorIS2_EEE5emptyB8ue170006Ev, symObjAddr: 0xCBA0, symBinAddr: 0x100024480, symSize: 0x28 }
  - { offsetInCU: 0x3EE44, offset: 0x7246F, size: 0x8, addend: 0x0, symName: __ZNSt3__13mapINS_4pairIiN7doctest6StringEEEPFPNS2_9IReporterERKNS2_14ContextOptionsEENS_4lessIS4_EENS_9allocatorINS1_IKS4_SB_EEEEE5beginB8ue170006Ev, symObjAddr: 0xCC5C, symBinAddr: 0x10002453C, symSize: 0x38 }
  - { offsetInCU: 0x3EE69, offset: 0x72494, size: 0x8, addend: 0x0, symName: __ZNSt3__13mapINS_4pairIiN7doctest6StringEEEPFPNS2_9IReporterERKNS2_14ContextOptionsEENS_4lessIS4_EENS_9allocatorINS1_IKS4_SB_EEEEE3endB8ue170006Ev, symObjAddr: 0xCC94, symBinAddr: 0x100024574, symSize: 0x38 }
  - { offsetInCU: 0x3EE8E, offset: 0x724B9, size: 0x8, addend: 0x0, symName: __ZNKSt3__114__map_iteratorINS_15__tree_iteratorINS_12__value_typeINS_4pairIiN7doctest6StringEEEPFPNS4_9IReporterERKNS4_14ContextOptionsEEEEPNS_11__tree_nodeISE_PvEElEEEdeB8ue170006Ev, symObjAddr: 0xCCFC, symBinAddr: 0x1000245DC, symSize: 0x28 }
  - { offsetInCU: 0x3EEB3, offset: 0x724DE, size: 0x8, addend: 0x0, symName: __ZNSt3__16vectorIPN7doctest9IReporterENS_9allocatorIS3_EEE9push_backB8ue170006EOS3_, symObjAddr: 0xCD24, symBinAddr: 0x100024604, symSize: 0x6C }
  - { offsetInCU: 0x3EEE8, offset: 0x72513, size: 0x8, addend: 0x0, symName: __ZNSt3__114__map_iteratorINS_15__tree_iteratorINS_12__value_typeINS_4pairIiN7doctest6StringEEEPFPNS4_9IReporterERKNS4_14ContextOptionsEEEEPNS_11__tree_nodeISE_PvEElEEEppB8ue170006Ev, symObjAddr: 0xCD90, symBinAddr: 0x100024670, symSize: 0x2C }
  - { offsetInCU: 0x3EF0D, offset: 0x72538, size: 0x8, addend: 0x0, symName: __ZNSt3__16vectorIPN7doctest9IReporterENS_9allocatorIS3_EEE6insertENS_11__wrap_iterIPKS3_EEOS3_, symObjAddr: 0xCE50, symBinAddr: 0x100024730, symSize: 0x1AC }
  - { offsetInCU: 0x3EF8A, offset: 0x725B5, size: 0x8, addend: 0x0, symName: __ZNSt3__111__wrap_iterIPKPN7doctest9IReporterEEC1B8ue170006IPS3_EERKNS0_IT_EEPNS_9enable_ifIXsr14is_convertibleIS9_S5_EE5valueEvE4typeE, symObjAddr: 0xCFFC, symBinAddr: 0x1000248DC, symSize: 0x3C }
  - { offsetInCU: 0x3EFD9, offset: 0x72604, size: 0x8, addend: 0x0, symName: __ZN7doctest9QueryDataC1Ev, symObjAddr: 0xD038, symBinAddr: 0x100024918, symSize: 0x2C }
  - { offsetInCU: 0x3F01E, offset: 0x72649, size: 0x8, addend: 0x0, symName: '__ZZN7doctest7Context3runEvENK3$_1clEv', symObjAddr: 0xD064, symBinAddr: 0x100024944, symSize: 0x15C }
  - { offsetInCU: 0x3F09B, offset: 0x726C6, size: 0x8, addend: 0x0, symName: __ZNSt3__16vectorIPKN7doctest6detail8TestCaseENS_9allocatorIS5_EEEC1B8ue170006Ev, symObjAddr: 0xD1C0, symBinAddr: 0x100024AA0, symSize: 0x2C }
  - { offsetInCU: 0x3F0C4, offset: 0x726EF, size: 0x8, addend: 0x0, symName: __ZNSt3__13setIN7doctest6detail8TestCaseENS_4lessIS3_EENS_9allocatorIS3_EEE5beginB8ue170006Ev, symObjAddr: 0xD1EC, symBinAddr: 0x100024ACC, symSize: 0x38 }
  - { offsetInCU: 0x3F0E9, offset: 0x72714, size: 0x8, addend: 0x0, symName: __ZNSt3__13setIN7doctest6detail8TestCaseENS_4lessIS3_EENS_9allocatorIS3_EEE3endB8ue170006Ev, symObjAddr: 0xD224, symBinAddr: 0x100024B04, symSize: 0x38 }
  - { offsetInCU: 0x3F10E, offset: 0x72739, size: 0x8, addend: 0x0, symName: __ZNKSt3__121__tree_const_iteratorIN7doctest6detail8TestCaseEPNS_11__tree_nodeIS3_PvEElEdeB8ue170006Ev, symObjAddr: 0xD290, symBinAddr: 0x100024B70, symSize: 0x28 }
  - { offsetInCU: 0x3F133, offset: 0x7275E, size: 0x8, addend: 0x0, symName: __ZNSt3__16vectorIPKN7doctest6detail8TestCaseENS_9allocatorIS5_EEE9push_backB8ue170006EOS5_, symObjAddr: 0xD2B8, symBinAddr: 0x100024B98, symSize: 0x6C }
  - { offsetInCU: 0x3F168, offset: 0x72793, size: 0x8, addend: 0x0, symName: __ZNSt3__121__tree_const_iteratorIN7doctest6detail8TestCaseEPNS_11__tree_nodeIS3_PvEElEppB8ue170006Ev, symObjAddr: 0xD324, symBinAddr: 0x100024C04, symSize: 0x38 }
  - { offsetInCU: 0x3F18D, offset: 0x727B8, size: 0x8, addend: 0x0, symName: __ZNKSt3__16vectorIPKN7doctest6detail8TestCaseENS_9allocatorIS5_EEE4sizeB8ue170006Ev, symObjAddr: 0xD35C, symBinAddr: 0x100024C3C, symSize: 0x28 }
  - { offsetInCU: 0x3F1B2, offset: 0x727DD, size: 0x8, addend: 0x0, symName: __ZNKSt3__16vectorIPKN7doctest6detail8TestCaseENS_9allocatorIS5_EEE5emptyB8ue170006Ev, symObjAddr: 0xD384, symBinAddr: 0x100024C64, symSize: 0x28 }
  - { offsetInCU: 0x3F1D7, offset: 0x72802, size: 0x8, addend: 0x0, symName: __ZNSt3__16vectorIPKN7doctest6detail8TestCaseENS_9allocatorIS5_EEE5beginB8ue170006Ev, symObjAddr: 0xD3F4, symBinAddr: 0x100024CD4, symSize: 0x30 }
  - { offsetInCU: 0x3F1FD, offset: 0x72828, size: 0x8, addend: 0x0, symName: __ZNSt3__16vectorIPKN7doctest6detail8TestCaseENS_9allocatorIS5_EEE3endB8ue170006Ev, symObjAddr: 0xD424, symBinAddr: 0x100024D04, symSize: 0x30 }
  - { offsetInCU: 0x3F223, offset: 0x7284E, size: 0x8, addend: 0x0, symName: __ZNSt3__16vectorIPKN7doctest6detail8TestCaseENS_9allocatorIS5_EEEixB8ue170006Em, symObjAddr: 0xD64C, symBinAddr: 0x100024F2C, symSize: 0x24 }
  - { offsetInCU: 0x3F2BD, offset: 0x728E8, size: 0x8, addend: 0x0, symName: __ZNSt3__13setIN7doctest6StringENS_4lessIS2_EENS_9allocatorIS2_EEEC1B8ue170006Ev, symObjAddr: 0xD670, symBinAddr: 0x100024F50, symSize: 0x2C }
  - { offsetInCU: 0x3F2E6, offset: 0x72911, size: 0x8, addend: 0x0, symName: __ZNSt3__16vectorIPKN7doctest12TestCaseDataENS_9allocatorIS4_EEEC1B8ue170006Ev, symObjAddr: 0xD69C, symBinAddr: 0x100024F7C, symSize: 0x2C }
  - { offsetInCU: 0x3F30F, offset: 0x7293A, size: 0x8, addend: 0x0, symName: __ZNKSt3__111__wrap_iterIPPKN7doctest6detail8TestCaseEEdeB8ue170006Ev, symObjAddr: 0xD6FC, symBinAddr: 0x100024FDC, symSize: 0x18 }
  - { offsetInCU: 0x3F334, offset: 0x7295F, size: 0x8, addend: 0x0, symName: __ZNSt3__16vectorIPKN7doctest12TestCaseDataENS_9allocatorIS4_EEE9push_backB8ue170006EOS4_, symObjAddr: 0xD714, symBinAddr: 0x100024FF4, symSize: 0x6C }
  - { offsetInCU: 0x3F369, offset: 0x72994, size: 0x8, addend: 0x0, symName: __ZNKSt3__13setIN7doctest6StringENS_4lessIS2_EENS_9allocatorIS2_EEE5countB8ue170006ERKS2_, symObjAddr: 0xD780, symBinAddr: 0x100025060, symSize: 0x2C }
  - { offsetInCU: 0x3F39D, offset: 0x729C8, size: 0x8, addend: 0x0, symName: __ZNSt3__13setIN7doctest6StringENS_4lessIS2_EENS_9allocatorIS2_EEE6insertB8ue170006EOS2_, symObjAddr: 0xD7AC, symBinAddr: 0x10002508C, symSize: 0x4C }
  - { offsetInCU: 0x3F3D1, offset: 0x729FC, size: 0x8, addend: 0x0, symName: __ZN7doctest6detail15MultiLaneAtomicIiEaSEi, symObjAddr: 0xD7F8, symBinAddr: 0x1000250D8, symSize: 0x34 }
  - { offsetInCU: 0x3F405, offset: 0x72A30, size: 0x8, addend: 0x0, symName: __ZNSt3__113unordered_setIyNS_4hashIyEENS_8equal_toIyEENS_9allocatorIyEEE5clearB8ue170006Ev, symObjAddr: 0xD82C, symBinAddr: 0x10002510C, symSize: 0x24 }
  - { offsetInCU: 0x3F42A, offset: 0x72A55, size: 0x8, addend: 0x0, symName: __ZN7doctest6detail5Timer5startEv, symObjAddr: 0xD850, symBinAddr: 0x100025130, symSize: 0x30 }
  - { offsetInCU: 0x3F44F, offset: 0x72A7A, size: 0x8, addend: 0x0, symName: __ZN7doctest12_GLOBAL__N_121FatalConditionHandlerC1Ev, symObjAddr: 0xD880, symBinAddr: 0x100025160, symSize: 0x2C }
  - { offsetInCU: 0x3F478, offset: 0x72AA3, size: 0x8, addend: 0x0, symName: __ZN7doctest12_GLOBAL__N_121FatalConditionHandler5resetEv, symObjAddr: 0xD8AC, symBinAddr: 0x10002518C, symSize: 0xA0 }
  - { offsetInCU: 0x3F4AB, offset: 0x72AD6, size: 0x8, addend: 0x0, symName: __ZN7doctest12_GLOBAL__N_121FatalConditionHandlerD1Ev, symObjAddr: 0xD94C, symBinAddr: 0x10002522C, symSize: 0x2C }
  - { offsetInCU: 0x3F4D4, offset: 0x72AFF, size: 0x8, addend: 0x0, symName: __ZN7doctest6detail12ContextState20finalizeTestCaseDataEv, symObjAddr: 0xD978, symBinAddr: 0x100025258, symSize: 0x334 }
  - { offsetInCU: 0x3F508, offset: 0x72B33, size: 0x8, addend: 0x0, symName: __ZNSt3__111__wrap_iterIPPKN7doctest6detail8TestCaseEEppB8ue170006Ev, symObjAddr: 0xDCAC, symBinAddr: 0x10002558C, symSize: 0x20 }
  - { offsetInCU: 0x3F52D, offset: 0x72B58, size: 0x8, addend: 0x0, symName: __ZNSt3__16vectorIPKN7doctest12TestCaseDataENS_9allocatorIS4_EEE4dataB8ue170006Ev, symObjAddr: 0xDCCC, symBinAddr: 0x1000255AC, symSize: 0x28 }
  - { offsetInCU: 0x3F552, offset: 0x72B7D, size: 0x8, addend: 0x0, symName: __ZNKSt3__16vectorIPKN7doctest12TestCaseDataENS_9allocatorIS4_EEE4sizeB8ue170006Ev, symObjAddr: 0xDCF4, symBinAddr: 0x1000255D4, symSize: 0x28 }
  - { offsetInCU: 0x3F577, offset: 0x72BA2, size: 0x8, addend: 0x0, symName: __ZNSt3__16vectorIPKN7doctest12TestCaseDataENS_9allocatorIS4_EEED1B8ue170006Ev, symObjAddr: 0xDD1C, symBinAddr: 0x1000255FC, symSize: 0x2C }
  - { offsetInCU: 0x3F5A0, offset: 0x72BCB, size: 0x8, addend: 0x0, symName: __ZNSt3__13setIN7doctest6StringENS_4lessIS2_EENS_9allocatorIS2_EEED1B8ue170006Ev, symObjAddr: 0xDD48, symBinAddr: 0x100025628, symSize: 0x2C }
  - { offsetInCU: 0x3F5C9, offset: 0x72BF4, size: 0x8, addend: 0x0, symName: __ZNSt3__16vectorIPKN7doctest6detail8TestCaseENS_9allocatorIS5_EEED1B8ue170006Ev, symObjAddr: 0xDD74, symBinAddr: 0x100025654, symSize: 0x2C }
  - { offsetInCU: 0x3F5F7, offset: 0x72C22, size: 0x8, addend: 0x0, symName: __ZNSt3__113basic_fstreamIcNS_11char_traitsIcEEED1Ev, symObjAddr: 0xDDA0, symBinAddr: 0x100025680, symSize: 0x40 }
  - { offsetInCU: 0x3F622, offset: 0x72C4D, size: 0x8, addend: 0x0, symName: __ZN7doctest9IReporterD2Ev, symObjAddr: 0xDDE0, symBinAddr: 0x1000256C0, symSize: 0x14 }
  - { offsetInCU: 0x3F64D, offset: 0x72C78, size: 0x8, addend: 0x0, symName: __ZN7doctest9IReporterD1Ev, symObjAddr: 0xDDF4, symBinAddr: 0x1000256D4, symSize: 0x14 }
  - { offsetInCU: 0x3F678, offset: 0x72CA3, size: 0x8, addend: 0x0, symName: __ZN7doctest9IReporterD0Ev, symObjAddr: 0xDE08, symBinAddr: 0x1000256E8, symSize: 0xC }
  - { offsetInCU: 0x3F6A3, offset: 0x72CCE, size: 0x8, addend: 0x0, symName: __ZN7doctest9IReporter23get_num_active_contextsEv, symObjAddr: 0xDE14, symBinAddr: 0x1000256F4, symSize: 0x18 }
  - { offsetInCU: 0x3F6B9, offset: 0x72CE4, size: 0x8, addend: 0x0, symName: __ZNKSt3__16vectorIPN7doctest13IContextScopeENS_9allocatorIS3_EEE4sizeB8ue170006Ev, symObjAddr: 0xDE2C, symBinAddr: 0x10002570C, symSize: 0x28 }
  - { offsetInCU: 0x3F6DE, offset: 0x72D09, size: 0x8, addend: 0x0, symName: __ZN7doctest9IReporter19get_active_contextsEv, symObjAddr: 0xDE54, symBinAddr: 0x100025734, symSize: 0x50 }
  - { offsetInCU: 0x3F6F4, offset: 0x72D1F, size: 0x8, addend: 0x0, symName: __ZNSt3__16vectorIPN7doctest13IContextScopeENS_9allocatorIS3_EEEixB8ue170006Em, symObjAddr: 0xDEA4, symBinAddr: 0x100025784, symSize: 0x24 }
  - { offsetInCU: 0x3F72A, offset: 0x72D55, size: 0x8, addend: 0x0, symName: __ZN7doctest9IReporter28get_num_stringified_contextsEv, symObjAddr: 0xDEC8, symBinAddr: 0x1000257A8, symSize: 0x24 }
  - { offsetInCU: 0x3F740, offset: 0x72D6B, size: 0x8, addend: 0x0, symName: __ZNKSt3__16vectorIN7doctest6StringENS_9allocatorIS2_EEE4sizeB8ue170006Ev, symObjAddr: 0xDEEC, symBinAddr: 0x1000257CC, symSize: 0x28 }
  - { offsetInCU: 0x3F765, offset: 0x72D90, size: 0x8, addend: 0x0, symName: __ZN7doctest9IReporter24get_stringified_contextsEv, symObjAddr: 0xDF14, symBinAddr: 0x1000257F4, symSize: 0x5C }
  - { offsetInCU: 0x3F77B, offset: 0x72DA6, size: 0x8, addend: 0x0, symName: __ZNSt3__16vectorIN7doctest6StringENS_9allocatorIS2_EEEixB8ue170006Em, symObjAddr: 0xDF70, symBinAddr: 0x100025850, symSize: 0x2C }
  - { offsetInCU: 0x3F7B1, offset: 0x72DDC, size: 0x8, addend: 0x0, symName: __ZNSt3__13mapINS_4pairIiN7doctest6StringEEEPFPNS2_9IReporterERKNS2_14ContextOptionsEENS_4lessIS4_EENS_9allocatorINS1_IKS4_SB_EEEEE6insertB8ue170006EOSG_, symObjAddr: 0xE134, symBinAddr: 0x100025A14, symSize: 0x4C }
  - { offsetInCU: 0x3F7EA, offset: 0x72E15, size: 0x8, addend: 0x0, symName: __ZNSt3__14pairIiN7doctest6StringEEC1B8ue170006IRiRPKcLPv0EEEOT_OT0_, symObjAddr: 0xE180, symBinAddr: 0x100025A60, symSize: 0x3C }
  - { offsetInCU: 0x3F84C, offset: 0x72E77, size: 0x8, addend: 0x0, symName: __ZNSt3__14pairIKNS0_IiN7doctest6StringEEEPFPNS1_9IReporterERKNS1_14ContextOptionsEEEC1B8ue170006IS3_RSB_LPv0EEEOT_OT0_, symObjAddr: 0xE1BC, symBinAddr: 0x100025A9C, symSize: 0x3C }
  - { offsetInCU: 0x3F8A9, offset: 0x72ED4, size: 0x8, addend: 0x0, symName: __ZNSt3__14pairIKNS0_IiN7doctest6StringEEEPFPNS1_9IReporterERKNS1_14ContextOptionsEEED1Ev, symObjAddr: 0xE1F8, symBinAddr: 0x100025AD8, symSize: 0x2C }
  - { offsetInCU: 0x3F8D4, offset: 0x72EFF, size: 0x8, addend: 0x0, symName: __ZNSt3__14pairIiN7doctest6StringEED1Ev, symObjAddr: 0xE224, symBinAddr: 0x100025B04, symSize: 0x2C }
  - { offsetInCU: 0x3F8FF, offset: 0x72F2A, size: 0x8, addend: 0x0, symName: _main, symObjAddr: 0xE250, symBinAddr: 0x100025B30, symSize: 0x7C }
  - { offsetInCU: 0x3F939, offset: 0x72F64, size: 0x8, addend: 0x0, symName: __ZL20DOCTEST_ANON_FUNC_13v, symObjAddr: 0xE2CC, symBinAddr: 0x100025BAC, symSize: 0x186C }
  - { offsetInCU: 0x3FAC2, offset: 0x730ED, size: 0x8, addend: 0x0, symName: __ZN7doctest6detail8TestCaseD1Ev, symObjAddr: 0xFB38, symBinAddr: 0x100027418, symSize: 0x2C }
  - { offsetInCU: 0x3FAEB, offset: 0x73116, size: 0x8, addend: 0x0, symName: __ZL20DOCTEST_ANON_FUNC_17v, symObjAddr: 0xFB64, symBinAddr: 0x100027444, symSize: 0x500 }
  - { offsetInCU: 0x3FB5A, offset: 0x73185, size: 0x8, addend: 0x0, symName: __ZL20DOCTEST_ANON_FUNC_20v, symObjAddr: 0x10064, symBinAddr: 0x100027944, symSize: 0x10D0 }
  - { offsetInCU: 0x3FC71, offset: 0x7329C, size: 0x8, addend: 0x0, symName: __ZN7doctest6detail16ContextScopeBaseD1Ev, symObjAddr: 0x11134, symBinAddr: 0x100028A14, symSize: 0x14 }
  - { offsetInCU: 0x3FC9A, offset: 0x732C5, size: 0x8, addend: 0x0, symName: __ZN7doctest6detail16ContextScopeBaseD0Ev, symObjAddr: 0x11148, symBinAddr: 0x100028A28, symSize: 0xC }
  - { offsetInCU: 0x3FCC3, offset: 0x732EE, size: 0x8, addend: 0x0, symName: __ZN7doctest6detail9TestSuiteC2Ev, symObjAddr: 0x11154, symBinAddr: 0x100028A34, symSize: 0x3C }
  - { offsetInCU: 0x3FCEF, offset: 0x7331A, size: 0x8, addend: 0x0, symName: '__ZN7doctest6detail3$_0C2Ev', symObjAddr: 0x11190, symBinAddr: 0x100028A70, symSize: 0x60 }
  - { offsetInCU: 0x3FD1B, offset: 0x73346, size: 0x8, addend: 0x0, symName: __ZNSt3__16vectorINS_4fposI11__mbstate_tEENS_9allocatorIS3_EEEC1B8ue170006Ev, symObjAddr: 0x111F0, symBinAddr: 0x100028AD0, symSize: 0x2C }
  - { offsetInCU: 0x3FD44, offset: 0x7336F, size: 0x8, addend: 0x0, symName: __ZNSt3__118basic_stringstreamIcNS_11char_traitsIcEENS_9allocatorIcEEEC1B8ue170006Ev, symObjAddr: 0x1121C, symBinAddr: 0x100028AFC, symSize: 0x104 }
  - { offsetInCU: 0x3FD6D, offset: 0x73398, size: 0x8, addend: 0x0, symName: __ZNSt3__16vectorINS_4fposI11__mbstate_tEENS_9allocatorIS3_EEED1B8ue170006Ev, symObjAddr: 0x11320, symBinAddr: 0x100028C00, symSize: 0x2C }
  - { offsetInCU: 0x3FD96, offset: 0x733C1, size: 0x8, addend: 0x0, symName: __ZNSt3__16vectorINS_4fposI11__mbstate_tEENS_9allocatorIS3_EEEC2B8ue170006Ev, symObjAddr: 0x1134C, symBinAddr: 0x100028C2C, symSize: 0x4C }
  - { offsetInCU: 0x3FDC9, offset: 0x733F4, size: 0x8, addend: 0x0, symName: __ZNSt3__117__compressed_pairIPNS_4fposI11__mbstate_tEENS_9allocatorIS3_EEEC1B8ue170006IDnNS_18__default_init_tagEEEOT_OT0_, symObjAddr: 0x11398, symBinAddr: 0x100028C78, symSize: 0x3C }
  - { offsetInCU: 0x3FE20, offset: 0x7344B, size: 0x8, addend: 0x0, symName: __ZNSt3__117__compressed_pairIPNS_4fposI11__mbstate_tEENS_9allocatorIS3_EEEC2B8ue170006IDnNS_18__default_init_tagEEEOT_OT0_, symObjAddr: 0x113D4, symBinAddr: 0x100028CB4, symSize: 0x40 }
  - { offsetInCU: 0x3FE77, offset: 0x734A2, size: 0x8, addend: 0x0, symName: __ZNSt3__122__compressed_pair_elemIPNS_4fposI11__mbstate_tEELi0ELb0EEC2B8ue170006IDnvEEOT_, symObjAddr: 0x11414, symBinAddr: 0x100028CF4, symSize: 0x1C }
  - { offsetInCU: 0x3FEB8, offset: 0x734E3, size: 0x8, addend: 0x0, symName: __ZNSt3__122__compressed_pair_elemINS_9allocatorINS_4fposI11__mbstate_tEEEELi1ELb1EEC2B8ue170006ENS_18__default_init_tagE, symObjAddr: 0x11430, symBinAddr: 0x100028D10, symSize: 0x2C }
  - { offsetInCU: 0x3FEEB, offset: 0x73516, size: 0x8, addend: 0x0, symName: __ZNSt3__19allocatorINS_4fposI11__mbstate_tEEEC2B8ue170006Ev, symObjAddr: 0x1145C, symBinAddr: 0x100028D3C, symSize: 0x2C }
  - { offsetInCU: 0x3FF14, offset: 0x7353F, size: 0x8, addend: 0x0, symName: __ZNSt3__116__non_trivial_ifILb1ENS_9allocatorINS_4fposI11__mbstate_tEEEEEC2B8ue170006Ev, symObjAddr: 0x11488, symBinAddr: 0x100028D68, symSize: 0x14 }
  - { offsetInCU: 0x3FF3D, offset: 0x73568, size: 0x8, addend: 0x0, symName: __ZNSt3__19basic_iosIcNS_11char_traitsIcEEEC2B8ue170006Ev, symObjAddr: 0x1149C, symBinAddr: 0x100028D7C, symSize: 0x44 }
  - { offsetInCU: 0x3FF66, offset: 0x73591, size: 0x8, addend: 0x0, symName: __ZNSt3__114basic_iostreamIcNS_11char_traitsIcEEEC2B8ue170006EPNS_15basic_streambufIcS2_EE, symObjAddr: 0x114E0, symBinAddr: 0x100028DC0, symSize: 0xAC }
  - { offsetInCU: 0x3FFAA, offset: 0x735D5, size: 0x8, addend: 0x0, symName: __ZNSt3__115basic_stringbufIcNS_11char_traitsIcEENS_9allocatorIcEEEC1B8ue170006Ej, symObjAddr: 0x1158C, symBinAddr: 0x100028E6C, symSize: 0x34 }
  - { offsetInCU: 0x3FFE2, offset: 0x7360D, size: 0x8, addend: 0x0, symName: __ZNSt3__18ios_baseC2B8ue170006Ev, symObjAddr: 0x115C0, symBinAddr: 0x100028EA0, symSize: 0x24 }
  - { offsetInCU: 0x4000B, offset: 0x73636, size: 0x8, addend: 0x0, symName: __ZNSt3__113basic_istreamIcNS_11char_traitsIcEEEC2B8ue170006EPNS_15basic_streambufIcS2_EE, symObjAddr: 0x115E4, symBinAddr: 0x100028EC4, symSize: 0x64 }
  - { offsetInCU: 0x4004E, offset: 0x73679, size: 0x8, addend: 0x0, symName: __ZNSt3__113basic_ostreamIcNS_11char_traitsIcEEEC2B8ue170006Ev, symObjAddr: 0x11648, symBinAddr: 0x100028F28, symSize: 0x34 }
  - { offsetInCU: 0x40083, offset: 0x736AE, size: 0x8, addend: 0x0, symName: __ZNSt3__19basic_iosIcNS_11char_traitsIcEEE4initB8ue170006EPNS_15basic_streambufIcS2_EE, symObjAddr: 0x1167C, symBinAddr: 0x100028F5C, symSize: 0x44 }
  - { offsetInCU: 0x400B8, offset: 0x736E3, size: 0x8, addend: 0x0, symName: __ZNSt3__115basic_stringbufIcNS_11char_traitsIcEENS_9allocatorIcEEEC2B8ue170006Ej, symObjAddr: 0x116C8, symBinAddr: 0x100028FA0, symSize: 0x60 }
  - { offsetInCU: 0x400F0, offset: 0x7371B, size: 0x8, addend: 0x0, symName: __ZNSt3__16vectorINS_4fposI11__mbstate_tEENS_9allocatorIS3_EEED2B8ue170006Ev, symObjAddr: 0x11728, symBinAddr: 0x100029000, symSize: 0x44 }
  - { offsetInCU: 0x40119, offset: 0x73744, size: 0x8, addend: 0x0, symName: __ZNSt3__16vectorINS_4fposI11__mbstate_tEENS_9allocatorIS3_EEE16__destroy_vectorC1B8ue170006ERS6_, symObjAddr: 0x1176C, symBinAddr: 0x100029044, symSize: 0x34 }
  - { offsetInCU: 0x40151, offset: 0x7377C, size: 0x8, addend: 0x0, symName: __ZNSt3__16vectorINS_4fposI11__mbstate_tEENS_9allocatorIS3_EEE16__destroy_vectorclB8ue170006Ev, symObjAddr: 0x117A0, symBinAddr: 0x100029078, symSize: 0x90 }
  - { offsetInCU: 0x40176, offset: 0x737A1, size: 0x8, addend: 0x0, symName: __ZNSt3__16vectorINS_4fposI11__mbstate_tEENS_9allocatorIS3_EEE16__destroy_vectorC2B8ue170006ERS6_, symObjAddr: 0x11830, symBinAddr: 0x100029108, symSize: 0x20 }
  - { offsetInCU: 0x401AE, offset: 0x737D9, size: 0x8, addend: 0x0, symName: __ZNSt3__16vectorINS_4fposI11__mbstate_tEENS_9allocatorIS3_EEE7__clearB8ue170006Ev, symObjAddr: 0x11850, symBinAddr: 0x100029128, symSize: 0x28 }
  - { offsetInCU: 0x401D3, offset: 0x737FE, size: 0x8, addend: 0x0, symName: __ZNKSt3__16vectorINS_4fposI11__mbstate_tEENS_9allocatorIS3_EEE17__annotate_deleteB8ue170006Ev, symObjAddr: 0x11878, symBinAddr: 0x100029150, symSize: 0xD4 }
  - { offsetInCU: 0x401F8, offset: 0x73823, size: 0x8, addend: 0x0, symName: __ZNSt3__116allocator_traitsINS_9allocatorINS_4fposI11__mbstate_tEEEEE10deallocateB8ue170006ERS5_PS4_m, symObjAddr: 0x1194C, symBinAddr: 0x100029224, symSize: 0x34 }
  - { offsetInCU: 0x4023A, offset: 0x73865, size: 0x8, addend: 0x0, symName: __ZNSt3__16vectorINS_4fposI11__mbstate_tEENS_9allocatorIS3_EEE7__allocB8ue170006Ev, symObjAddr: 0x11980, symBinAddr: 0x100029258, symSize: 0x28 }
  - { offsetInCU: 0x4025F, offset: 0x7388A, size: 0x8, addend: 0x0, symName: __ZNKSt3__16vectorINS_4fposI11__mbstate_tEENS_9allocatorIS3_EEE8capacityB8ue170006Ev, symObjAddr: 0x119A8, symBinAddr: 0x100029280, symSize: 0x40 }
  - { offsetInCU: 0x40284, offset: 0x738AF, size: 0x8, addend: 0x0, symName: __ZNSt3__16vectorINS_4fposI11__mbstate_tEENS_9allocatorIS3_EEE22__base_destruct_at_endB8ue170006EPS3_, symObjAddr: 0x119E8, symBinAddr: 0x1000292C0, symSize: 0x8C }
  - { offsetInCU: 0x402C7, offset: 0x738F2, size: 0x8, addend: 0x0, symName: __ZNSt3__116allocator_traitsINS_9allocatorINS_4fposI11__mbstate_tEEEEE7destroyB8ue170006IS4_vEEvRS5_PT_, symObjAddr: 0x11A74, symBinAddr: 0x10002934C, symSize: 0x2C }
  - { offsetInCU: 0x40304, offset: 0x7392F, size: 0x8, addend: 0x0, symName: __ZNSt3__19allocatorINS_4fposI11__mbstate_tEEE7destroyB8ue170006EPS3_, symObjAddr: 0x11AB4, symBinAddr: 0x10002938C, symSize: 0x14 }
  - { offsetInCU: 0x40337, offset: 0x73962, size: 0x8, addend: 0x0, symName: __ZNKSt3__16vectorINS_4fposI11__mbstate_tEENS_9allocatorIS3_EEE31__annotate_contiguous_containerB8ue170006EPKvS8_S8_S8_, symObjAddr: 0x11AC8, symBinAddr: 0x1000293A0, symSize: 0x20 }
  - { offsetInCU: 0x4038C, offset: 0x739B7, size: 0x8, addend: 0x0, symName: __ZNKSt3__16vectorINS_4fposI11__mbstate_tEENS_9allocatorIS3_EEE4dataB8ue170006Ev, symObjAddr: 0x11AE8, symBinAddr: 0x1000293C0, symSize: 0x28 }
  - { offsetInCU: 0x403B1, offset: 0x739DC, size: 0x8, addend: 0x0, symName: __ZNKSt3__16vectorINS_4fposI11__mbstate_tEENS_9allocatorIS3_EEE4sizeB8ue170006Ev, symObjAddr: 0x11B10, symBinAddr: 0x1000293E8, symSize: 0x28 }
  - { offsetInCU: 0x403D6, offset: 0x73A01, size: 0x8, addend: 0x0, symName: __ZNSt3__19allocatorINS_4fposI11__mbstate_tEEE10deallocateB8ue170006EPS3_m, symObjAddr: 0x11B38, symBinAddr: 0x100029410, symSize: 0x44 }
  - { offsetInCU: 0x40417, offset: 0x73A42, size: 0x8, addend: 0x0, symName: __ZNSt3__117__compressed_pairIPNS_4fposI11__mbstate_tEENS_9allocatorIS3_EEE6secondB8ue170006Ev, symObjAddr: 0x11BF8, symBinAddr: 0x100029454, symSize: 0x24 }
  - { offsetInCU: 0x4043C, offset: 0x73A67, size: 0x8, addend: 0x0, symName: __ZNSt3__122__compressed_pair_elemINS_9allocatorINS_4fposI11__mbstate_tEEEELi1ELb1EE5__getB8ue170006Ev, symObjAddr: 0x11C1C, symBinAddr: 0x100029478, symSize: 0x14 }
  - { offsetInCU: 0x40461, offset: 0x73A8C, size: 0x8, addend: 0x0, symName: __ZNKSt3__16vectorINS_4fposI11__mbstate_tEENS_9allocatorIS3_EEE9__end_capB8ue170006Ev, symObjAddr: 0x11C30, symBinAddr: 0x10002948C, symSize: 0x28 }
  - { offsetInCU: 0x40486, offset: 0x73AB1, size: 0x8, addend: 0x0, symName: __ZNKSt3__117__compressed_pairIPNS_4fposI11__mbstate_tEENS_9allocatorIS3_EEE5firstB8ue170006Ev, symObjAddr: 0x11C58, symBinAddr: 0x1000294B4, symSize: 0x24 }
  - { offsetInCU: 0x404AB, offset: 0x73AD6, size: 0x8, addend: 0x0, symName: __ZNKSt3__122__compressed_pair_elemIPNS_4fposI11__mbstate_tEELi0ELb0EE5__getB8ue170006Ev, symObjAddr: 0x11C7C, symBinAddr: 0x1000294D8, symSize: 0x14 }
  - { offsetInCU: 0x404D0, offset: 0x73AFB, size: 0x8, addend: 0x0, symName: '__ZN7doctest6detail3$_0D2Ev', symObjAddr: 0x11C90, symBinAddr: 0x1000294EC, symSize: 0x38 }
  - { offsetInCU: 0x40501, offset: 0x73B2C, size: 0x8, addend: 0x0, symName: __ZNSt3__118basic_stringstreamIcNS_11char_traitsIcEENS_9allocatorIcEEED1Ev, symObjAddr: 0x11CC8, symBinAddr: 0x100029524, symSize: 0x40 }
  - { offsetInCU: 0x4052D, offset: 0x73B58, size: 0x8, addend: 0x0, symName: __ZNSt3__118basic_stringstreamIcNS_11char_traitsIcEENS_9allocatorIcEEED2Ev, symObjAddr: 0x11D08, symBinAddr: 0x100029564, symSize: 0x6C }
  - { offsetInCU: 0x40565, offset: 0x73B90, size: 0x8, addend: 0x0, symName: __ZThn16_NSt3__118basic_stringstreamIcNS_11char_traitsIcEENS_9allocatorIcEEED1Ev, symObjAddr: 0x11D74, symBinAddr: 0x1000295D0, symSize: 0x1C }
  - { offsetInCU: 0x4057C, offset: 0x73BA7, size: 0x8, addend: 0x0, symName: __ZTv0_n24_NSt3__118basic_stringstreamIcNS_11char_traitsIcEENS_9allocatorIcEEED1Ev, symObjAddr: 0x11D90, symBinAddr: 0x1000295EC, symSize: 0x28 }
  - { offsetInCU: 0x40598, offset: 0x73BC3, size: 0x8, addend: 0x0, symName: __ZNSt3__115basic_stringbufIcNS_11char_traitsIcEENS_9allocatorIcEEED1Ev, symObjAddr: 0x11DB8, symBinAddr: 0x100029614, symSize: 0x2C }
  - { offsetInCU: 0x405C4, offset: 0x73BEF, size: 0x8, addend: 0x0, symName: __ZNSt3__115basic_stringbufIcNS_11char_traitsIcEENS_9allocatorIcEEED2Ev, symObjAddr: 0x11DE4, symBinAddr: 0x100029640, symSize: 0x48 }
  - { offsetInCU: 0x405F0, offset: 0x73C1B, size: 0x8, addend: 0x0, symName: __ZNSt3__16vectorINS_4fposI11__mbstate_tEENS_9allocatorIS3_EEE9push_backB8ue170006EOS3_, symObjAddr: 0x11E2C, symBinAddr: 0x100029688, symSize: 0x6C }
  - { offsetInCU: 0x40625, offset: 0x73C50, size: 0x8, addend: 0x0, symName: __ZNSt3__113basic_ostreamIcNS_11char_traitsIcEEE5tellpEv, symObjAddr: 0x11E98, symBinAddr: 0x1000296F4, symSize: 0x7C }
  - { offsetInCU: 0x4064B, offset: 0x73C76, size: 0x8, addend: 0x0, symName: __ZNSt3__16vectorINS_4fposI11__mbstate_tEENS_9allocatorIS3_EEE9__end_capB8ue170006Ev, symObjAddr: 0x11F14, symBinAddr: 0x100029770, symSize: 0x28 }
  - { offsetInCU: 0x40675, offset: 0x73CA0, size: 0x8, addend: 0x0, symName: __ZNSt3__16vectorINS_4fposI11__mbstate_tEENS_9allocatorIS3_EEE22__construct_one_at_endB8ue170006IJS3_EEEvDpOT_, symObjAddr: 0x11F3C, symBinAddr: 0x100029798, symSize: 0x90 }
  - { offsetInCU: 0x406C3, offset: 0x73CEE, size: 0x8, addend: 0x0, symName: __ZNSt3__16vectorINS_4fposI11__mbstate_tEENS_9allocatorIS3_EEE21__push_back_slow_pathIS3_EEvOT_, symObjAddr: 0x11FCC, symBinAddr: 0x100029828, symSize: 0xD8 }
  - { offsetInCU: 0x4071F, offset: 0x73D4A, size: 0x8, addend: 0x0, symName: __ZNSt3__117__compressed_pairIPNS_4fposI11__mbstate_tEENS_9allocatorIS3_EEE5firstB8ue170006Ev, symObjAddr: 0x120A4, symBinAddr: 0x100029900, symSize: 0x24 }
  - { offsetInCU: 0x40744, offset: 0x73D6F, size: 0x8, addend: 0x0, symName: __ZNSt3__122__compressed_pair_elemIPNS_4fposI11__mbstate_tEELi0ELb0EE5__getB8ue170006Ev, symObjAddr: 0x120C8, symBinAddr: 0x100029924, symSize: 0x14 }
  - { offsetInCU: 0x40782, offset: 0x73DAD, size: 0x8, addend: 0x0, symName: __ZNSt3__16vectorINS_4fposI11__mbstate_tEENS_9allocatorIS3_EEE21_ConstructTransactionC1B8ue170006ERS6_m, symObjAddr: 0x120DC, symBinAddr: 0x100029938, symSize: 0x3C }
  - { offsetInCU: 0x407C9, offset: 0x73DF4, size: 0x8, addend: 0x0, symName: __ZNSt3__116allocator_traitsINS_9allocatorINS_4fposI11__mbstate_tEEEEE9constructB8ue170006IS4_JS4_EvEEvRS5_PT_DpOT0_, symObjAddr: 0x12118, symBinAddr: 0x100029974, symSize: 0x34 }
  - { offsetInCU: 0x40820, offset: 0x73E4B, size: 0x8, addend: 0x0, symName: __ZNSt3__16vectorINS_4fposI11__mbstate_tEENS_9allocatorIS3_EEE21_ConstructTransactionD1B8ue170006Ev, symObjAddr: 0x1214C, symBinAddr: 0x1000299A8, symSize: 0x2C }
  - { offsetInCU: 0x40849, offset: 0x73E74, size: 0x8, addend: 0x0, symName: __ZNSt3__16vectorINS_4fposI11__mbstate_tEENS_9allocatorIS3_EEE21_ConstructTransactionC2B8ue170006ERS6_m, symObjAddr: 0x12178, symBinAddr: 0x1000299D4, symSize: 0x4C }
  - { offsetInCU: 0x40890, offset: 0x73EBB, size: 0x8, addend: 0x0, symName: __ZNSt3__19allocatorINS_4fposI11__mbstate_tEEE9constructB8ue170006IS3_JS3_EEEvPT_DpOT0_, symObjAddr: 0x121C4, symBinAddr: 0x100029A20, symSize: 0x34 }
  - { offsetInCU: 0x408E5, offset: 0x73F10, size: 0x8, addend: 0x0, symName: __ZNSt3__16vectorINS_4fposI11__mbstate_tEENS_9allocatorIS3_EEE21_ConstructTransactionD2B8ue170006Ev, symObjAddr: 0x121F8, symBinAddr: 0x100029A54, symSize: 0x20 }
  - { offsetInCU: 0x4090E, offset: 0x73F39, size: 0x8, addend: 0x0, symName: __ZNKSt3__16vectorINS_4fposI11__mbstate_tEENS_9allocatorIS3_EEE11__recommendB8ue170006Em, symObjAddr: 0x12218, symBinAddr: 0x100029A74, symSize: 0xB4 }
  - { offsetInCU: 0x40961, offset: 0x73F8C, size: 0x8, addend: 0x0, symName: __ZNSt3__114__split_bufferINS_4fposI11__mbstate_tEERNS_9allocatorIS3_EEEC1EmmS6_, symObjAddr: 0x122CC, symBinAddr: 0x100029B28, symSize: 0x44 }
  - { offsetInCU: 0x409B6, offset: 0x73FE1, size: 0x8, addend: 0x0, symName: __ZNSt3__114__split_bufferINS_4fposI11__mbstate_tEERNS_9allocatorIS3_EEED1Ev, symObjAddr: 0x12420, symBinAddr: 0x100029C7C, symSize: 0x2C }
  - { offsetInCU: 0x409E1, offset: 0x7400C, size: 0x8, addend: 0x0, symName: __ZNKSt3__16vectorINS_4fposI11__mbstate_tEENS_9allocatorIS3_EEE8max_sizeEv, symObjAddr: 0x1244C, symBinAddr: 0x100029CA8, symSize: 0x60 }
  - { offsetInCU: 0x40A07, offset: 0x74032, size: 0x8, addend: 0x0, symName: __ZNKSt3__16vectorINS_4fposI11__mbstate_tEENS_9allocatorIS3_EEE20__throw_length_errorB8ue170006Ev, symObjAddr: 0x124AC, symBinAddr: 0x100029D08, symSize: 0x1C }
  - { offsetInCU: 0x40A36, offset: 0x74061, size: 0x8, addend: 0x0, symName: __ZNSt3__116allocator_traitsINS_9allocatorINS_4fposI11__mbstate_tEEEEE8max_sizeB8ue170006IS5_vEEmRKS5_, symObjAddr: 0x12520, symBinAddr: 0x100029D24, symSize: 0x24 }
  - { offsetInCU: 0x40A64, offset: 0x7408F, size: 0x8, addend: 0x0, symName: __ZNKSt3__16vectorINS_4fposI11__mbstate_tEENS_9allocatorIS3_EEE7__allocB8ue170006Ev, symObjAddr: 0x12544, symBinAddr: 0x100029D48, symSize: 0x28 }
  - { offsetInCU: 0x40A93, offset: 0x740BE, size: 0x8, addend: 0x0, symName: __ZNKSt3__19allocatorINS_4fposI11__mbstate_tEEE8max_sizeB8ue170006Ev, symObjAddr: 0x12608, symBinAddr: 0x100029D70, symSize: 0x18 }
  - { offsetInCU: 0x40AB8, offset: 0x740E3, size: 0x8, addend: 0x0, symName: __ZNKSt3__117__compressed_pairIPNS_4fposI11__mbstate_tEENS_9allocatorIS3_EEE6secondB8ue170006Ev, symObjAddr: 0x12620, symBinAddr: 0x100029D88, symSize: 0x24 }
  - { offsetInCU: 0x40ADD, offset: 0x74108, size: 0x8, addend: 0x0, symName: __ZNKSt3__122__compressed_pair_elemINS_9allocatorINS_4fposI11__mbstate_tEEEELi1ELb1EE5__getB8ue170006Ev, symObjAddr: 0x12644, symBinAddr: 0x100029DAC, symSize: 0x14 }
  - { offsetInCU: 0x40B02, offset: 0x7412D, size: 0x8, addend: 0x0, symName: __ZNSt3__114__split_bufferINS_4fposI11__mbstate_tEERNS_9allocatorIS3_EEEC2EmmS6_, symObjAddr: 0x12798, symBinAddr: 0x100029DC0, symSize: 0xE0 }
  - { offsetInCU: 0x40B75, offset: 0x741A0, size: 0x8, addend: 0x0, symName: __ZNSt3__117__compressed_pairIPNS_4fposI11__mbstate_tEERNS_9allocatorIS3_EEEC1B8ue170006IDnS7_EEOT_OT0_, symObjAddr: 0x12878, symBinAddr: 0x100029EA0, symSize: 0x3C }
  - { offsetInCU: 0x40BCC, offset: 0x741F7, size: 0x8, addend: 0x0, symName: __ZNSt3__114__split_bufferINS_4fposI11__mbstate_tEERNS_9allocatorIS3_EEE7__allocB8ue170006Ev, symObjAddr: 0x128F4, symBinAddr: 0x100029F1C, symSize: 0x28 }
  - { offsetInCU: 0x40BF1, offset: 0x7421C, size: 0x8, addend: 0x0, symName: __ZNSt3__114__split_bufferINS_4fposI11__mbstate_tEERNS_9allocatorIS3_EEE9__end_capB8ue170006Ev, symObjAddr: 0x1291C, symBinAddr: 0x100029F44, symSize: 0x28 }
  - { offsetInCU: 0x40C16, offset: 0x74241, size: 0x8, addend: 0x0, symName: __ZNSt3__117__compressed_pairIPNS_4fposI11__mbstate_tEERNS_9allocatorIS3_EEEC2B8ue170006IDnS7_EEOT_OT0_, symObjAddr: 0x12944, symBinAddr: 0x100029F6C, symSize: 0x48 }
  - { offsetInCU: 0x40C6D, offset: 0x74298, size: 0x8, addend: 0x0, symName: __ZNSt3__122__compressed_pair_elemIRNS_9allocatorINS_4fposI11__mbstate_tEEEELi1ELb0EEC2B8ue170006IS6_vEEOT_, symObjAddr: 0x1298C, symBinAddr: 0x100029FB4, symSize: 0x20 }
  - { offsetInCU: 0x40CAE, offset: 0x742D9, size: 0x8, addend: 0x0, symName: __ZNSt3__19allocatorINS_4fposI11__mbstate_tEEE8allocateB8ue170006Em, symObjAddr: 0x129AC, symBinAddr: 0x100029FD4, symSize: 0x5C }
  - { offsetInCU: 0x40CE1, offset: 0x7430C, size: 0x8, addend: 0x0, symName: __ZNSt3__117__compressed_pairIPNS_4fposI11__mbstate_tEERNS_9allocatorIS3_EEE6secondB8ue170006Ev, symObjAddr: 0x12A88, symBinAddr: 0x10002A030, symSize: 0x28 }
  - { offsetInCU: 0x40D06, offset: 0x74331, size: 0x8, addend: 0x0, symName: __ZNSt3__122__compressed_pair_elemIRNS_9allocatorINS_4fposI11__mbstate_tEEEELi1ELb0EE5__getB8ue170006Ev, symObjAddr: 0x12AB0, symBinAddr: 0x10002A058, symSize: 0x18 }
  - { offsetInCU: 0x40D2B, offset: 0x74356, size: 0x8, addend: 0x0, symName: __ZNSt3__117__compressed_pairIPNS_4fposI11__mbstate_tEERNS_9allocatorIS3_EEE5firstB8ue170006Ev, symObjAddr: 0x12AC8, symBinAddr: 0x10002A070, symSize: 0x24 }
  - { offsetInCU: 0x40D50, offset: 0x7437B, size: 0x8, addend: 0x0, symName: __ZNSt3__116reverse_iteratorIPNS_4fposI11__mbstate_tEEEC1B8ue170006ES4_, symObjAddr: 0x12B64, symBinAddr: 0x10002A10C, symSize: 0x34 }
  - { offsetInCU: 0x40D87, offset: 0x743B2, size: 0x8, addend: 0x0, symName: __ZNKSt3__116reverse_iteratorIPNS_4fposI11__mbstate_tEEE4baseB8ue170006Ev, symObjAddr: 0x12B98, symBinAddr: 0x10002A140, symSize: 0x18 }
  - { offsetInCU: 0x40DAC, offset: 0x743D7, size: 0x8, addend: 0x0, symName: __ZNKSt3__16vectorINS_4fposI11__mbstate_tEENS_9allocatorIS3_EEE14__annotate_newB8ue170006Em, symObjAddr: 0x12BEC, symBinAddr: 0x10002A194, symSize: 0xC8 }
  - { offsetInCU: 0x40E03, offset: 0x7442E, size: 0x8, addend: 0x0, symName: __ZNKSt3__111__move_loopINS_17_ClassicAlgPolicyEEclB8ue170006INS_16reverse_iteratorIPNS_4fposI11__mbstate_tEEEES9_S9_EENS_4pairIT_T1_EESB_T0_SC_, symObjAddr: 0x12FA4, symBinAddr: 0x10002A54C, symSize: 0x9C }
  - { offsetInCU: 0x40E6D, offset: 0x74498, size: 0x8, addend: 0x0, symName: __ZNSt3__18_IterOpsINS_17_ClassicAlgPolicyEE11__iter_moveB8ue170006IRNS_16reverse_iteratorIPNS_4fposI11__mbstate_tEEEEEENS_9enable_ifIXsr12is_referenceIDTdeclsr3stdE7declvalIRT_EEEEE5valueEDTclsr3stdE4movedeclsr3stdE7declvalISD_EEEEE4typeEOSC_, symObjAddr: 0x131D4, symBinAddr: 0x10002A77C, symSize: 0x28 }
  - { offsetInCU: 0x40E99, offset: 0x744C4, size: 0x8, addend: 0x0, symName: __ZNKSt3__116reverse_iteratorIPNS_4fposI11__mbstate_tEEEdeB8ue170006Ev, symObjAddr: 0x131FC, symBinAddr: 0x10002A7A4, symSize: 0x28 }
  - { offsetInCU: 0x40ECC, offset: 0x744F7, size: 0x8, addend: 0x0, symName: __ZNSt3__116reverse_iteratorIPNS_4fposI11__mbstate_tEEEppB8ue170006Ev, symObjAddr: 0x13224, symBinAddr: 0x10002A7CC, symSize: 0x20 }
  - { offsetInCU: 0x40EF1, offset: 0x7451C, size: 0x8, addend: 0x0, symName: __ZNSt3__18_IterOpsINS_17_ClassicAlgPolicyEE25__validate_iter_referenceB8ue170006IRNS_16reverse_iteratorIPNS_4fposI11__mbstate_tEEEEEEvv, symObjAddr: 0x13244, symBinAddr: 0x10002A7EC, symSize: 0x4 }
  - { offsetInCU: 0x40F0F, offset: 0x7453A, size: 0x8, addend: 0x0, symName: __ZNSt3__118__unwrap_iter_implINS_16reverse_iteratorIPNS_4fposI11__mbstate_tEEEELb0EE8__unwrapB8ue170006ES6_, symObjAddr: 0x13248, symBinAddr: 0x10002A7F0, symSize: 0x24 }
  - { offsetInCU: 0x40F37, offset: 0x74562, size: 0x8, addend: 0x0, symName: __ZNSt3__14pairINS_16reverse_iteratorIPNS_4fposI11__mbstate_tEEEES6_EC1B8ue170006IS6_S6_LPv0EEEOT_OT0_, symObjAddr: 0x1326C, symBinAddr: 0x10002A814, symSize: 0x3C }
  - { offsetInCU: 0x40F94, offset: 0x745BF, size: 0x8, addend: 0x0, symName: __ZNSt3__14pairINS_16reverse_iteratorIPNS_4fposI11__mbstate_tEEEES6_EC2B8ue170006IS6_S6_LPv0EEEOT_OT0_, symObjAddr: 0x132A8, symBinAddr: 0x10002A850, symSize: 0x34 }
  - { offsetInCU: 0x40FF1, offset: 0x7461C, size: 0x8, addend: 0x0, symName: __ZNSt3__118__unwrap_iter_implINS_16reverse_iteratorIPNS_4fposI11__mbstate_tEEEELb0EE8__rewrapB8ue170006ES6_S6_, symObjAddr: 0x132DC, symBinAddr: 0x10002A884, symSize: 0x2C }
  - { offsetInCU: 0x4101E, offset: 0x74649, size: 0x8, addend: 0x0, symName: __ZNSt3__116reverse_iteratorIPNS_4fposI11__mbstate_tEEEC2B8ue170006ES4_, symObjAddr: 0x13308, symBinAddr: 0x10002A8B0, symSize: 0x28 }
  - { offsetInCU: 0x41055, offset: 0x74680, size: 0x8, addend: 0x0, symName: __ZNSt3__114__split_bufferINS_4fposI11__mbstate_tEERNS_9allocatorIS3_EEED2Ev, symObjAddr: 0x13330, symBinAddr: 0x10002A8D8, symSize: 0x8C }
  - { offsetInCU: 0x41080, offset: 0x746AB, size: 0x8, addend: 0x0, symName: __ZNSt3__114__split_bufferINS_4fposI11__mbstate_tEERNS_9allocatorIS3_EEE5clearB8ue170006Ev, symObjAddr: 0x133BC, symBinAddr: 0x10002A964, symSize: 0x28 }
  - { offsetInCU: 0x410A5, offset: 0x746D0, size: 0x8, addend: 0x0, symName: __ZNKSt3__114__split_bufferINS_4fposI11__mbstate_tEERNS_9allocatorIS3_EEE8capacityB8ue170006Ev, symObjAddr: 0x133E4, symBinAddr: 0x10002A98C, symSize: 0x40 }
  - { offsetInCU: 0x410CA, offset: 0x746F5, size: 0x8, addend: 0x0, symName: __ZNSt3__114__split_bufferINS_4fposI11__mbstate_tEERNS_9allocatorIS3_EEE17__destruct_at_endB8ue170006EPS3_, symObjAddr: 0x13424, symBinAddr: 0x10002A9CC, symSize: 0x2C }
  - { offsetInCU: 0x410FD, offset: 0x74728, size: 0x8, addend: 0x0, symName: __ZNSt3__114__split_bufferINS_4fposI11__mbstate_tEERNS_9allocatorIS3_EEE17__destruct_at_endB8ue170006EPS3_NS_17integral_constantIbLb0EEE, symObjAddr: 0x13450, symBinAddr: 0x10002A9F8, symSize: 0x80 }
  - { offsetInCU: 0x4113B, offset: 0x74766, size: 0x8, addend: 0x0, symName: __ZNKSt3__114__split_bufferINS_4fposI11__mbstate_tEERNS_9allocatorIS3_EEE9__end_capB8ue170006Ev, symObjAddr: 0x134D0, symBinAddr: 0x10002AA78, symSize: 0x28 }
  - { offsetInCU: 0x41160, offset: 0x7478B, size: 0x8, addend: 0x0, symName: __ZNKSt3__117__compressed_pairIPNS_4fposI11__mbstate_tEERNS_9allocatorIS3_EEE5firstB8ue170006Ev, symObjAddr: 0x134F8, symBinAddr: 0x10002AAA0, symSize: 0x24 }
  - { offsetInCU: 0x41185, offset: 0x747B0, size: 0x8, addend: 0x0, symName: __ZNKSt3__19basic_iosIcNS_11char_traitsIcEEE4failB8ue170006Ev, symObjAddr: 0x1351C, symBinAddr: 0x10002AAC4, symSize: 0x28 }
  - { offsetInCU: 0x411AA, offset: 0x747D5, size: 0x8, addend: 0x0, symName: __ZNSt3__14fposI11__mbstate_tEC1B8ue170006Ex, symObjAddr: 0x13544, symBinAddr: 0x10002AAEC, symSize: 0x34 }
  - { offsetInCU: 0x411E1, offset: 0x7480C, size: 0x8, addend: 0x0, symName: __ZNSt3__115basic_streambufIcNS_11char_traitsIcEEE10pubseekoffB8ue170006ExNS_8ios_base7seekdirEj, symObjAddr: 0x1359C, symBinAddr: 0x10002AB20, symSize: 0x44 }
  - { offsetInCU: 0x41230, offset: 0x7485B, size: 0x8, addend: 0x0, symName: __ZNKSt3__18ios_base4failB8ue170006Ev, symObjAddr: 0x135E0, symBinAddr: 0x10002AB64, symSize: 0x28 }
  - { offsetInCU: 0x41257, offset: 0x74882, size: 0x8, addend: 0x0, symName: __ZNSt3__14fposI11__mbstate_tEC2B8ue170006Ex, symObjAddr: 0x13608, symBinAddr: 0x10002AB8C, symSize: 0x40 }
  - { offsetInCU: 0x4128E, offset: 0x748B9, size: 0x8, addend: 0x0, symName: __ZNKSt3__16vectorINS_4fposI11__mbstate_tEENS_9allocatorIS3_EEE5emptyB8ue170006Ev, symObjAddr: 0x13660, symBinAddr: 0x10002ABCC, symSize: 0x28 }
  - { offsetInCU: 0x412B3, offset: 0x748DE, size: 0x8, addend: 0x0, symName: __ZNSt3__16vectorINS_4fposI11__mbstate_tEENS_9allocatorIS3_EEE4backB8ue170006Ev, symObjAddr: 0x13688, symBinAddr: 0x10002ABF4, symSize: 0x1C }
  - { offsetInCU: 0x412D8, offset: 0x74903, size: 0x8, addend: 0x0, symName: __ZNSt3__16vectorINS_4fposI11__mbstate_tEENS_9allocatorIS3_EEE8pop_backEv, symObjAddr: 0x136A4, symBinAddr: 0x10002AC10, symSize: 0x2C }
  - { offsetInCU: 0x412FE, offset: 0x74929, size: 0x8, addend: 0x0, symName: __ZNKSt3__118basic_stringstreamIcNS_11char_traitsIcEENS_9allocatorIcEEE5rdbufB8ue170006Ev, symObjAddr: 0x13710, symBinAddr: 0x10002AC7C, symSize: 0x18 }
  - { offsetInCU: 0x41323, offset: 0x7494E, size: 0x8, addend: 0x0, symName: __ZNSt3__115basic_streambufIcNS_11char_traitsIcEEE10pubseekposB8ue170006ENS_4fposI11__mbstate_tEEj, symObjAddr: 0x13728, symBinAddr: 0x10002AC94, symSize: 0x94 }
  - { offsetInCU: 0x41365, offset: 0x74990, size: 0x8, addend: 0x0, symName: __ZNSt3__16vectorINS_4fposI11__mbstate_tEENS_9allocatorIS3_EEE17__destruct_at_endB8ue170006EPS3_, symObjAddr: 0x137BC, symBinAddr: 0x10002AD28, symSize: 0x4C }
  - { offsetInCU: 0x413A8, offset: 0x749D3, size: 0x8, addend: 0x0, symName: __ZNKSt3__16vectorINS_4fposI11__mbstate_tEENS_9allocatorIS3_EEE17__annotate_shrinkB8ue170006Em, symObjAddr: 0x13808, symBinAddr: 0x10002AD74, symSize: 0xD0 }
  - { offsetInCU: 0x413DC, offset: 0x74A07, size: 0x8, addend: 0x0, symName: __ZNKSt3__14fposI11__mbstate_tEcvxB8ue170006Ev, symObjAddr: 0x138D8, symBinAddr: 0x10002AE44, symSize: 0x18 }
  - { offsetInCU: 0x41401, offset: 0x74A2C, size: 0x8, addend: 0x0, symName: __ZNSt3__123__libcpp_numeric_limitsIfLb1EE7epsilonB8ue170006Ev, symObjAddr: 0x13914, symBinAddr: 0x10002AE80, symSize: 0x8 }
  - { offsetInCU: 0x41415, offset: 0x74A40, size: 0x8, addend: 0x0, symName: __ZNKSt3__16vectorIN7doctest6StringENS_9allocatorIS2_EEE5beginB8ue170006Ev, symObjAddr: 0x1391C, symBinAddr: 0x10002AE88, symSize: 0x30 }
  - { offsetInCU: 0x4143B, offset: 0x74A66, size: 0x8, addend: 0x0, symName: __ZNKSt3__16vectorIN7doctest6StringENS_9allocatorIS2_EEE3endB8ue170006Ev, symObjAddr: 0x1394C, symBinAddr: 0x10002AEB8, symSize: 0x30 }
  - { offsetInCU: 0x41461, offset: 0x74A8C, size: 0x8, addend: 0x0, symName: __ZNKSt3__111__wrap_iterIPKN7doctest6StringEEdeB8ue170006Ev, symObjAddr: 0x139B0, symBinAddr: 0x10002AF1C, symSize: 0x18 }
  - { offsetInCU: 0x41486, offset: 0x74AB1, size: 0x8, addend: 0x0, symName: __ZNSt3__111__wrap_iterIPKN7doctest6StringEEppB8ue170006Ev, symObjAddr: 0x13C68, symBinAddr: 0x10002B1D4, symSize: 0x20 }
  - { offsetInCU: 0x414AB, offset: 0x74AD6, size: 0x8, addend: 0x0, symName: __ZNKSt3__16vectorIN7doctest6StringENS_9allocatorIS2_EEE11__make_iterB8ue170006EPKS2_, symObjAddr: 0x13C88, symBinAddr: 0x10002B1F4, symSize: 0x30 }
  - { offsetInCU: 0x414DF, offset: 0x74B0A, size: 0x8, addend: 0x0, symName: __ZNSt3__111__wrap_iterIPKN7doctest6StringEEC1B8ue170006ES4_, symObjAddr: 0x13CB8, symBinAddr: 0x10002B224, symSize: 0x34 }
  - { offsetInCU: 0x41516, offset: 0x74B41, size: 0x8, addend: 0x0, symName: __ZNSt3__111__wrap_iterIPKN7doctest6StringEEC2B8ue170006ES4_, symObjAddr: 0x13CEC, symBinAddr: 0x10002B258, symSize: 0x20 }
  - { offsetInCU: 0x4154D, offset: 0x74B78, size: 0x8, addend: 0x0, symName: __ZNKSt3__111__wrap_iterIPKN7doctest6StringEE4baseB8ue170006Ev, symObjAddr: 0x13D54, symBinAddr: 0x10002B2C0, symSize: 0x18 }
  - { offsetInCU: 0x41572, offset: 0x74B9D, size: 0x8, addend: 0x0, symName: __ZNKSt3__111__wrap_iterIPPN7doctest9IReporterEE4baseB8ue170006Ev, symObjAddr: 0x13DB4, symBinAddr: 0x10002B320, symSize: 0x18 }
  - { offsetInCU: 0x41597, offset: 0x74BC2, size: 0x8, addend: 0x0, symName: __ZNKSt3__16vectorIN7doctest16SubcaseSignatureENS_9allocatorIS2_EEE5beginB8ue170006Ev, symObjAddr: 0x13DCC, symBinAddr: 0x10002B338, symSize: 0x30 }
  - { offsetInCU: 0x415BD, offset: 0x74BE8, size: 0x8, addend: 0x0, symName: __ZNKSt3__111__wrap_iterIPKN7doctest16SubcaseSignatureEEplB8ue170006El, symObjAddr: 0x13DFC, symBinAddr: 0x10002B368, symSize: 0x3C }
  - { offsetInCU: 0x415FE, offset: 0x74C29, size: 0x8, addend: 0x0, symName: __ZNKSt3__111__wrap_iterIPKN7doctest16SubcaseSignatureEEdeB8ue170006Ev, symObjAddr: 0x13E6C, symBinAddr: 0x10002B3D8, symSize: 0x18 }
  - { offsetInCU: 0x41623, offset: 0x74C4E, size: 0x8, addend: 0x0, symName: __ZNSt3__111__wrap_iterIPKN7doctest16SubcaseSignatureEEppB8ue170006Ei, symObjAddr: 0x13E84, symBinAddr: 0x10002B3F0, symSize: 0x34 }
  - { offsetInCU: 0x41660, offset: 0x74C8B, size: 0x8, addend: 0x0, symName: __ZNKSt3__16vectorIN7doctest16SubcaseSignatureENS_9allocatorIS2_EEE11__make_iterB8ue170006EPKS2_, symObjAddr: 0x13EB8, symBinAddr: 0x10002B424, symSize: 0x30 }
  - { offsetInCU: 0x41694, offset: 0x74CBF, size: 0x8, addend: 0x0, symName: __ZNSt3__111__wrap_iterIPKN7doctest16SubcaseSignatureEEC1B8ue170006ES4_, symObjAddr: 0x13EE8, symBinAddr: 0x10002B454, symSize: 0x34 }
  - { offsetInCU: 0x416CB, offset: 0x74CF6, size: 0x8, addend: 0x0, symName: __ZNSt3__111__wrap_iterIPKN7doctest16SubcaseSignatureEEC2B8ue170006ES4_, symObjAddr: 0x13F1C, symBinAddr: 0x10002B488, symSize: 0x20 }
  - { offsetInCU: 0x41702, offset: 0x74D2D, size: 0x8, addend: 0x0, symName: __ZNSt3__111__wrap_iterIPKN7doctest16SubcaseSignatureEEpLB8ue170006El, symObjAddr: 0x13F3C, symBinAddr: 0x10002B4A8, symSize: 0x30 }
  - { offsetInCU: 0x41735, offset: 0x74D60, size: 0x8, addend: 0x0, symName: __ZNKSt3__111__wrap_iterIPKN7doctest16SubcaseSignatureEE4baseB8ue170006Ev, symObjAddr: 0x13FB4, symBinAddr: 0x10002B520, symSize: 0x18 }
  - { offsetInCU: 0x4175A, offset: 0x74D85, size: 0x8, addend: 0x0, symName: __ZNSt3__111__wrap_iterIPKN7doctest16SubcaseSignatureEEppB8ue170006Ev, symObjAddr: 0x13FCC, symBinAddr: 0x10002B538, symSize: 0x20 }
  - { offsetInCU: 0x4177F, offset: 0x74DAA, size: 0x8, addend: 0x0, symName: __ZN7doctest16SubcaseSignatureD2Ev, symObjAddr: 0x1404C, symBinAddr: 0x10002B5B8, symSize: 0x2C }
  - { offsetInCU: 0x417AB, offset: 0x74DD6, size: 0x8, addend: 0x0, symName: __ZNKSt3__16vectorIN7doctest16SubcaseSignatureENS_9allocatorIS2_EEE3endB8ue170006Ev, symObjAddr: 0x14078, symBinAddr: 0x10002B5E4, symSize: 0x30 }
  - { offsetInCU: 0x417D1, offset: 0x74DFC, size: 0x8, addend: 0x0, symName: __ZN7doctest17TestCaseExceptionD2Ev, symObjAddr: 0x140A8, symBinAddr: 0x10002B614, symSize: 0x2C }
  - { offsetInCU: 0x417FD, offset: 0x74E28, size: 0x8, addend: 0x0, symName: __ZN7doctest6detail10ErrnoGuardC2Ev, symObjAddr: 0x140D4, symBinAddr: 0x10002B640, symSize: 0x38 }
  - { offsetInCU: 0x41826, offset: 0x74E51, size: 0x8, addend: 0x0, symName: __ZNSt3__114basic_ifstreamIcNS_11char_traitsIcEEED2Ev, symObjAddr: 0x1410C, symBinAddr: 0x10002B678, symSize: 0x64 }
  - { offsetInCU: 0x4185E, offset: 0x74E89, size: 0x8, addend: 0x0, symName: __ZTv0_n24_NSt3__114basic_ifstreamIcNS_11char_traitsIcEEED1Ev, symObjAddr: 0x14170, symBinAddr: 0x10002B6DC, symSize: 0x28 }
  - { offsetInCU: 0x41875, offset: 0x74EA0, size: 0x8, addend: 0x0, symName: __ZN7doctest6detail10ErrnoGuardD2Ev, symObjAddr: 0x14198, symBinAddr: 0x10002B704, symSize: 0x4C }
  - { offsetInCU: 0x4189E, offset: 0x74EC9, size: 0x8, addend: 0x0, symName: __ZNKSt3__111__wrap_iterIPPKN7doctest6detail20IExceptionTranslatorEE4baseB8ue170006Ev, symObjAddr: 0x141E4, symBinAddr: 0x10002B750, symSize: 0x18 }
  - { offsetInCU: 0x418C3, offset: 0x74EEE, size: 0x8, addend: 0x0, symName: __ZNSt3__16vectorIPKN7doctest6detail20IExceptionTranslatorENS_9allocatorIS5_EEEC1B8ue170006Ev, symObjAddr: 0x141FC, symBinAddr: 0x10002B768, symSize: 0x2C }
  - { offsetInCU: 0x418EC, offset: 0x74F17, size: 0x8, addend: 0x0, symName: __ZNSt3__16vectorIPKN7doctest6detail20IExceptionTranslatorENS_9allocatorIS5_EEED1B8ue170006Ev, symObjAddr: 0x14228, symBinAddr: 0x10002B794, symSize: 0x2C }
  - { offsetInCU: 0x41915, offset: 0x74F40, size: 0x8, addend: 0x0, symName: __ZNSt3__16vectorIPKN7doctest6detail20IExceptionTranslatorENS_9allocatorIS5_EEEC2B8ue170006Ev, symObjAddr: 0x14254, symBinAddr: 0x10002B7C0, symSize: 0x4C }
  - { offsetInCU: 0x4193E, offset: 0x74F69, size: 0x8, addend: 0x0, symName: __ZNSt3__117__compressed_pairIPPKN7doctest6detail20IExceptionTranslatorENS_9allocatorIS5_EEEC1B8ue170006IDnNS_18__default_init_tagEEEOT_OT0_, symObjAddr: 0x142A0, symBinAddr: 0x10002B80C, symSize: 0x3C }
  - { offsetInCU: 0x41995, offset: 0x74FC0, size: 0x8, addend: 0x0, symName: __ZNSt3__117__compressed_pairIPPKN7doctest6detail20IExceptionTranslatorENS_9allocatorIS5_EEEC2B8ue170006IDnNS_18__default_init_tagEEEOT_OT0_, symObjAddr: 0x142DC, symBinAddr: 0x10002B848, symSize: 0x40 }
  - { offsetInCU: 0x419EC, offset: 0x75017, size: 0x8, addend: 0x0, symName: __ZNSt3__122__compressed_pair_elemIPPKN7doctest6detail20IExceptionTranslatorELi0ELb0EEC2B8ue170006IDnvEEOT_, symObjAddr: 0x1431C, symBinAddr: 0x10002B888, symSize: 0x1C }
  - { offsetInCU: 0x41A2D, offset: 0x75058, size: 0x8, addend: 0x0, symName: __ZNSt3__122__compressed_pair_elemINS_9allocatorIPKN7doctest6detail20IExceptionTranslatorEEELi1ELb1EEC2B8ue170006ENS_18__default_init_tagE, symObjAddr: 0x14338, symBinAddr: 0x10002B8A4, symSize: 0x2C }
  - { offsetInCU: 0x41A60, offset: 0x7508B, size: 0x8, addend: 0x0, symName: __ZNSt3__19allocatorIPKN7doctest6detail20IExceptionTranslatorEEC2B8ue170006Ev, symObjAddr: 0x14364, symBinAddr: 0x10002B8D0, symSize: 0x2C }
  - { offsetInCU: 0x41A89, offset: 0x750B4, size: 0x8, addend: 0x0, symName: __ZNSt3__116__non_trivial_ifILb1ENS_9allocatorIPKN7doctest6detail20IExceptionTranslatorEEEEC2B8ue170006Ev, symObjAddr: 0x14390, symBinAddr: 0x10002B8FC, symSize: 0x14 }
  - { offsetInCU: 0x41AB2, offset: 0x750DD, size: 0x8, addend: 0x0, symName: __ZNSt3__16vectorIPKN7doctest6detail20IExceptionTranslatorENS_9allocatorIS5_EEED2B8ue170006Ev, symObjAddr: 0x143A4, symBinAddr: 0x10002B910, symSize: 0x44 }
  - { offsetInCU: 0x41ADB, offset: 0x75106, size: 0x8, addend: 0x0, symName: __ZNSt3__16vectorIPKN7doctest6detail20IExceptionTranslatorENS_9allocatorIS5_EEE16__destroy_vectorC1B8ue170006ERS8_, symObjAddr: 0x143E8, symBinAddr: 0x10002B954, symSize: 0x34 }
  - { offsetInCU: 0x41B13, offset: 0x7513E, size: 0x8, addend: 0x0, symName: __ZNSt3__16vectorIPKN7doctest6detail20IExceptionTranslatorENS_9allocatorIS5_EEE16__destroy_vectorclB8ue170006Ev, symObjAddr: 0x1441C, symBinAddr: 0x10002B988, symSize: 0x90 }
  - { offsetInCU: 0x41B38, offset: 0x75163, size: 0x8, addend: 0x0, symName: __ZNSt3__16vectorIPKN7doctest6detail20IExceptionTranslatorENS_9allocatorIS5_EEE16__destroy_vectorC2B8ue170006ERS8_, symObjAddr: 0x144AC, symBinAddr: 0x10002BA18, symSize: 0x20 }
  - { offsetInCU: 0x41B70, offset: 0x7519B, size: 0x8, addend: 0x0, symName: __ZNSt3__16vectorIPKN7doctest6detail20IExceptionTranslatorENS_9allocatorIS5_EEE7__clearB8ue170006Ev, symObjAddr: 0x144CC, symBinAddr: 0x10002BA38, symSize: 0x28 }
  - { offsetInCU: 0x41B95, offset: 0x751C0, size: 0x8, addend: 0x0, symName: __ZNKSt3__16vectorIPKN7doctest6detail20IExceptionTranslatorENS_9allocatorIS5_EEE17__annotate_deleteB8ue170006Ev, symObjAddr: 0x144F4, symBinAddr: 0x10002BA60, symSize: 0xB8 }
  - { offsetInCU: 0x41BBA, offset: 0x751E5, size: 0x8, addend: 0x0, symName: __ZNSt3__116allocator_traitsINS_9allocatorIPKN7doctest6detail20IExceptionTranslatorEEEE10deallocateB8ue170006ERS7_PS6_m, symObjAddr: 0x145AC, symBinAddr: 0x10002BB18, symSize: 0x34 }
  - { offsetInCU: 0x41BFC, offset: 0x75227, size: 0x8, addend: 0x0, symName: __ZNSt3__16vectorIPKN7doctest6detail20IExceptionTranslatorENS_9allocatorIS5_EEE7__allocB8ue170006Ev, symObjAddr: 0x145E0, symBinAddr: 0x10002BB4C, symSize: 0x28 }
  - { offsetInCU: 0x41C21, offset: 0x7524C, size: 0x8, addend: 0x0, symName: __ZNKSt3__16vectorIPKN7doctest6detail20IExceptionTranslatorENS_9allocatorIS5_EEE8capacityB8ue170006Ev, symObjAddr: 0x14608, symBinAddr: 0x10002BB74, symSize: 0x40 }
  - { offsetInCU: 0x41C46, offset: 0x75271, size: 0x8, addend: 0x0, symName: __ZNSt3__16vectorIPKN7doctest6detail20IExceptionTranslatorENS_9allocatorIS5_EEE22__base_destruct_at_endB8ue170006EPS5_, symObjAddr: 0x14648, symBinAddr: 0x10002BBB4, symSize: 0x8C }
  - { offsetInCU: 0x41C89, offset: 0x752B4, size: 0x8, addend: 0x0, symName: __ZNSt3__116allocator_traitsINS_9allocatorIPKN7doctest6detail20IExceptionTranslatorEEEE7destroyB8ue170006IS6_vEEvRS7_PT_, symObjAddr: 0x146D4, symBinAddr: 0x10002BC40, symSize: 0x2C }
  - { offsetInCU: 0x41CC6, offset: 0x752F1, size: 0x8, addend: 0x0, symName: __ZNSt3__19allocatorIPKN7doctest6detail20IExceptionTranslatorEE7destroyB8ue170006EPS5_, symObjAddr: 0x14714, symBinAddr: 0x10002BC80, symSize: 0x14 }
  - { offsetInCU: 0x41CF9, offset: 0x75324, size: 0x8, addend: 0x0, symName: __ZNKSt3__16vectorIPKN7doctest6detail20IExceptionTranslatorENS_9allocatorIS5_EEE31__annotate_contiguous_containerB8ue170006EPKvSA_SA_SA_, symObjAddr: 0x14728, symBinAddr: 0x10002BC94, symSize: 0x20 }
  - { offsetInCU: 0x41D4E, offset: 0x75379, size: 0x8, addend: 0x0, symName: __ZNKSt3__16vectorIPKN7doctest6detail20IExceptionTranslatorENS_9allocatorIS5_EEE4dataB8ue170006Ev, symObjAddr: 0x14748, symBinAddr: 0x10002BCB4, symSize: 0x28 }
  - { offsetInCU: 0x41D73, offset: 0x7539E, size: 0x8, addend: 0x0, symName: __ZNKSt3__16vectorIPKN7doctest6detail20IExceptionTranslatorENS_9allocatorIS5_EEE4sizeB8ue170006Ev, symObjAddr: 0x14770, symBinAddr: 0x10002BCDC, symSize: 0x28 }
  - { offsetInCU: 0x41D98, offset: 0x753C3, size: 0x8, addend: 0x0, symName: __ZNSt3__19allocatorIPKN7doctest6detail20IExceptionTranslatorEE10deallocateB8ue170006EPS5_m, symObjAddr: 0x14798, symBinAddr: 0x10002BD04, symSize: 0x40 }
  - { offsetInCU: 0x41DD9, offset: 0x75404, size: 0x8, addend: 0x0, symName: __ZNSt3__117__compressed_pairIPPKN7doctest6detail20IExceptionTranslatorENS_9allocatorIS5_EEE6secondB8ue170006Ev, symObjAddr: 0x147D8, symBinAddr: 0x10002BD44, symSize: 0x24 }
  - { offsetInCU: 0x41DFE, offset: 0x75429, size: 0x8, addend: 0x0, symName: __ZNSt3__122__compressed_pair_elemINS_9allocatorIPKN7doctest6detail20IExceptionTranslatorEEELi1ELb1EE5__getB8ue170006Ev, symObjAddr: 0x147FC, symBinAddr: 0x10002BD68, symSize: 0x14 }
  - { offsetInCU: 0x41E23, offset: 0x7544E, size: 0x8, addend: 0x0, symName: __ZNKSt3__16vectorIPKN7doctest6detail20IExceptionTranslatorENS_9allocatorIS5_EEE9__end_capB8ue170006Ev, symObjAddr: 0x14810, symBinAddr: 0x10002BD7C, symSize: 0x28 }
  - { offsetInCU: 0x41E48, offset: 0x75473, size: 0x8, addend: 0x0, symName: __ZNKSt3__117__compressed_pairIPPKN7doctest6detail20IExceptionTranslatorENS_9allocatorIS5_EEE5firstB8ue170006Ev, symObjAddr: 0x14838, symBinAddr: 0x10002BDA4, symSize: 0x24 }
  - { offsetInCU: 0x41E6D, offset: 0x75498, size: 0x8, addend: 0x0, symName: __ZNKSt3__122__compressed_pair_elemIPPKN7doctest6detail20IExceptionTranslatorELi0ELb0EE5__getB8ue170006Ev, symObjAddr: 0x1485C, symBinAddr: 0x10002BDC8, symSize: 0x14 }
  - { offsetInCU: 0x41E92, offset: 0x754BD, size: 0x8, addend: 0x0, symName: __ZNSt3__119basic_ostringstreamIcNS_11char_traitsIcEENS_9allocatorIcEEED2Ev, symObjAddr: 0x14870, symBinAddr: 0x10002BDDC, symSize: 0x64 }
  - { offsetInCU: 0x41ECA, offset: 0x754F5, size: 0x8, addend: 0x0, symName: __ZTv0_n24_NSt3__119basic_ostringstreamIcNS_11char_traitsIcEENS_9allocatorIcEEED1Ev, symObjAddr: 0x148D4, symBinAddr: 0x10002BE40, symSize: 0x28 }
  - { offsetInCU: 0x41EE1, offset: 0x7550C, size: 0x8, addend: 0x0, symName: __ZN7doctest10AssertData14StringContainsC2ERKS1_, symObjAddr: 0x148FC, symBinAddr: 0x10002BE68, symSize: 0x44 }
  - { offsetInCU: 0x41F16, offset: 0x75541, size: 0x8, addend: 0x0, symName: __ZN7doctest10AssertData14StringContainsC2ERKNS_6StringE, symObjAddr: 0x14940, symBinAddr: 0x10002BEAC, symSize: 0x38 }
  - { offsetInCU: 0x41F4E, offset: 0x75579, size: 0x8, addend: 0x0, symName: __ZN7doctest10AssertData14StringContainsD2Ev, symObjAddr: 0x14978, symBinAddr: 0x10002BEE4, symSize: 0x2C }
  - { offsetInCU: 0x41F7A, offset: 0x755A5, size: 0x8, addend: 0x0, symName: __ZN7doctest8ContainsC2ERKS0_, symObjAddr: 0x149A4, symBinAddr: 0x10002BF10, symSize: 0x34 }
  - { offsetInCU: 0x41FAF, offset: 0x755DA, size: 0x8, addend: 0x0, symName: __ZN7doctest10AssertData14StringContainsC2ENS_8ContainsE, symObjAddr: 0x149D8, symBinAddr: 0x10002BF44, symSize: 0x3C }
  - { offsetInCU: 0x41FED, offset: 0x75618, size: 0x8, addend: 0x0, symName: __ZN7doctest8ContainsC1EOS0_, symObjAddr: 0x14A14, symBinAddr: 0x10002BF80, symSize: 0x34 }
  - { offsetInCU: 0x42022, offset: 0x7564D, size: 0x8, addend: 0x0, symName: __ZN7doctest8ContainsC2EOS0_, symObjAddr: 0x14A48, symBinAddr: 0x10002BFB4, symSize: 0x34 }
  - { offsetInCU: 0x42057, offset: 0x75682, size: 0x8, addend: 0x0, symName: __ZN7doctest8ContainsD2Ev, symObjAddr: 0x14A7C, symBinAddr: 0x10002BFE8, symSize: 0x2C }
  - { offsetInCU: 0x42083, offset: 0x756AE, size: 0x8, addend: 0x0, symName: __ZNKSt3__111__wrap_iterIPPKN7doctest6detail20IExceptionTranslatorEEdeB8ue170006Ev, symObjAddr: 0x14ADC, symBinAddr: 0x10002C048, symSize: 0x18 }
  - { offsetInCU: 0x420A8, offset: 0x756D3, size: 0x8, addend: 0x0, symName: __ZNSt3__111__wrap_iterIPPKN7doctest6detail20IExceptionTranslatorEEppB8ue170006Ev, symObjAddr: 0x14AF4, symBinAddr: 0x10002C060, symSize: 0x20 }
  - { offsetInCU: 0x420CD, offset: 0x756F8, size: 0x8, addend: 0x0, symName: __ZN7doctest6detail15MultiLaneAtomicIiEppEi, symObjAddr: 0x14B14, symBinAddr: 0x10002C080, symSize: 0x30 }
  - { offsetInCU: 0x420FE, offset: 0x75729, size: 0x8, addend: 0x0, symName: __ZN7doctest6detail15MultiLaneAtomicIiE9fetch_addEiNSt3__112memory_orderE, symObjAddr: 0x14B44, symBinAddr: 0x10002C0B0, symSize: 0x38 }
  - { offsetInCU: 0x42141, offset: 0x7576C, size: 0x8, addend: 0x0, symName: __ZNSt3__113__atomic_baseIiLb1EE9fetch_addB8ue170006EiNS_12memory_orderE, symObjAddr: 0x14C1C, symBinAddr: 0x10002C188, symSize: 0x34 }
  - { offsetInCU: 0x42182, offset: 0x757AD, size: 0x8, addend: 0x0, symName: __ZNSt3__113__atomic_baseImLb1EEppB8ue170006Ei, symObjAddr: 0x14C50, symBinAddr: 0x10002C1BC, symSize: 0x30 }
  - { offsetInCU: 0x421B1, offset: 0x757DC, size: 0x8, addend: 0x0, symName: __ZNSt3__113__atomic_baseImLb1EE9fetch_addB8ue170006EmNS_12memory_orderE, symObjAddr: 0x14C80, symBinAddr: 0x10002C1EC, symSize: 0x34 }
  - { offsetInCU: 0x421F2, offset: 0x7581D, size: 0x8, addend: 0x0, symName: __ZN7doctest6detail13ResultBuilderD2Ev, symObjAddr: 0x14E64, symBinAddr: 0x10002C3D0, symSize: 0x2C }
  - { offsetInCU: 0x4221E, offset: 0x75849, size: 0x8, addend: 0x0, symName: __ZN7doctest10AssertDataD2Ev, symObjAddr: 0x14E90, symBinAddr: 0x10002C3FC, symSize: 0x48 }
  - { offsetInCU: 0x4224A, offset: 0x75875, size: 0x8, addend: 0x0, symName: __ZN7doctest6detail12ContextStateC2Ev, symObjAddr: 0x14ED8, symBinAddr: 0x10002C444, symSize: 0xE4 }
  - { offsetInCU: 0x4227B, offset: 0x758A6, size: 0x8, addend: 0x0, symName: __ZN7doctest14ContextOptionsC2Ev, symObjAddr: 0x14FBC, symBinAddr: 0x10002C528, symSize: 0x50 }
  - { offsetInCU: 0x422A7, offset: 0x758D2, size: 0x8, addend: 0x0, symName: __ZN7doctest6detail15MultiLaneAtomicIiEC1Ev, symObjAddr: 0x1500C, symBinAddr: 0x10002C578, symSize: 0x2C }
  - { offsetInCU: 0x422D3, offset: 0x758FE, size: 0x8, addend: 0x0, symName: __ZNSt3__16vectorINS0_IN7doctest6StringENS_9allocatorIS2_EEEENS3_IS5_EEEC1Em, symObjAddr: 0x15038, symBinAddr: 0x10002C5A4, symSize: 0x34 }
  - { offsetInCU: 0x4230D, offset: 0x75938, size: 0x8, addend: 0x0, symName: __ZNSt3__16vectorIPN7doctest9IReporterENS_9allocatorIS3_EEEC1B8ue170006Ev, symObjAddr: 0x1506C, symBinAddr: 0x10002C5D8, symSize: 0x2C }
  - { offsetInCU: 0x42336, offset: 0x75961, size: 0x8, addend: 0x0, symName: __ZN7doctest6detail5TimerC1Ev, symObjAddr: 0x15098, symBinAddr: 0x10002C604, symSize: 0x2C }
  - { offsetInCU: 0x42362, offset: 0x7598D, size: 0x8, addend: 0x0, symName: __ZNSt3__16vectorIN7doctest6StringENS_9allocatorIS2_EEEC1B8ue170006Ev, symObjAddr: 0x150C4, symBinAddr: 0x10002C630, symSize: 0x2C }
  - { offsetInCU: 0x4238B, offset: 0x759B6, size: 0x8, addend: 0x0, symName: __ZNSt3__16vectorIN7doctest16SubcaseSignatureENS_9allocatorIS2_EEEC1B8ue170006Ev, symObjAddr: 0x150F0, symBinAddr: 0x10002C65C, symSize: 0x2C }
  - { offsetInCU: 0x423B4, offset: 0x759DF, size: 0x8, addend: 0x0, symName: __ZNSt3__113unordered_setIyNS_4hashIyEENS_8equal_toIyEENS_9allocatorIyEEEC1B8ue170006Ev, symObjAddr: 0x1511C, symBinAddr: 0x10002C688, symSize: 0x2C }
  - { offsetInCU: 0x423DD, offset: 0x75A08, size: 0x8, addend: 0x0, symName: __ZN7doctest14ContextOptionsD2Ev, symObjAddr: 0x15148, symBinAddr: 0x10002C6B4, symSize: 0x48 }
  - { offsetInCU: 0x42409, offset: 0x75A34, size: 0x8, addend: 0x0, symName: __ZN7doctest6detail15MultiLaneAtomicIiEC2Ev, symObjAddr: 0x15190, symBinAddr: 0x10002C6FC, symSize: 0x68 }
  - { offsetInCU: 0x4243A, offset: 0x75A65, size: 0x8, addend: 0x0, symName: __ZN7doctest6detail15MultiLaneAtomicIiE22CacheLineAlignedAtomicC1Ev, symObjAddr: 0x151F8, symBinAddr: 0x10002C764, symSize: 0x2C }
  - { offsetInCU: 0x42466, offset: 0x75A91, size: 0x8, addend: 0x0, symName: __ZN7doctest6detail15MultiLaneAtomicIiE22CacheLineAlignedAtomicC2Ev, symObjAddr: 0x15224, symBinAddr: 0x10002C790, symSize: 0x18 }
  - { offsetInCU: 0x42492, offset: 0x75ABD, size: 0x8, addend: 0x0, symName: __ZNSt3__16vectorINS0_IN7doctest6StringENS_9allocatorIS2_EEEENS3_IS5_EEEC2Em, symObjAddr: 0x1523C, symBinAddr: 0x10002C7A8, symSize: 0xD4 }
  - { offsetInCU: 0x424E1, offset: 0x75B0C, size: 0x8, addend: 0x0, symName: __ZNSt3__117__compressed_pairIPNS_6vectorIN7doctest6StringENS_9allocatorIS3_EEEENS4_IS6_EEEC1B8ue170006IDnNS_18__default_init_tagEEEOT_OT0_, symObjAddr: 0x15310, symBinAddr: 0x10002C87C, symSize: 0x3C }
  - { offsetInCU: 0x42538, offset: 0x75B63, size: 0x8, addend: 0x0, symName: __ZNSt3__16vectorINS0_IN7doctest6StringENS_9allocatorIS2_EEEENS3_IS5_EEE16__destroy_vectorC1B8ue170006ERS7_, symObjAddr: 0x1538C, symBinAddr: 0x10002C8F8, symSize: 0x34 }
  - { offsetInCU: 0x42570, offset: 0x75B9B, size: 0x8, addend: 0x0, symName: __ZNSt3__16vectorINS0_IN7doctest6StringENS_9allocatorIS2_EEEENS3_IS5_EEE11__vallocateB8ue170006Em, symObjAddr: 0x153C0, symBinAddr: 0x10002C92C, symSize: 0xB4 }
  - { offsetInCU: 0x425B3, offset: 0x75BDE, size: 0x8, addend: 0x0, symName: __ZNSt3__16vectorINS0_IN7doctest6StringENS_9allocatorIS2_EEEENS3_IS5_EEE18__construct_at_endEm, symObjAddr: 0x15474, symBinAddr: 0x10002C9E0, symSize: 0xC8 }
  - { offsetInCU: 0x42624, offset: 0x75C4F, size: 0x8, addend: 0x0, symName: __ZNSt3__128__exception_guard_exceptionsINS_6vectorINS1_IN7doctest6StringENS_9allocatorIS3_EEEENS4_IS6_EEE16__destroy_vectorEE10__completeB8ue170006Ev, symObjAddr: 0x1553C, symBinAddr: 0x10002CAA8, symSize: 0x1C }
  - { offsetInCU: 0x42649, offset: 0x75C74, size: 0x8, addend: 0x0, symName: __ZNSt3__128__exception_guard_exceptionsINS_6vectorINS1_IN7doctest6StringENS_9allocatorIS3_EEEENS4_IS6_EEE16__destroy_vectorEED1B8ue170006Ev, symObjAddr: 0x15558, symBinAddr: 0x10002CAC4, symSize: 0x2C }
  - { offsetInCU: 0x42672, offset: 0x75C9D, size: 0x8, addend: 0x0, symName: __ZNSt3__117__compressed_pairIPNS_6vectorIN7doctest6StringENS_9allocatorIS3_EEEENS4_IS6_EEEC2B8ue170006IDnNS_18__default_init_tagEEEOT_OT0_, symObjAddr: 0x15584, symBinAddr: 0x10002CAF0, symSize: 0x40 }
  - { offsetInCU: 0x426C9, offset: 0x75CF4, size: 0x8, addend: 0x0, symName: __ZNSt3__122__compressed_pair_elemIPNS_6vectorIN7doctest6StringENS_9allocatorIS3_EEEELi0ELb0EEC2B8ue170006IDnvEEOT_, symObjAddr: 0x155C4, symBinAddr: 0x10002CB30, symSize: 0x1C }
  - { offsetInCU: 0x4270A, offset: 0x75D35, size: 0x8, addend: 0x0, symName: __ZNSt3__122__compressed_pair_elemINS_9allocatorINS_6vectorIN7doctest6StringENS1_IS4_EEEEEELi1ELb1EEC2B8ue170006ENS_18__default_init_tagE, symObjAddr: 0x155E0, symBinAddr: 0x10002CB4C, symSize: 0x2C }
  - { offsetInCU: 0x4273D, offset: 0x75D68, size: 0x8, addend: 0x0, symName: __ZNSt3__19allocatorINS_6vectorIN7doctest6StringENS0_IS3_EEEEEC2B8ue170006Ev, symObjAddr: 0x1560C, symBinAddr: 0x10002CB78, symSize: 0x2C }
  - { offsetInCU: 0x42766, offset: 0x75D91, size: 0x8, addend: 0x0, symName: __ZNSt3__116__non_trivial_ifILb1ENS_9allocatorINS_6vectorIN7doctest6StringENS1_IS4_EEEEEEEC2B8ue170006Ev, symObjAddr: 0x15638, symBinAddr: 0x10002CBA4, symSize: 0x14 }
  - { offsetInCU: 0x4278F, offset: 0x75DBA, size: 0x8, addend: 0x0, symName: __ZNSt3__128__exception_guard_exceptionsINS_6vectorINS1_IN7doctest6StringENS_9allocatorIS3_EEEENS4_IS6_EEE16__destroy_vectorEEC1B8ue170006ES9_, symObjAddr: 0x1564C, symBinAddr: 0x10002CBB8, symSize: 0x34 }
  - { offsetInCU: 0x427C6, offset: 0x75DF1, size: 0x8, addend: 0x0, symName: __ZNSt3__128__exception_guard_exceptionsINS_6vectorINS1_IN7doctest6StringENS_9allocatorIS3_EEEENS4_IS6_EEE16__destroy_vectorEEC2B8ue170006ES9_, symObjAddr: 0x15680, symBinAddr: 0x10002CBEC, symSize: 0x24 }
  - { offsetInCU: 0x427FD, offset: 0x75E28, size: 0x8, addend: 0x0, symName: __ZNSt3__16vectorINS0_IN7doctest6StringENS_9allocatorIS2_EEEENS3_IS5_EEE16__destroy_vectorC2B8ue170006ERS7_, symObjAddr: 0x156A4, symBinAddr: 0x10002CC10, symSize: 0x20 }
  - { offsetInCU: 0x42835, offset: 0x75E60, size: 0x8, addend: 0x0, symName: __ZNKSt3__16vectorINS0_IN7doctest6StringENS_9allocatorIS2_EEEENS3_IS5_EEE8max_sizeEv, symObjAddr: 0x156C4, symBinAddr: 0x10002CC30, symSize: 0x60 }
  - { offsetInCU: 0x4285B, offset: 0x75E86, size: 0x8, addend: 0x0, symName: __ZNKSt3__16vectorINS0_IN7doctest6StringENS_9allocatorIS2_EEEENS3_IS5_EEE20__throw_length_errorB8ue170006Ev, symObjAddr: 0x15724, symBinAddr: 0x10002CC90, symSize: 0x1C }
  - { offsetInCU: 0x42880, offset: 0x75EAB, size: 0x8, addend: 0x0, symName: __ZNSt3__16vectorINS0_IN7doctest6StringENS_9allocatorIS2_EEEENS3_IS5_EEE7__allocB8ue170006Ev, symObjAddr: 0x15780, symBinAddr: 0x10002CCEC, symSize: 0x28 }
  - { offsetInCU: 0x428A5, offset: 0x75ED0, size: 0x8, addend: 0x0, symName: __ZNSt3__16vectorINS0_IN7doctest6StringENS_9allocatorIS2_EEEENS3_IS5_EEE9__end_capB8ue170006Ev, symObjAddr: 0x157A8, symBinAddr: 0x10002CD14, symSize: 0x28 }
  - { offsetInCU: 0x428CA, offset: 0x75EF5, size: 0x8, addend: 0x0, symName: __ZNKSt3__16vectorINS0_IN7doctest6StringENS_9allocatorIS2_EEEENS3_IS5_EEE14__annotate_newB8ue170006Em, symObjAddr: 0x157D0, symBinAddr: 0x10002CD3C, symSize: 0xC8 }
  - { offsetInCU: 0x42908, offset: 0x75F33, size: 0x8, addend: 0x0, symName: __ZNSt3__116allocator_traitsINS_9allocatorINS_6vectorIN7doctest6StringENS1_IS4_EEEEEEE8max_sizeB8ue170006IS7_vEEmRKS7_, symObjAddr: 0x15898, symBinAddr: 0x10002CE04, symSize: 0x24 }
  - { offsetInCU: 0x42936, offset: 0x75F61, size: 0x8, addend: 0x0, symName: __ZNKSt3__16vectorINS0_IN7doctest6StringENS_9allocatorIS2_EEEENS3_IS5_EEE7__allocB8ue170006Ev, symObjAddr: 0x158BC, symBinAddr: 0x10002CE28, symSize: 0x28 }
  - { offsetInCU: 0x4295B, offset: 0x75F86, size: 0x8, addend: 0x0, symName: __ZNKSt3__19allocatorINS_6vectorIN7doctest6StringENS0_IS3_EEEEE8max_sizeB8ue170006Ev, symObjAddr: 0x158E4, symBinAddr: 0x10002CE50, symSize: 0x18 }
  - { offsetInCU: 0x42980, offset: 0x75FAB, size: 0x8, addend: 0x0, symName: __ZNKSt3__117__compressed_pairIPNS_6vectorIN7doctest6StringENS_9allocatorIS3_EEEENS4_IS6_EEE6secondB8ue170006Ev, symObjAddr: 0x158FC, symBinAddr: 0x10002CE68, symSize: 0x24 }
  - { offsetInCU: 0x429A5, offset: 0x75FD0, size: 0x8, addend: 0x0, symName: __ZNKSt3__122__compressed_pair_elemINS_9allocatorINS_6vectorIN7doctest6StringENS1_IS4_EEEEEELi1ELb1EE5__getB8ue170006Ev, symObjAddr: 0x15920, symBinAddr: 0x10002CE8C, symSize: 0x14 }
  - { offsetInCU: 0x429CA, offset: 0x75FF5, size: 0x8, addend: 0x0, symName: __ZNSt3__19allocatorINS_6vectorIN7doctest6StringENS0_IS3_EEEEE8allocateB8ue170006Em, symObjAddr: 0x15934, symBinAddr: 0x10002CEA0, symSize: 0x5C }
  - { offsetInCU: 0x429FD, offset: 0x76028, size: 0x8, addend: 0x0, symName: __ZNSt3__117__compressed_pairIPNS_6vectorIN7doctest6StringENS_9allocatorIS3_EEEENS4_IS6_EEE6secondB8ue170006Ev, symObjAddr: 0x15990, symBinAddr: 0x10002CEFC, symSize: 0x24 }
  - { offsetInCU: 0x42A22, offset: 0x7604D, size: 0x8, addend: 0x0, symName: __ZNSt3__122__compressed_pair_elemINS_9allocatorINS_6vectorIN7doctest6StringENS1_IS4_EEEEEELi1ELb1EE5__getB8ue170006Ev, symObjAddr: 0x159B4, symBinAddr: 0x10002CF20, symSize: 0x14 }
  - { offsetInCU: 0x42A47, offset: 0x76072, size: 0x8, addend: 0x0, symName: __ZNSt3__117__compressed_pairIPNS_6vectorIN7doctest6StringENS_9allocatorIS3_EEEENS4_IS6_EEE5firstB8ue170006Ev, symObjAddr: 0x159C8, symBinAddr: 0x10002CF34, symSize: 0x24 }
  - { offsetInCU: 0x42A6C, offset: 0x76097, size: 0x8, addend: 0x0, symName: __ZNSt3__122__compressed_pair_elemIPNS_6vectorIN7doctest6StringENS_9allocatorIS3_EEEELi0ELb0EE5__getB8ue170006Ev, symObjAddr: 0x159EC, symBinAddr: 0x10002CF58, symSize: 0x14 }
  - { offsetInCU: 0x42A91, offset: 0x760BC, size: 0x8, addend: 0x0, symName: __ZNKSt3__16vectorINS0_IN7doctest6StringENS_9allocatorIS2_EEEENS3_IS5_EEE31__annotate_contiguous_containerB8ue170006EPKvS9_S9_S9_, symObjAddr: 0x15A00, symBinAddr: 0x10002CF6C, symSize: 0x20 }
  - { offsetInCU: 0x42AE6, offset: 0x76111, size: 0x8, addend: 0x0, symName: __ZNKSt3__16vectorINS0_IN7doctest6StringENS_9allocatorIS2_EEEENS3_IS5_EEE4dataB8ue170006Ev, symObjAddr: 0x15A20, symBinAddr: 0x10002CF8C, symSize: 0x28 }
  - { offsetInCU: 0x42B0B, offset: 0x76136, size: 0x8, addend: 0x0, symName: __ZNKSt3__16vectorINS0_IN7doctest6StringENS_9allocatorIS2_EEEENS3_IS5_EEE8capacityB8ue170006Ev, symObjAddr: 0x15A48, symBinAddr: 0x10002CFB4, symSize: 0x40 }
  - { offsetInCU: 0x42B30, offset: 0x7615B, size: 0x8, addend: 0x0, symName: __ZNKSt3__16vectorINS0_IN7doctest6StringENS_9allocatorIS2_EEEENS3_IS5_EEE9__end_capB8ue170006Ev, symObjAddr: 0x15A9C, symBinAddr: 0x10002D008, symSize: 0x28 }
  - { offsetInCU: 0x42B55, offset: 0x76180, size: 0x8, addend: 0x0, symName: __ZNKSt3__117__compressed_pairIPNS_6vectorIN7doctest6StringENS_9allocatorIS3_EEEENS4_IS6_EEE5firstB8ue170006Ev, symObjAddr: 0x15AC4, symBinAddr: 0x10002D030, symSize: 0x24 }
  - { offsetInCU: 0x42B7A, offset: 0x761A5, size: 0x8, addend: 0x0, symName: __ZNKSt3__122__compressed_pair_elemIPNS_6vectorIN7doctest6StringENS_9allocatorIS3_EEEELi0ELb0EE5__getB8ue170006Ev, symObjAddr: 0x15AE8, symBinAddr: 0x10002D054, symSize: 0x14 }
  - { offsetInCU: 0x42BB8, offset: 0x761E3, size: 0x8, addend: 0x0, symName: __ZNSt3__16vectorINS0_IN7doctest6StringENS_9allocatorIS2_EEEENS3_IS5_EEE21_ConstructTransactionC1B8ue170006ERS7_m, symObjAddr: 0x15AFC, symBinAddr: 0x10002D068, symSize: 0x3C }
  - { offsetInCU: 0x42BFF, offset: 0x7622A, size: 0x8, addend: 0x0, symName: __ZNSt3__116allocator_traitsINS_9allocatorINS_6vectorIN7doctest6StringENS1_IS4_EEEEEEE9constructB8ue170006IS6_JEvEEvRS7_PT_DpOT0_, symObjAddr: 0x15B38, symBinAddr: 0x10002D0A4, symSize: 0x2C }
  - { offsetInCU: 0x42C41, offset: 0x7626C, size: 0x8, addend: 0x0, symName: __ZNSt3__16vectorINS0_IN7doctest6StringENS_9allocatorIS2_EEEENS3_IS5_EEE21_ConstructTransactionD1B8ue170006Ev, symObjAddr: 0x15B64, symBinAddr: 0x10002D0D0, symSize: 0x2C }
  - { offsetInCU: 0x42C6A, offset: 0x76295, size: 0x8, addend: 0x0, symName: __ZNSt3__16vectorINS0_IN7doctest6StringENS_9allocatorIS2_EEEENS3_IS5_EEE21_ConstructTransactionC2B8ue170006ERS7_m, symObjAddr: 0x15B90, symBinAddr: 0x10002D0FC, symSize: 0x4C }
  - { offsetInCU: 0x42CB1, offset: 0x762DC, size: 0x8, addend: 0x0, symName: __ZNSt3__19allocatorINS_6vectorIN7doctest6StringENS0_IS3_EEEEE9constructB8ue170006IS5_JEEEvPT_DpOT0_, symObjAddr: 0x15BDC, symBinAddr: 0x10002D148, symSize: 0x28 }
  - { offsetInCU: 0x42CF2, offset: 0x7631D, size: 0x8, addend: 0x0, symName: __ZNSt3__16vectorINS0_IN7doctest6StringENS_9allocatorIS2_EEEENS3_IS5_EEE21_ConstructTransactionD2B8ue170006Ev, symObjAddr: 0x15C04, symBinAddr: 0x10002D170, symSize: 0x20 }
  - { offsetInCU: 0x42D1B, offset: 0x76346, size: 0x8, addend: 0x0, symName: __ZNSt3__128__exception_guard_exceptionsINS_6vectorINS1_IN7doctest6StringENS_9allocatorIS3_EEEENS4_IS6_EEE16__destroy_vectorEED2B8ue170006Ev, symObjAddr: 0x15C24, symBinAddr: 0x10002D190, symSize: 0x50 }
  - { offsetInCU: 0x42D44, offset: 0x7636F, size: 0x8, addend: 0x0, symName: __ZNSt3__16vectorINS0_IN7doctest6StringENS_9allocatorIS2_EEEENS3_IS5_EEE16__destroy_vectorclB8ue170006Ev, symObjAddr: 0x15C74, symBinAddr: 0x10002D1E0, symSize: 0x90 }
  - { offsetInCU: 0x42D69, offset: 0x76394, size: 0x8, addend: 0x0, symName: __ZNSt3__16vectorINS0_IN7doctest6StringENS_9allocatorIS2_EEEENS3_IS5_EEE7__clearB8ue170006Ev, symObjAddr: 0x15D04, symBinAddr: 0x10002D270, symSize: 0x28 }
  - { offsetInCU: 0x42D8E, offset: 0x763B9, size: 0x8, addend: 0x0, symName: __ZNKSt3__16vectorINS0_IN7doctest6StringENS_9allocatorIS2_EEEENS3_IS5_EEE17__annotate_deleteB8ue170006Ev, symObjAddr: 0x15D2C, symBinAddr: 0x10002D298, symSize: 0xD4 }
  - { offsetInCU: 0x42DB3, offset: 0x763DE, size: 0x8, addend: 0x0, symName: __ZNSt3__116allocator_traitsINS_9allocatorINS_6vectorIN7doctest6StringENS1_IS4_EEEEEEE10deallocateB8ue170006ERS7_PS6_m, symObjAddr: 0x15E00, symBinAddr: 0x10002D36C, symSize: 0x34 }
  - { offsetInCU: 0x42DF5, offset: 0x76420, size: 0x8, addend: 0x0, symName: __ZNSt3__16vectorINS0_IN7doctest6StringENS_9allocatorIS2_EEEENS3_IS5_EEE22__base_destruct_at_endB8ue170006EPS5_, symObjAddr: 0x15E34, symBinAddr: 0x10002D3A0, symSize: 0x8C }
  - { offsetInCU: 0x42E38, offset: 0x76463, size: 0x8, addend: 0x0, symName: __ZNSt3__116allocator_traitsINS_9allocatorINS_6vectorIN7doctest6StringENS1_IS4_EEEEEEE7destroyB8ue170006IS6_vEEvRS7_PT_, symObjAddr: 0x15EC0, symBinAddr: 0x10002D42C, symSize: 0x2C }
  - { offsetInCU: 0x42E75, offset: 0x764A0, size: 0x8, addend: 0x0, symName: __ZNSt3__19allocatorINS_6vectorIN7doctest6StringENS0_IS3_EEEEE7destroyB8ue170006EPS5_, symObjAddr: 0x15EEC, symBinAddr: 0x10002D458, symSize: 0x28 }
  - { offsetInCU: 0x42EA8, offset: 0x764D3, size: 0x8, addend: 0x0, symName: __ZNSt3__16vectorIN7doctest6StringENS_9allocatorIS2_EEED1B8ue170006Ev, symObjAddr: 0x15F14, symBinAddr: 0x10002D480, symSize: 0x2C }
  - { offsetInCU: 0x42ED1, offset: 0x764FC, size: 0x8, addend: 0x0, symName: __ZNSt3__16vectorIN7doctest6StringENS_9allocatorIS2_EEED2B8ue170006Ev, symObjAddr: 0x15F40, symBinAddr: 0x10002D4AC, symSize: 0x44 }
  - { offsetInCU: 0x42EFA, offset: 0x76525, size: 0x8, addend: 0x0, symName: __ZNSt3__16vectorIN7doctest6StringENS_9allocatorIS2_EEE16__destroy_vectorC1B8ue170006ERS5_, symObjAddr: 0x15F84, symBinAddr: 0x10002D4F0, symSize: 0x34 }
  - { offsetInCU: 0x42F32, offset: 0x7655D, size: 0x8, addend: 0x0, symName: __ZNSt3__16vectorIN7doctest6StringENS_9allocatorIS2_EEE16__destroy_vectorclB8ue170006Ev, symObjAddr: 0x15FB8, symBinAddr: 0x10002D524, symSize: 0x90 }
  - { offsetInCU: 0x42F57, offset: 0x76582, size: 0x8, addend: 0x0, symName: __ZNSt3__16vectorIN7doctest6StringENS_9allocatorIS2_EEE16__destroy_vectorC2B8ue170006ERS5_, symObjAddr: 0x16048, symBinAddr: 0x10002D5B4, symSize: 0x20 }
  - { offsetInCU: 0x42F8F, offset: 0x765BA, size: 0x8, addend: 0x0, symName: __ZNSt3__16vectorIN7doctest6StringENS_9allocatorIS2_EEE7__clearB8ue170006Ev, symObjAddr: 0x16068, symBinAddr: 0x10002D5D4, symSize: 0x28 }
  - { offsetInCU: 0x42FB4, offset: 0x765DF, size: 0x8, addend: 0x0, symName: __ZNKSt3__16vectorIN7doctest6StringENS_9allocatorIS2_EEE17__annotate_deleteB8ue170006Ev, symObjAddr: 0x16090, symBinAddr: 0x10002D5FC, symSize: 0xD4 }
  - { offsetInCU: 0x42FD9, offset: 0x76604, size: 0x8, addend: 0x0, symName: __ZNSt3__116allocator_traitsINS_9allocatorIN7doctest6StringEEEE10deallocateB8ue170006ERS4_PS3_m, symObjAddr: 0x16164, symBinAddr: 0x10002D6D0, symSize: 0x34 }
  - { offsetInCU: 0x4301B, offset: 0x76646, size: 0x8, addend: 0x0, symName: __ZNSt3__16vectorIN7doctest6StringENS_9allocatorIS2_EEE7__allocB8ue170006Ev, symObjAddr: 0x16198, symBinAddr: 0x10002D704, symSize: 0x28 }
  - { offsetInCU: 0x43040, offset: 0x7666B, size: 0x8, addend: 0x0, symName: __ZNKSt3__16vectorIN7doctest6StringENS_9allocatorIS2_EEE8capacityB8ue170006Ev, symObjAddr: 0x161C0, symBinAddr: 0x10002D72C, symSize: 0x40 }
  - { offsetInCU: 0x43065, offset: 0x76690, size: 0x8, addend: 0x0, symName: __ZNSt3__16vectorIN7doctest6StringENS_9allocatorIS2_EEE22__base_destruct_at_endB8ue170006EPS2_, symObjAddr: 0x16200, symBinAddr: 0x10002D76C, symSize: 0x8C }
  - { offsetInCU: 0x430A8, offset: 0x766D3, size: 0x8, addend: 0x0, symName: __ZNSt3__116allocator_traitsINS_9allocatorIN7doctest6StringEEEE7destroyB8ue170006IS3_vEEvRS4_PT_, symObjAddr: 0x1628C, symBinAddr: 0x10002D7F8, symSize: 0x2C }
  - { offsetInCU: 0x430E5, offset: 0x76710, size: 0x8, addend: 0x0, symName: __ZNSt3__19allocatorIN7doctest6StringEE7destroyB8ue170006EPS2_, symObjAddr: 0x162CC, symBinAddr: 0x10002D838, symSize: 0x28 }
  - { offsetInCU: 0x43118, offset: 0x76743, size: 0x8, addend: 0x0, symName: __ZNKSt3__16vectorIN7doctest6StringENS_9allocatorIS2_EEE31__annotate_contiguous_containerB8ue170006EPKvS7_S7_S7_, symObjAddr: 0x162F4, symBinAddr: 0x10002D860, symSize: 0x20 }
  - { offsetInCU: 0x4316D, offset: 0x76798, size: 0x8, addend: 0x0, symName: __ZNKSt3__16vectorIN7doctest6StringENS_9allocatorIS2_EEE4dataB8ue170006Ev, symObjAddr: 0x16314, symBinAddr: 0x10002D880, symSize: 0x28 }
  - { offsetInCU: 0x43192, offset: 0x767BD, size: 0x8, addend: 0x0, symName: __ZNSt3__19allocatorIN7doctest6StringEE10deallocateB8ue170006EPS2_m, symObjAddr: 0x1633C, symBinAddr: 0x10002D8A8, symSize: 0x44 }
  - { offsetInCU: 0x431D3, offset: 0x767FE, size: 0x8, addend: 0x0, symName: __ZNSt3__117__compressed_pairIPN7doctest6StringENS_9allocatorIS2_EEE6secondB8ue170006Ev, symObjAddr: 0x16380, symBinAddr: 0x10002D8EC, symSize: 0x24 }
  - { offsetInCU: 0x431F8, offset: 0x76823, size: 0x8, addend: 0x0, symName: __ZNSt3__122__compressed_pair_elemINS_9allocatorIN7doctest6StringEEELi1ELb1EE5__getB8ue170006Ev, symObjAddr: 0x163A4, symBinAddr: 0x10002D910, symSize: 0x14 }
  - { offsetInCU: 0x4321D, offset: 0x76848, size: 0x8, addend: 0x0, symName: __ZNKSt3__16vectorIN7doctest6StringENS_9allocatorIS2_EEE9__end_capB8ue170006Ev, symObjAddr: 0x163B8, symBinAddr: 0x10002D924, symSize: 0x28 }
  - { offsetInCU: 0x43242, offset: 0x7686D, size: 0x8, addend: 0x0, symName: __ZNKSt3__117__compressed_pairIPN7doctest6StringENS_9allocatorIS2_EEE5firstB8ue170006Ev, symObjAddr: 0x163E0, symBinAddr: 0x10002D94C, symSize: 0x24 }
  - { offsetInCU: 0x43267, offset: 0x76892, size: 0x8, addend: 0x0, symName: __ZNKSt3__122__compressed_pair_elemIPN7doctest6StringELi0ELb0EE5__getB8ue170006Ev, symObjAddr: 0x16404, symBinAddr: 0x10002D970, symSize: 0x14 }
  - { offsetInCU: 0x4328C, offset: 0x768B7, size: 0x8, addend: 0x0, symName: __ZNKSt3__16vectorINS0_IN7doctest6StringENS_9allocatorIS2_EEEENS3_IS5_EEE4sizeB8ue170006Ev, symObjAddr: 0x16418, symBinAddr: 0x10002D984, symSize: 0x28 }
  - { offsetInCU: 0x432B1, offset: 0x768DC, size: 0x8, addend: 0x0, symName: __ZNSt3__19allocatorINS_6vectorIN7doctest6StringENS0_IS3_EEEEE10deallocateB8ue170006EPS5_m, symObjAddr: 0x16440, symBinAddr: 0x10002D9AC, symSize: 0x44 }
  - { offsetInCU: 0x432F2, offset: 0x7691D, size: 0x8, addend: 0x0, symName: __ZNSt3__16vectorIPN7doctest9IReporterENS_9allocatorIS3_EEEC2B8ue170006Ev, symObjAddr: 0x16484, symBinAddr: 0x10002D9F0, symSize: 0x4C }
  - { offsetInCU: 0x4331B, offset: 0x76946, size: 0x8, addend: 0x0, symName: __ZNSt3__117__compressed_pairIPPN7doctest9IReporterENS_9allocatorIS3_EEEC1B8ue170006IDnNS_18__default_init_tagEEEOT_OT0_, symObjAddr: 0x164D0, symBinAddr: 0x10002DA3C, symSize: 0x3C }
  - { offsetInCU: 0x43372, offset: 0x7699D, size: 0x8, addend: 0x0, symName: __ZNSt3__117__compressed_pairIPPN7doctest9IReporterENS_9allocatorIS3_EEEC2B8ue170006IDnNS_18__default_init_tagEEEOT_OT0_, symObjAddr: 0x1650C, symBinAddr: 0x10002DA78, symSize: 0x40 }
  - { offsetInCU: 0x433C9, offset: 0x769F4, size: 0x8, addend: 0x0, symName: __ZNSt3__122__compressed_pair_elemIPPN7doctest9IReporterELi0ELb0EEC2B8ue170006IDnvEEOT_, symObjAddr: 0x1654C, symBinAddr: 0x10002DAB8, symSize: 0x1C }
  - { offsetInCU: 0x4340A, offset: 0x76A35, size: 0x8, addend: 0x0, symName: __ZNSt3__122__compressed_pair_elemINS_9allocatorIPN7doctest9IReporterEEELi1ELb1EEC2B8ue170006ENS_18__default_init_tagE, symObjAddr: 0x16568, symBinAddr: 0x10002DAD4, symSize: 0x2C }
  - { offsetInCU: 0x4343D, offset: 0x76A68, size: 0x8, addend: 0x0, symName: __ZNSt3__19allocatorIPN7doctest9IReporterEEC2B8ue170006Ev, symObjAddr: 0x16594, symBinAddr: 0x10002DB00, symSize: 0x2C }
  - { offsetInCU: 0x43466, offset: 0x76A91, size: 0x8, addend: 0x0, symName: __ZNSt3__116__non_trivial_ifILb1ENS_9allocatorIPN7doctest9IReporterEEEEC2B8ue170006Ev, symObjAddr: 0x165C0, symBinAddr: 0x10002DB2C, symSize: 0x14 }
  - { offsetInCU: 0x4348F, offset: 0x76ABA, size: 0x8, addend: 0x0, symName: __ZN7doctest6detail5TimerC2Ev, symObjAddr: 0x165D4, symBinAddr: 0x10002DB40, symSize: 0x18 }
  - { offsetInCU: 0x434BB, offset: 0x76AE6, size: 0x8, addend: 0x0, symName: __ZNSt3__16vectorIN7doctest6StringENS_9allocatorIS2_EEEC2B8ue170006Ev, symObjAddr: 0x165EC, symBinAddr: 0x10002DB58, symSize: 0x4C }
  - { offsetInCU: 0x434E4, offset: 0x76B0F, size: 0x8, addend: 0x0, symName: __ZNSt3__117__compressed_pairIPN7doctest6StringENS_9allocatorIS2_EEEC1B8ue170006IDnNS_18__default_init_tagEEEOT_OT0_, symObjAddr: 0x16638, symBinAddr: 0x10002DBA4, symSize: 0x3C }
  - { offsetInCU: 0x4353B, offset: 0x76B66, size: 0x8, addend: 0x0, symName: __ZNSt3__117__compressed_pairIPN7doctest6StringENS_9allocatorIS2_EEEC2B8ue170006IDnNS_18__default_init_tagEEEOT_OT0_, symObjAddr: 0x16674, symBinAddr: 0x10002DBE0, symSize: 0x40 }
  - { offsetInCU: 0x43592, offset: 0x76BBD, size: 0x8, addend: 0x0, symName: __ZNSt3__122__compressed_pair_elemIPN7doctest6StringELi0ELb0EEC2B8ue170006IDnvEEOT_, symObjAddr: 0x166B4, symBinAddr: 0x10002DC20, symSize: 0x1C }
  - { offsetInCU: 0x435D3, offset: 0x76BFE, size: 0x8, addend: 0x0, symName: __ZNSt3__122__compressed_pair_elemINS_9allocatorIN7doctest6StringEEELi1ELb1EEC2B8ue170006ENS_18__default_init_tagE, symObjAddr: 0x166D0, symBinAddr: 0x10002DC3C, symSize: 0x2C }
  - { offsetInCU: 0x43606, offset: 0x76C31, size: 0x8, addend: 0x0, symName: __ZNSt3__19allocatorIN7doctest6StringEEC2B8ue170006Ev, symObjAddr: 0x166FC, symBinAddr: 0x10002DC68, symSize: 0x2C }
  - { offsetInCU: 0x4362F, offset: 0x76C5A, size: 0x8, addend: 0x0, symName: __ZNSt3__116__non_trivial_ifILb1ENS_9allocatorIN7doctest6StringEEEEC2B8ue170006Ev, symObjAddr: 0x16728, symBinAddr: 0x10002DC94, symSize: 0x14 }
  - { offsetInCU: 0x43658, offset: 0x76C83, size: 0x8, addend: 0x0, symName: __ZNSt3__16vectorIN7doctest16SubcaseSignatureENS_9allocatorIS2_EEEC2B8ue170006Ev, symObjAddr: 0x1673C, symBinAddr: 0x10002DCA8, symSize: 0x4C }
  - { offsetInCU: 0x43681, offset: 0x76CAC, size: 0x8, addend: 0x0, symName: __ZNSt3__117__compressed_pairIPN7doctest16SubcaseSignatureENS_9allocatorIS2_EEEC1B8ue170006IDnNS_18__default_init_tagEEEOT_OT0_, symObjAddr: 0x16788, symBinAddr: 0x10002DCF4, symSize: 0x3C }
  - { offsetInCU: 0x436D8, offset: 0x76D03, size: 0x8, addend: 0x0, symName: __ZNSt3__117__compressed_pairIPN7doctest16SubcaseSignatureENS_9allocatorIS2_EEEC2B8ue170006IDnNS_18__default_init_tagEEEOT_OT0_, symObjAddr: 0x167C4, symBinAddr: 0x10002DD30, symSize: 0x40 }
  - { offsetInCU: 0x4372F, offset: 0x76D5A, size: 0x8, addend: 0x0, symName: __ZNSt3__122__compressed_pair_elemIPN7doctest16SubcaseSignatureELi0ELb0EEC2B8ue170006IDnvEEOT_, symObjAddr: 0x16804, symBinAddr: 0x10002DD70, symSize: 0x1C }
  - { offsetInCU: 0x43770, offset: 0x76D9B, size: 0x8, addend: 0x0, symName: __ZNSt3__122__compressed_pair_elemINS_9allocatorIN7doctest16SubcaseSignatureEEELi1ELb1EEC2B8ue170006ENS_18__default_init_tagE, symObjAddr: 0x16820, symBinAddr: 0x10002DD8C, symSize: 0x2C }
  - { offsetInCU: 0x437A3, offset: 0x76DCE, size: 0x8, addend: 0x0, symName: __ZNSt3__19allocatorIN7doctest16SubcaseSignatureEEC2B8ue170006Ev, symObjAddr: 0x1684C, symBinAddr: 0x10002DDB8, symSize: 0x2C }
  - { offsetInCU: 0x437CC, offset: 0x76DF7, size: 0x8, addend: 0x0, symName: __ZNSt3__116__non_trivial_ifILb1ENS_9allocatorIN7doctest16SubcaseSignatureEEEEC2B8ue170006Ev, symObjAddr: 0x16878, symBinAddr: 0x10002DDE4, symSize: 0x14 }
  - { offsetInCU: 0x437F5, offset: 0x76E20, size: 0x8, addend: 0x0, symName: __ZNSt3__113unordered_setIyNS_4hashIyEENS_8equal_toIyEENS_9allocatorIyEEEC2B8ue170006Ev, symObjAddr: 0x1688C, symBinAddr: 0x10002DDF8, symSize: 0x2C }
  - { offsetInCU: 0x4381E, offset: 0x76E49, size: 0x8, addend: 0x0, symName: __ZNSt3__112__hash_tableIyNS_4hashIyEENS_8equal_toIyEENS_9allocatorIyEEEC1Ev, symObjAddr: 0x168B8, symBinAddr: 0x10002DE24, symSize: 0x2C }
  - { offsetInCU: 0x43849, offset: 0x76E74, size: 0x8, addend: 0x0, symName: __ZNSt3__112__hash_tableIyNS_4hashIyEENS_8equal_toIyEENS_9allocatorIyEEEC2Ev, symObjAddr: 0x168E4, symBinAddr: 0x10002DE50, symSize: 0x7C }
  - { offsetInCU: 0x43874, offset: 0x76E9F, size: 0x8, addend: 0x0, symName: __ZNSt3__110unique_ptrIA_PNS_16__hash_node_baseIPNS_11__hash_nodeIyPvEEEENS_25__bucket_list_deallocatorINS_9allocatorIS7_EEEEEC1B8ue170006ILb1EvEEv, symObjAddr: 0x16960, symBinAddr: 0x10002DECC, symSize: 0x2C }
  - { offsetInCU: 0x438A8, offset: 0x76ED3, size: 0x8, addend: 0x0, symName: __ZNSt3__117__compressed_pairINS_16__hash_node_baseIPNS_11__hash_nodeIyPvEEEENS_9allocatorIS4_EEEC1B8ue170006ILb1EvEEv, symObjAddr: 0x1698C, symBinAddr: 0x10002DEF8, symSize: 0x2C }
  - { offsetInCU: 0x438E1, offset: 0x76F0C, size: 0x8, addend: 0x0, symName: __ZNSt3__117__compressed_pairImNS_4hashIyEEEC1B8ue170006IiNS_18__default_init_tagEEEOT_OT0_, symObjAddr: 0x169B8, symBinAddr: 0x10002DF24, symSize: 0x3C }
  - { offsetInCU: 0x4393D, offset: 0x76F68, size: 0x8, addend: 0x0, symName: __ZNSt3__117__compressed_pairIfNS_8equal_toIyEEEC1B8ue170006IfNS_18__default_init_tagEEEOT_OT0_, symObjAddr: 0x169F4, symBinAddr: 0x10002DF60, symSize: 0x3C }
  - { offsetInCU: 0x43994, offset: 0x76FBF, size: 0x8, addend: 0x0, symName: __ZNSt3__110unique_ptrIA_PNS_16__hash_node_baseIPNS_11__hash_nodeIyPvEEEENS_25__bucket_list_deallocatorINS_9allocatorIS7_EEEEEC2B8ue170006ILb1EvEEv, symObjAddr: 0x16A30, symBinAddr: 0x10002DF9C, symSize: 0x3C }
  - { offsetInCU: 0x439CD, offset: 0x76FF8, size: 0x8, addend: 0x0, symName: __ZNSt3__117__compressed_pairIPPNS_16__hash_node_baseIPNS_11__hash_nodeIyPvEEEENS_25__bucket_list_deallocatorINS_9allocatorIS7_EEEEEC1B8ue170006INS_16__value_init_tagESF_EEOT_OT0_, symObjAddr: 0x16A6C, symBinAddr: 0x10002DFD8, symSize: 0x3C }
  - { offsetInCU: 0x43A24, offset: 0x7704F, size: 0x8, addend: 0x0, symName: __ZNSt3__117__compressed_pairIPPNS_16__hash_node_baseIPNS_11__hash_nodeIyPvEEEENS_25__bucket_list_deallocatorINS_9allocatorIS7_EEEEEC2B8ue170006INS_16__value_init_tagESF_EEOT_OT0_, symObjAddr: 0x16AA8, symBinAddr: 0x10002E014, symSize: 0x40 }
  - { offsetInCU: 0x43A7B, offset: 0x770A6, size: 0x8, addend: 0x0, symName: __ZNSt3__122__compressed_pair_elemIPPNS_16__hash_node_baseIPNS_11__hash_nodeIyPvEEEELi0ELb0EEC2B8ue170006ENS_16__value_init_tagE, symObjAddr: 0x16AE8, symBinAddr: 0x10002E054, symSize: 0x18 }
  - { offsetInCU: 0x43AAE, offset: 0x770D9, size: 0x8, addend: 0x0, symName: __ZNSt3__122__compressed_pair_elemINS_25__bucket_list_deallocatorINS_9allocatorIPNS_16__hash_node_baseIPNS_11__hash_nodeIyPvEEEEEEEELi1ELb0EEC2B8ue170006ENS_16__value_init_tagE, symObjAddr: 0x16B00, symBinAddr: 0x10002E06C, symSize: 0x2C }
  - { offsetInCU: 0x43AE1, offset: 0x7710C, size: 0x8, addend: 0x0, symName: __ZNSt3__125__bucket_list_deallocatorINS_9allocatorIPNS_16__hash_node_baseIPNS_11__hash_nodeIyPvEEEEEEEC1B8ue170006Ev, symObjAddr: 0x16B2C, symBinAddr: 0x10002E098, symSize: 0x2C }
  - { offsetInCU: 0x43B0A, offset: 0x77135, size: 0x8, addend: 0x0, symName: __ZNSt3__125__bucket_list_deallocatorINS_9allocatorIPNS_16__hash_node_baseIPNS_11__hash_nodeIyPvEEEEEEEC2B8ue170006Ev, symObjAddr: 0x16B58, symBinAddr: 0x10002E0C4, symSize: 0x40 }
  - { offsetInCU: 0x43B33, offset: 0x7715E, size: 0x8, addend: 0x0, symName: __ZNSt3__117__compressed_pairImNS_9allocatorIPNS_16__hash_node_baseIPNS_11__hash_nodeIyPvEEEEEEEC1B8ue170006IiNS_18__default_init_tagEEEOT_OT0_, symObjAddr: 0x16B98, symBinAddr: 0x10002E104, symSize: 0x3C }
  - { offsetInCU: 0x43B8A, offset: 0x771B5, size: 0x8, addend: 0x0, symName: __ZNSt3__117__compressed_pairImNS_9allocatorIPNS_16__hash_node_baseIPNS_11__hash_nodeIyPvEEEEEEEC2B8ue170006IiNS_18__default_init_tagEEEOT_OT0_, symObjAddr: 0x16BD4, symBinAddr: 0x10002E140, symSize: 0x40 }
  - { offsetInCU: 0x43BE1, offset: 0x7720C, size: 0x8, addend: 0x0, symName: __ZNSt3__122__compressed_pair_elemImLi0ELb0EEC2B8ue170006IivEEOT_, symObjAddr: 0x16C14, symBinAddr: 0x10002E180, symSize: 0x24 }
  - { offsetInCU: 0x43C22, offset: 0x7724D, size: 0x8, addend: 0x0, symName: __ZNSt3__122__compressed_pair_elemINS_9allocatorIPNS_16__hash_node_baseIPNS_11__hash_nodeIyPvEEEEEELi1ELb1EEC2B8ue170006ENS_18__default_init_tagE, symObjAddr: 0x16C38, symBinAddr: 0x10002E1A4, symSize: 0x2C }
  - { offsetInCU: 0x43C55, offset: 0x77280, size: 0x8, addend: 0x0, symName: __ZNSt3__19allocatorIPNS_16__hash_node_baseIPNS_11__hash_nodeIyPvEEEEEC2B8ue170006Ev, symObjAddr: 0x16C64, symBinAddr: 0x10002E1D0, symSize: 0x2C }
  - { offsetInCU: 0x43C7E, offset: 0x772A9, size: 0x8, addend: 0x0, symName: __ZNSt3__116__non_trivial_ifILb1ENS_9allocatorIPNS_16__hash_node_baseIPNS_11__hash_nodeIyPvEEEEEEEC2B8ue170006Ev, symObjAddr: 0x16C90, symBinAddr: 0x10002E1FC, symSize: 0x14 }
  - { offsetInCU: 0x43CA7, offset: 0x772D2, size: 0x8, addend: 0x0, symName: __ZNSt3__117__compressed_pairINS_16__hash_node_baseIPNS_11__hash_nodeIyPvEEEENS_9allocatorIS4_EEEC2B8ue170006ILb1EvEEv, symObjAddr: 0x16CA4, symBinAddr: 0x10002E210, symSize: 0x34 }
  - { offsetInCU: 0x43CDB, offset: 0x77306, size: 0x8, addend: 0x0, symName: __ZNSt3__122__compressed_pair_elemINS_16__hash_node_baseIPNS_11__hash_nodeIyPvEEEELi0ELb0EEC2B8ue170006ENS_16__value_init_tagE, symObjAddr: 0x16CD8, symBinAddr: 0x10002E244, symSize: 0x2C }
  - { offsetInCU: 0x43D0E, offset: 0x77339, size: 0x8, addend: 0x0, symName: __ZNSt3__122__compressed_pair_elemINS_9allocatorINS_11__hash_nodeIyPvEEEELi1ELb1EEC2B8ue170006ENS_16__value_init_tagE, symObjAddr: 0x16D04, symBinAddr: 0x10002E270, symSize: 0x2C }
  - { offsetInCU: 0x43D41, offset: 0x7736C, size: 0x8, addend: 0x0, symName: __ZNSt3__116__hash_node_baseIPNS_11__hash_nodeIyPvEEEC1B8ue170006Ev, symObjAddr: 0x16D30, symBinAddr: 0x10002E29C, symSize: 0x2C }
  - { offsetInCU: 0x43D6A, offset: 0x77395, size: 0x8, addend: 0x0, symName: __ZNSt3__116__hash_node_baseIPNS_11__hash_nodeIyPvEEEC2B8ue170006Ev, symObjAddr: 0x16D5C, symBinAddr: 0x10002E2C8, symSize: 0x18 }
  - { offsetInCU: 0x43D93, offset: 0x773BE, size: 0x8, addend: 0x0, symName: __ZNSt3__19allocatorINS_11__hash_nodeIyPvEEEC2B8ue170006Ev, symObjAddr: 0x16D74, symBinAddr: 0x10002E2E0, symSize: 0x2C }
  - { offsetInCU: 0x43DBC, offset: 0x773E7, size: 0x8, addend: 0x0, symName: __ZNSt3__116__non_trivial_ifILb1ENS_9allocatorINS_11__hash_nodeIyPvEEEEEC2B8ue170006Ev, symObjAddr: 0x16DA0, symBinAddr: 0x10002E30C, symSize: 0x14 }
  - { offsetInCU: 0x43DE5, offset: 0x77410, size: 0x8, addend: 0x0, symName: __ZNSt3__117__compressed_pairImNS_4hashIyEEEC2B8ue170006IiNS_18__default_init_tagEEEOT_OT0_, symObjAddr: 0x16DB4, symBinAddr: 0x10002E320, symSize: 0x40 }
  - { offsetInCU: 0x43E3C, offset: 0x77467, size: 0x8, addend: 0x0, symName: __ZNSt3__122__compressed_pair_elemINS_4hashIyEELi1ELb1EEC2B8ue170006ENS_18__default_init_tagE, symObjAddr: 0x16DF4, symBinAddr: 0x10002E360, symSize: 0x14 }
  - { offsetInCU: 0x43E6F, offset: 0x7749A, size: 0x8, addend: 0x0, symName: __ZNSt3__117__compressed_pairIfNS_8equal_toIyEEEC2B8ue170006IfNS_18__default_init_tagEEEOT_OT0_, symObjAddr: 0x16E08, symBinAddr: 0x10002E374, symSize: 0x40 }
  - { offsetInCU: 0x43EC6, offset: 0x774F1, size: 0x8, addend: 0x0, symName: __ZNSt3__122__compressed_pair_elemIfLi0ELb0EEC2B8ue170006IfvEEOT_, symObjAddr: 0x16E48, symBinAddr: 0x10002E3B4, symSize: 0x24 }
  - { offsetInCU: 0x43F07, offset: 0x77532, size: 0x8, addend: 0x0, symName: __ZNSt3__122__compressed_pair_elemINS_8equal_toIyEELi1ELb1EEC2B8ue170006ENS_18__default_init_tagE, symObjAddr: 0x16E6C, symBinAddr: 0x10002E3D8, symSize: 0x14 }
  - { offsetInCU: 0x43F3A, offset: 0x77565, size: 0x8, addend: 0x0, symName: __ZN7doctest6detail12ContextStateD2Ev, symObjAddr: 0x16E80, symBinAddr: 0x10002E3EC, symSize: 0x8C }
  - { offsetInCU: 0x43F66, offset: 0x77591, size: 0x8, addend: 0x0, symName: __ZNSt3__113unordered_setIyNS_4hashIyEENS_8equal_toIyEENS_9allocatorIyEEED1B8ue170006Ev, symObjAddr: 0x16F0C, symBinAddr: 0x10002E478, symSize: 0x2C }
  - { offsetInCU: 0x43F8F, offset: 0x775BA, size: 0x8, addend: 0x0, symName: __ZNSt3__16vectorIN7doctest16SubcaseSignatureENS_9allocatorIS2_EEED1B8ue170006Ev, symObjAddr: 0x16F38, symBinAddr: 0x10002E4A4, symSize: 0x2C }
  - { offsetInCU: 0x43FB8, offset: 0x775E3, size: 0x8, addend: 0x0, symName: __ZNSt3__16vectorIPN7doctest9IReporterENS_9allocatorIS3_EEED1B8ue170006Ev, symObjAddr: 0x16F64, symBinAddr: 0x10002E4D0, symSize: 0x2C }
  - { offsetInCU: 0x43FE1, offset: 0x7760C, size: 0x8, addend: 0x0, symName: __ZNSt3__16vectorINS0_IN7doctest6StringENS_9allocatorIS2_EEEENS3_IS5_EEED1B8ue170006Ev, symObjAddr: 0x16F90, symBinAddr: 0x10002E4FC, symSize: 0x2C }
  - { offsetInCU: 0x4400A, offset: 0x77635, size: 0x8, addend: 0x0, symName: __ZNSt3__113unordered_setIyNS_4hashIyEENS_8equal_toIyEENS_9allocatorIyEEED2B8ue170006Ev, symObjAddr: 0x16FBC, symBinAddr: 0x10002E528, symSize: 0x2C }
  - { offsetInCU: 0x44033, offset: 0x7765E, size: 0x8, addend: 0x0, symName: __ZNSt3__112__hash_tableIyNS_4hashIyEENS_8equal_toIyEENS_9allocatorIyEEED1Ev, symObjAddr: 0x16FE8, symBinAddr: 0x10002E554, symSize: 0x2C }
  - { offsetInCU: 0x4405E, offset: 0x77689, size: 0x8, addend: 0x0, symName: __ZNSt3__112__hash_tableIyNS_4hashIyEENS_8equal_toIyEENS_9allocatorIyEEED2Ev, symObjAddr: 0x17014, symBinAddr: 0x10002E580, symSize: 0x48 }
  - { offsetInCU: 0x44089, offset: 0x776B4, size: 0x8, addend: 0x0, symName: __ZNSt3__112__hash_tableIyNS_4hashIyEENS_8equal_toIyEENS_9allocatorIyEEE17__deallocate_nodeEPNS_16__hash_node_baseIPNS_11__hash_nodeIyPvEEEE, symObjAddr: 0x1705C, symBinAddr: 0x10002E5C8, symSize: 0xA8 }
  - { offsetInCU: 0x440F1, offset: 0x7771C, size: 0x8, addend: 0x0, symName: __ZNSt3__117__compressed_pairINS_16__hash_node_baseIPNS_11__hash_nodeIyPvEEEENS_9allocatorIS4_EEE5firstB8ue170006Ev, symObjAddr: 0x17104, symBinAddr: 0x10002E670, symSize: 0x24 }
  - { offsetInCU: 0x44116, offset: 0x77741, size: 0x8, addend: 0x0, symName: __ZNSt3__110unique_ptrIA_PNS_16__hash_node_baseIPNS_11__hash_nodeIyPvEEEENS_25__bucket_list_deallocatorINS_9allocatorIS7_EEEEED1B8ue170006Ev, symObjAddr: 0x17128, symBinAddr: 0x10002E694, symSize: 0x2C }
  - { offsetInCU: 0x4413F, offset: 0x7776A, size: 0x8, addend: 0x0, symName: __ZNSt3__112__hash_tableIyNS_4hashIyEENS_8equal_toIyEENS_9allocatorIyEEE12__node_allocB8ue170006Ev, symObjAddr: 0x17154, symBinAddr: 0x10002E6C0, symSize: 0x28 }
  - { offsetInCU: 0x44164, offset: 0x7778F, size: 0x8, addend: 0x0, symName: __ZNSt3__116__hash_node_baseIPNS_11__hash_nodeIyPvEEE8__upcastB8ue170006Ev, symObjAddr: 0x1717C, symBinAddr: 0x10002E6E8, symSize: 0x24 }
  - { offsetInCU: 0x44189, offset: 0x777B4, size: 0x8, addend: 0x0, symName: __ZNSt3__116allocator_traitsINS_9allocatorINS_11__hash_nodeIyPvEEEEE7destroyB8ue170006IyvvEEvRS5_PT_, symObjAddr: 0x171A0, symBinAddr: 0x10002E70C, symSize: 0x14 }
  - { offsetInCU: 0x441C4, offset: 0x777EF, size: 0x8, addend: 0x0, symName: __ZNSt3__122__hash_key_value_typesIyE9__get_ptrB8ue170006ERy, symObjAddr: 0x171B4, symBinAddr: 0x10002E720, symSize: 0x14 }
  - { offsetInCU: 0x441E7, offset: 0x77812, size: 0x8, addend: 0x0, symName: __ZNSt3__116allocator_traitsINS_9allocatorINS_11__hash_nodeIyPvEEEEE10deallocateB8ue170006ERS5_PS4_m, symObjAddr: 0x171C8, symBinAddr: 0x10002E734, symSize: 0x34 }
  - { offsetInCU: 0x44229, offset: 0x77854, size: 0x8, addend: 0x0, symName: __ZNSt3__117__compressed_pairINS_16__hash_node_baseIPNS_11__hash_nodeIyPvEEEENS_9allocatorIS4_EEE6secondB8ue170006Ev, symObjAddr: 0x171FC, symBinAddr: 0x10002E768, symSize: 0x24 }
  - { offsetInCU: 0x4424E, offset: 0x77879, size: 0x8, addend: 0x0, symName: __ZNSt3__122__compressed_pair_elemINS_9allocatorINS_11__hash_nodeIyPvEEEELi1ELb1EE5__getB8ue170006Ev, symObjAddr: 0x17220, symBinAddr: 0x10002E78C, symSize: 0x14 }
  - { offsetInCU: 0x44273, offset: 0x7789E, size: 0x8, addend: 0x0, symName: __ZNSt3__114pointer_traitsIPNS_16__hash_node_baseIPNS_11__hash_nodeIyPvEEEEE10pointer_toB8ue170006ERS6_, symObjAddr: 0x17234, symBinAddr: 0x10002E7A0, symSize: 0x14 }
  - { offsetInCU: 0x44296, offset: 0x778C1, size: 0x8, addend: 0x0, symName: __ZNSt3__19allocatorINS_11__hash_nodeIyPvEEE10deallocateB8ue170006EPS3_m, symObjAddr: 0x17248, symBinAddr: 0x10002E7B4, symSize: 0x44 }
  - { offsetInCU: 0x442D7, offset: 0x77902, size: 0x8, addend: 0x0, symName: __ZNSt3__122__compressed_pair_elemINS_16__hash_node_baseIPNS_11__hash_nodeIyPvEEEELi0ELb0EE5__getB8ue170006Ev, symObjAddr: 0x1728C, symBinAddr: 0x10002E7F8, symSize: 0x14 }
  - { offsetInCU: 0x442FC, offset: 0x77927, size: 0x8, addend: 0x0, symName: __ZNSt3__110unique_ptrIA_PNS_16__hash_node_baseIPNS_11__hash_nodeIyPvEEEENS_25__bucket_list_deallocatorINS_9allocatorIS7_EEEEED2B8ue170006Ev, symObjAddr: 0x172A0, symBinAddr: 0x10002E80C, symSize: 0x30 }
  - { offsetInCU: 0x44325, offset: 0x77950, size: 0x8, addend: 0x0, symName: __ZNSt3__110unique_ptrIA_PNS_16__hash_node_baseIPNS_11__hash_nodeIyPvEEEENS_25__bucket_list_deallocatorINS_9allocatorIS7_EEEEE5resetB8ue170006EDn, symObjAddr: 0x172D0, symBinAddr: 0x10002E83C, symSize: 0x6C }
  - { offsetInCU: 0x44365, offset: 0x77990, size: 0x8, addend: 0x0, symName: __ZNSt3__117__compressed_pairIPPNS_16__hash_node_baseIPNS_11__hash_nodeIyPvEEEENS_25__bucket_list_deallocatorINS_9allocatorIS7_EEEEE5firstB8ue170006Ev, symObjAddr: 0x1733C, symBinAddr: 0x10002E8A8, symSize: 0x24 }
  - { offsetInCU: 0x4438A, offset: 0x779B5, size: 0x8, addend: 0x0, symName: __ZNSt3__117__compressed_pairIPPNS_16__hash_node_baseIPNS_11__hash_nodeIyPvEEEENS_25__bucket_list_deallocatorINS_9allocatorIS7_EEEEE6secondB8ue170006Ev, symObjAddr: 0x17360, symBinAddr: 0x10002E8CC, symSize: 0x28 }
  - { offsetInCU: 0x443AF, offset: 0x779DA, size: 0x8, addend: 0x0, symName: __ZNSt3__125__bucket_list_deallocatorINS_9allocatorIPNS_16__hash_node_baseIPNS_11__hash_nodeIyPvEEEEEEEclB8ue170006EPS8_, symObjAddr: 0x17388, symBinAddr: 0x10002E8F4, symSize: 0x58 }
  - { offsetInCU: 0x443E3, offset: 0x77A0E, size: 0x8, addend: 0x0, symName: __ZNSt3__122__compressed_pair_elemIPPNS_16__hash_node_baseIPNS_11__hash_nodeIyPvEEEELi0ELb0EE5__getB8ue170006Ev, symObjAddr: 0x173E0, symBinAddr: 0x10002E94C, symSize: 0x14 }
  - { offsetInCU: 0x44408, offset: 0x77A33, size: 0x8, addend: 0x0, symName: __ZNSt3__122__compressed_pair_elemINS_25__bucket_list_deallocatorINS_9allocatorIPNS_16__hash_node_baseIPNS_11__hash_nodeIyPvEEEEEEEELi1ELb0EE5__getB8ue170006Ev, symObjAddr: 0x173F4, symBinAddr: 0x10002E960, symSize: 0x14 }
  - { offsetInCU: 0x4442D, offset: 0x77A58, size: 0x8, addend: 0x0, symName: __ZNSt3__116allocator_traitsINS_9allocatorIPNS_16__hash_node_baseIPNS_11__hash_nodeIyPvEEEEEEE10deallocateB8ue170006ERS9_PS8_m, symObjAddr: 0x17408, symBinAddr: 0x10002E974, symSize: 0x34 }
  - { offsetInCU: 0x4446F, offset: 0x77A9A, size: 0x8, addend: 0x0, symName: __ZNSt3__125__bucket_list_deallocatorINS_9allocatorIPNS_16__hash_node_baseIPNS_11__hash_nodeIyPvEEEEEEE7__allocB8ue170006Ev, symObjAddr: 0x1743C, symBinAddr: 0x10002E9A8, symSize: 0x24 }
  - { offsetInCU: 0x44494, offset: 0x77ABF, size: 0x8, addend: 0x0, symName: __ZNSt3__125__bucket_list_deallocatorINS_9allocatorIPNS_16__hash_node_baseIPNS_11__hash_nodeIyPvEEEEEEE4sizeB8ue170006Ev, symObjAddr: 0x17460, symBinAddr: 0x10002E9CC, symSize: 0x24 }
  - { offsetInCU: 0x444B9, offset: 0x77AE4, size: 0x8, addend: 0x0, symName: __ZNSt3__19allocatorIPNS_16__hash_node_baseIPNS_11__hash_nodeIyPvEEEEE10deallocateB8ue170006EPS7_m, symObjAddr: 0x17484, symBinAddr: 0x10002E9F0, symSize: 0x40 }
  - { offsetInCU: 0x444FA, offset: 0x77B25, size: 0x8, addend: 0x0, symName: __ZNSt3__117__compressed_pairImNS_9allocatorIPNS_16__hash_node_baseIPNS_11__hash_nodeIyPvEEEEEEE6secondB8ue170006Ev, symObjAddr: 0x174C4, symBinAddr: 0x10002EA30, symSize: 0x24 }
  - { offsetInCU: 0x4451F, offset: 0x77B4A, size: 0x8, addend: 0x0, symName: __ZNSt3__122__compressed_pair_elemINS_9allocatorIPNS_16__hash_node_baseIPNS_11__hash_nodeIyPvEEEEEELi1ELb1EE5__getB8ue170006Ev, symObjAddr: 0x174E8, symBinAddr: 0x10002EA54, symSize: 0x14 }
  - { offsetInCU: 0x44544, offset: 0x77B6F, size: 0x8, addend: 0x0, symName: __ZNSt3__117__compressed_pairImNS_9allocatorIPNS_16__hash_node_baseIPNS_11__hash_nodeIyPvEEEEEEE5firstB8ue170006Ev, symObjAddr: 0x174FC, symBinAddr: 0x10002EA68, symSize: 0x24 }
  - { offsetInCU: 0x44569, offset: 0x77B94, size: 0x8, addend: 0x0, symName: __ZNSt3__122__compressed_pair_elemImLi0ELb0EE5__getB8ue170006Ev, symObjAddr: 0x17520, symBinAddr: 0x10002EA8C, symSize: 0x14 }
  - { offsetInCU: 0x4458E, offset: 0x77BB9, size: 0x8, addend: 0x0, symName: __ZNSt3__16vectorIN7doctest16SubcaseSignatureENS_9allocatorIS2_EEED2B8ue170006Ev, symObjAddr: 0x17534, symBinAddr: 0x10002EAA0, symSize: 0x44 }
  - { offsetInCU: 0x445B7, offset: 0x77BE2, size: 0x8, addend: 0x0, symName: __ZNSt3__16vectorIN7doctest16SubcaseSignatureENS_9allocatorIS2_EEE16__destroy_vectorC1B8ue170006ERS5_, symObjAddr: 0x17578, symBinAddr: 0x10002EAE4, symSize: 0x34 }
  - { offsetInCU: 0x445EF, offset: 0x77C1A, size: 0x8, addend: 0x0, symName: __ZNSt3__16vectorIN7doctest16SubcaseSignatureENS_9allocatorIS2_EEE16__destroy_vectorclB8ue170006Ev, symObjAddr: 0x175AC, symBinAddr: 0x10002EB18, symSize: 0x90 }
  - { offsetInCU: 0x44614, offset: 0x77C3F, size: 0x8, addend: 0x0, symName: __ZNSt3__16vectorIN7doctest16SubcaseSignatureENS_9allocatorIS2_EEE16__destroy_vectorC2B8ue170006ERS5_, symObjAddr: 0x1763C, symBinAddr: 0x10002EBA8, symSize: 0x20 }
  - { offsetInCU: 0x4464C, offset: 0x77C77, size: 0x8, addend: 0x0, symName: __ZNSt3__16vectorIN7doctest16SubcaseSignatureENS_9allocatorIS2_EEE7__clearB8ue170006Ev, symObjAddr: 0x1765C, symBinAddr: 0x10002EBC8, symSize: 0x28 }
  - { offsetInCU: 0x44671, offset: 0x77C9C, size: 0x8, addend: 0x0, symName: __ZNKSt3__16vectorIN7doctest16SubcaseSignatureENS_9allocatorIS2_EEE17__annotate_deleteB8ue170006Ev, symObjAddr: 0x17684, symBinAddr: 0x10002EBF0, symSize: 0xD4 }
  - { offsetInCU: 0x44696, offset: 0x77CC1, size: 0x8, addend: 0x0, symName: __ZNSt3__116allocator_traitsINS_9allocatorIN7doctest16SubcaseSignatureEEEE10deallocateB8ue170006ERS4_PS3_m, symObjAddr: 0x17758, symBinAddr: 0x10002ECC4, symSize: 0x34 }
  - { offsetInCU: 0x446D8, offset: 0x77D03, size: 0x8, addend: 0x0, symName: __ZNSt3__16vectorIN7doctest16SubcaseSignatureENS_9allocatorIS2_EEE7__allocB8ue170006Ev, symObjAddr: 0x1778C, symBinAddr: 0x10002ECF8, symSize: 0x28 }
  - { offsetInCU: 0x446FD, offset: 0x77D28, size: 0x8, addend: 0x0, symName: __ZNKSt3__16vectorIN7doctest16SubcaseSignatureENS_9allocatorIS2_EEE8capacityB8ue170006Ev, symObjAddr: 0x177B4, symBinAddr: 0x10002ED20, symSize: 0x40 }
  - { offsetInCU: 0x44722, offset: 0x77D4D, size: 0x8, addend: 0x0, symName: __ZNSt3__16vectorIN7doctest16SubcaseSignatureENS_9allocatorIS2_EEE22__base_destruct_at_endB8ue170006EPS2_, symObjAddr: 0x177F4, symBinAddr: 0x10002ED60, symSize: 0x8C }
  - { offsetInCU: 0x44765, offset: 0x77D90, size: 0x8, addend: 0x0, symName: __ZNSt3__116allocator_traitsINS_9allocatorIN7doctest16SubcaseSignatureEEEE7destroyB8ue170006IS3_vEEvRS4_PT_, symObjAddr: 0x17880, symBinAddr: 0x10002EDEC, symSize: 0x2C }
  - { offsetInCU: 0x447A2, offset: 0x77DCD, size: 0x8, addend: 0x0, symName: __ZNSt3__19allocatorIN7doctest16SubcaseSignatureEE7destroyB8ue170006EPS2_, symObjAddr: 0x178C0, symBinAddr: 0x10002EE2C, symSize: 0x28 }
  - { offsetInCU: 0x447D5, offset: 0x77E00, size: 0x8, addend: 0x0, symName: __ZNKSt3__16vectorIN7doctest16SubcaseSignatureENS_9allocatorIS2_EEE31__annotate_contiguous_containerB8ue170006EPKvS7_S7_S7_, symObjAddr: 0x178E8, symBinAddr: 0x10002EE54, symSize: 0x20 }
  - { offsetInCU: 0x4482A, offset: 0x77E55, size: 0x8, addend: 0x0, symName: __ZNKSt3__16vectorIN7doctest16SubcaseSignatureENS_9allocatorIS2_EEE4dataB8ue170006Ev, symObjAddr: 0x17908, symBinAddr: 0x10002EE74, symSize: 0x28 }
  - { offsetInCU: 0x4484F, offset: 0x77E7A, size: 0x8, addend: 0x0, symName: __ZNSt3__19allocatorIN7doctest16SubcaseSignatureEE10deallocateB8ue170006EPS2_m, symObjAddr: 0x17930, symBinAddr: 0x10002EE9C, symSize: 0x44 }
  - { offsetInCU: 0x44890, offset: 0x77EBB, size: 0x8, addend: 0x0, symName: __ZNSt3__117__compressed_pairIPN7doctest16SubcaseSignatureENS_9allocatorIS2_EEE6secondB8ue170006Ev, symObjAddr: 0x17974, symBinAddr: 0x10002EEE0, symSize: 0x24 }
  - { offsetInCU: 0x448B5, offset: 0x77EE0, size: 0x8, addend: 0x0, symName: __ZNSt3__122__compressed_pair_elemINS_9allocatorIN7doctest16SubcaseSignatureEEELi1ELb1EE5__getB8ue170006Ev, symObjAddr: 0x17998, symBinAddr: 0x10002EF04, symSize: 0x14 }
  - { offsetInCU: 0x448DA, offset: 0x77F05, size: 0x8, addend: 0x0, symName: __ZNKSt3__16vectorIN7doctest16SubcaseSignatureENS_9allocatorIS2_EEE9__end_capB8ue170006Ev, symObjAddr: 0x179AC, symBinAddr: 0x10002EF18, symSize: 0x28 }
  - { offsetInCU: 0x448FF, offset: 0x77F2A, size: 0x8, addend: 0x0, symName: __ZNKSt3__117__compressed_pairIPN7doctest16SubcaseSignatureENS_9allocatorIS2_EEE5firstB8ue170006Ev, symObjAddr: 0x179D4, symBinAddr: 0x10002EF40, symSize: 0x24 }
  - { offsetInCU: 0x44924, offset: 0x77F4F, size: 0x8, addend: 0x0, symName: __ZNKSt3__122__compressed_pair_elemIPN7doctest16SubcaseSignatureELi0ELb0EE5__getB8ue170006Ev, symObjAddr: 0x179F8, symBinAddr: 0x10002EF64, symSize: 0x14 }
  - { offsetInCU: 0x44949, offset: 0x77F74, size: 0x8, addend: 0x0, symName: __ZNSt3__16vectorIPN7doctest9IReporterENS_9allocatorIS3_EEED2B8ue170006Ev, symObjAddr: 0x17A0C, symBinAddr: 0x10002EF78, symSize: 0x44 }
  - { offsetInCU: 0x44972, offset: 0x77F9D, size: 0x8, addend: 0x0, symName: __ZNSt3__16vectorIPN7doctest9IReporterENS_9allocatorIS3_EEE16__destroy_vectorC1B8ue170006ERS6_, symObjAddr: 0x17A50, symBinAddr: 0x10002EFBC, symSize: 0x34 }
  - { offsetInCU: 0x449AA, offset: 0x77FD5, size: 0x8, addend: 0x0, symName: __ZNSt3__16vectorIPN7doctest9IReporterENS_9allocatorIS3_EEE16__destroy_vectorclB8ue170006Ev, symObjAddr: 0x17A84, symBinAddr: 0x10002EFF0, symSize: 0x90 }
  - { offsetInCU: 0x449CF, offset: 0x77FFA, size: 0x8, addend: 0x0, symName: __ZNSt3__16vectorIPN7doctest9IReporterENS_9allocatorIS3_EEE16__destroy_vectorC2B8ue170006ERS6_, symObjAddr: 0x17B14, symBinAddr: 0x10002F080, symSize: 0x20 }
  - { offsetInCU: 0x44A07, offset: 0x78032, size: 0x8, addend: 0x0, symName: __ZNSt3__16vectorIPN7doctest9IReporterENS_9allocatorIS3_EEE7__clearB8ue170006Ev, symObjAddr: 0x17B34, symBinAddr: 0x10002F0A0, symSize: 0x28 }
  - { offsetInCU: 0x44A2C, offset: 0x78057, size: 0x8, addend: 0x0, symName: __ZNKSt3__16vectorIPN7doctest9IReporterENS_9allocatorIS3_EEE17__annotate_deleteB8ue170006Ev, symObjAddr: 0x17B5C, symBinAddr: 0x10002F0C8, symSize: 0xB8 }
  - { offsetInCU: 0x44A51, offset: 0x7807C, size: 0x8, addend: 0x0, symName: __ZNSt3__116allocator_traitsINS_9allocatorIPN7doctest9IReporterEEEE10deallocateB8ue170006ERS5_PS4_m, symObjAddr: 0x17C14, symBinAddr: 0x10002F180, symSize: 0x34 }
  - { offsetInCU: 0x44A93, offset: 0x780BE, size: 0x8, addend: 0x0, symName: __ZNSt3__16vectorIPN7doctest9IReporterENS_9allocatorIS3_EEE7__allocB8ue170006Ev, symObjAddr: 0x17C48, symBinAddr: 0x10002F1B4, symSize: 0x28 }
  - { offsetInCU: 0x44AB8, offset: 0x780E3, size: 0x8, addend: 0x0, symName: __ZNKSt3__16vectorIPN7doctest9IReporterENS_9allocatorIS3_EEE8capacityB8ue170006Ev, symObjAddr: 0x17C70, symBinAddr: 0x10002F1DC, symSize: 0x40 }
  - { offsetInCU: 0x44ADD, offset: 0x78108, size: 0x8, addend: 0x0, symName: __ZNSt3__16vectorIPN7doctest9IReporterENS_9allocatorIS3_EEE22__base_destruct_at_endB8ue170006EPS3_, symObjAddr: 0x17CB0, symBinAddr: 0x10002F21C, symSize: 0x8C }
  - { offsetInCU: 0x44B20, offset: 0x7814B, size: 0x8, addend: 0x0, symName: __ZNSt3__116allocator_traitsINS_9allocatorIPN7doctest9IReporterEEEE7destroyB8ue170006IS4_vEEvRS5_PT_, symObjAddr: 0x17D3C, symBinAddr: 0x10002F2A8, symSize: 0x2C }
  - { offsetInCU: 0x44B5D, offset: 0x78188, size: 0x8, addend: 0x0, symName: __ZNSt3__19allocatorIPN7doctest9IReporterEE7destroyB8ue170006EPS3_, symObjAddr: 0x17D7C, symBinAddr: 0x10002F2E8, symSize: 0x14 }
  - { offsetInCU: 0x44B90, offset: 0x781BB, size: 0x8, addend: 0x0, symName: __ZNKSt3__16vectorIPN7doctest9IReporterENS_9allocatorIS3_EEE31__annotate_contiguous_containerB8ue170006EPKvS8_S8_S8_, symObjAddr: 0x17D90, symBinAddr: 0x10002F2FC, symSize: 0x20 }
  - { offsetInCU: 0x44BE5, offset: 0x78210, size: 0x8, addend: 0x0, symName: __ZNKSt3__16vectorIPN7doctest9IReporterENS_9allocatorIS3_EEE4dataB8ue170006Ev, symObjAddr: 0x17DB0, symBinAddr: 0x10002F31C, symSize: 0x28 }
  - { offsetInCU: 0x44C0A, offset: 0x78235, size: 0x8, addend: 0x0, symName: __ZNKSt3__16vectorIPN7doctest9IReporterENS_9allocatorIS3_EEE4sizeB8ue170006Ev, symObjAddr: 0x17DD8, symBinAddr: 0x10002F344, symSize: 0x28 }
  - { offsetInCU: 0x44C2F, offset: 0x7825A, size: 0x8, addend: 0x0, symName: __ZNSt3__19allocatorIPN7doctest9IReporterEE10deallocateB8ue170006EPS3_m, symObjAddr: 0x17E00, symBinAddr: 0x10002F36C, symSize: 0x40 }
  - { offsetInCU: 0x44C70, offset: 0x7829B, size: 0x8, addend: 0x0, symName: __ZNSt3__117__compressed_pairIPPN7doctest9IReporterENS_9allocatorIS3_EEE6secondB8ue170006Ev, symObjAddr: 0x17E40, symBinAddr: 0x10002F3AC, symSize: 0x24 }
  - { offsetInCU: 0x44C95, offset: 0x782C0, size: 0x8, addend: 0x0, symName: __ZNSt3__122__compressed_pair_elemINS_9allocatorIPN7doctest9IReporterEEELi1ELb1EE5__getB8ue170006Ev, symObjAddr: 0x17E64, symBinAddr: 0x10002F3D0, symSize: 0x14 }
  - { offsetInCU: 0x44CBA, offset: 0x782E5, size: 0x8, addend: 0x0, symName: __ZNKSt3__16vectorIPN7doctest9IReporterENS_9allocatorIS3_EEE9__end_capB8ue170006Ev, symObjAddr: 0x17E78, symBinAddr: 0x10002F3E4, symSize: 0x28 }
  - { offsetInCU: 0x44CDF, offset: 0x7830A, size: 0x8, addend: 0x0, symName: __ZNKSt3__117__compressed_pairIPPN7doctest9IReporterENS_9allocatorIS3_EEE5firstB8ue170006Ev, symObjAddr: 0x17EA0, symBinAddr: 0x10002F40C, symSize: 0x24 }
  - { offsetInCU: 0x44D04, offset: 0x7832F, size: 0x8, addend: 0x0, symName: __ZNKSt3__122__compressed_pair_elemIPPN7doctest9IReporterELi0ELb0EE5__getB8ue170006Ev, symObjAddr: 0x17EC4, symBinAddr: 0x10002F430, symSize: 0x14 }
  - { offsetInCU: 0x44D29, offset: 0x78354, size: 0x8, addend: 0x0, symName: __ZNSt3__16vectorINS0_IN7doctest6StringENS_9allocatorIS2_EEEENS3_IS5_EEED2B8ue170006Ev, symObjAddr: 0x17ED8, symBinAddr: 0x10002F444, symSize: 0x40 }
  - { offsetInCU: 0x44D5C, offset: 0x78387, size: 0x8, addend: 0x0, symName: '__ZZN7doctest12_GLOBAL__N_117parseCommaSepArgsEiPKPKcS2_RNSt3__16vectorINS_6StringENS5_9allocatorIS7_EEEEENK3$_2clEv', symObjAddr: 0x17F18, symBinAddr: 0x10002F484, symSize: 0x154 }
  - { offsetInCU: 0x44D94, offset: 0x783BF, size: 0x8, addend: 0x0, symName: __ZNSt3__119basic_ostringstreamIcNS_11char_traitsIcEENS_9allocatorIcEEE3strB8ue170006ERKNS_12basic_stringIcS2_S4_EE, symObjAddr: 0x180C0, symBinAddr: 0x10002F5D8, symSize: 0x30 }
  - { offsetInCU: 0x44DCD, offset: 0x783F8, size: 0x8, addend: 0x0, symName: __ZNKSt3__111__wrap_iterIPNS_6vectorIN7doctest6StringENS_9allocatorIS3_EEEEE4baseB8ue170006Ev, symObjAddr: 0x1863C, symBinAddr: 0x10002F8AC, symSize: 0x18 }
  - { offsetInCU: 0x44DF2, offset: 0x7841D, size: 0x8, addend: 0x0, symName: __ZNSt3__113basic_ostreamIcNS_11char_traitsIcEEEC2B8ue170006EPNS_15basic_streambufIcS2_EE, symObjAddr: 0x18654, symBinAddr: 0x10002F8C4, symSize: 0x60 }
  - { offsetInCU: 0x44E35, offset: 0x78460, size: 0x8, addend: 0x0, symName: __ZN7doctest14DiscardOStreamUt_C1Ev, symObjAddr: 0x186B4, symBinAddr: 0x10002F924, symSize: 0x2C }
  - { offsetInCU: 0x44E61, offset: 0x7848C, size: 0x8, addend: 0x0, symName: __ZN7doctest14DiscardOStreamD0Ev, symObjAddr: 0x186E0, symBinAddr: 0x10002F950, symSize: 0x30 }
  - { offsetInCU: 0x44E8D, offset: 0x784B8, size: 0x8, addend: 0x0, symName: __ZTv0_n24_N7doctest14DiscardOStreamD1Ev, symObjAddr: 0x18710, symBinAddr: 0x10002F980, symSize: 0x28 }
  - { offsetInCU: 0x44EA4, offset: 0x784CF, size: 0x8, addend: 0x0, symName: __ZTv0_n24_N7doctest14DiscardOStreamD0Ev, symObjAddr: 0x18738, symBinAddr: 0x10002F9A8, symSize: 0x20 }
  - { offsetInCU: 0x44EBB, offset: 0x784E6, size: 0x8, addend: 0x0, symName: __ZN7doctest14DiscardOStreamUt_C2Ev, symObjAddr: 0x18758, symBinAddr: 0x10002F9C8, symSize: 0x44 }
  - { offsetInCU: 0x44EE7, offset: 0x78512, size: 0x8, addend: 0x0, symName: __ZN7doctest14DiscardOStreamUt_D1Ev, symObjAddr: 0x1879C, symBinAddr: 0x10002FA0C, symSize: 0x2C }
  - { offsetInCU: 0x44F13, offset: 0x7853E, size: 0x8, addend: 0x0, symName: __ZN7doctest14DiscardOStreamUt_D0Ev, symObjAddr: 0x187C8, symBinAddr: 0x10002FA38, symSize: 0x30 }
  - { offsetInCU: 0x44F3F, offset: 0x7856A, size: 0x8, addend: 0x0, symName: __ZN7doctest14DiscardOStreamUt_6xsputnEPKcl, symObjAddr: 0x187F8, symBinAddr: 0x10002FA68, symSize: 0x1C }
  - { offsetInCU: 0x44F7F, offset: 0x785AA, size: 0x8, addend: 0x0, symName: __ZN7doctest14DiscardOStreamUt_8overflowEi, symObjAddr: 0x18814, symBinAddr: 0x10002FA84, symSize: 0x58 }
  - { offsetInCU: 0x44FB3, offset: 0x785DE, size: 0x8, addend: 0x0, symName: __ZN7doctest14DiscardOStreamUt_D2Ev, symObjAddr: 0x1886C, symBinAddr: 0x10002FADC, symSize: 0x2C }
  - { offsetInCU: 0x44FDF, offset: 0x7860A, size: 0x8, addend: 0x0, symName: __ZNSt3__115basic_streambufIcNS_11char_traitsIcEEE4setpB8ue170006EPcS4_, symObjAddr: 0x18898, symBinAddr: 0x10002FB08, symSize: 0x30 }
  - { offsetInCU: 0x45022, offset: 0x7864D, size: 0x8, addend: 0x0, symName: __ZNSt3__111char_traitsIcE7not_eofB8ue170006Ei, symObjAddr: 0x188F4, symBinAddr: 0x10002FB64, symSize: 0x5C }
  - { offsetInCU: 0x45045, offset: 0x78670, size: 0x8, addend: 0x0, symName: __ZN7doctest14DiscardOStreamD2Ev, symObjAddr: 0x18978, symBinAddr: 0x10002FBC0, symSize: 0x64 }
  - { offsetInCU: 0x4507D, offset: 0x786A8, size: 0x8, addend: 0x0, symName: __ZNSt3__13mapINS_4pairIiN7doctest6StringEEEPFPNS2_9IReporterERKNS2_14ContextOptionsEENS_4lessIS4_EENS_9allocatorINS1_IKS4_SB_EEEEEC1B8ue170006Ev, symObjAddr: 0x189DC, symBinAddr: 0x10002FC24, symSize: 0x2C }
  - { offsetInCU: 0x450A6, offset: 0x786D1, size: 0x8, addend: 0x0, symName: __ZNSt3__13mapINS_4pairIiN7doctest6StringEEEPFPNS2_9IReporterERKNS2_14ContextOptionsEENS_4lessIS4_EENS_9allocatorINS1_IKS4_SB_EEEEED1B8ue170006Ev, symObjAddr: 0x18A08, symBinAddr: 0x10002FC50, symSize: 0x2C }
  - { offsetInCU: 0x450CF, offset: 0x786FA, size: 0x8, addend: 0x0, symName: __ZNSt3__13mapINS_4pairIiN7doctest6StringEEEPFPNS2_9IReporterERKNS2_14ContextOptionsEENS_4lessIS4_EENS_9allocatorINS1_IKS4_SB_EEEEEC2B8ue170006Ev, symObjAddr: 0x18A34, symBinAddr: 0x10002FC7C, symSize: 0x40 }
  - { offsetInCU: 0x450F8, offset: 0x78723, size: 0x8, addend: 0x0, symName: __ZNSt3__119__map_value_compareINS_4pairIiN7doctest6StringEEENS_12__value_typeIS4_PFPNS2_9IReporterERKNS2_14ContextOptionsEEEENS_4lessIS4_EELb1EEC1B8ue170006ESF_, symObjAddr: 0x18A74, symBinAddr: 0x10002FCBC, symSize: 0x2C }
  - { offsetInCU: 0x45130, offset: 0x7875B, size: 0x8, addend: 0x0, symName: __ZNSt3__16__treeINS_12__value_typeINS_4pairIiN7doctest6StringEEEPFPNS3_9IReporterERKNS3_14ContextOptionsEEEENS_19__map_value_compareIS5_SD_NS_4lessIS5_EELb1EEENS_9allocatorISD_EEEC1ERKSH_, symObjAddr: 0x18AA0, symBinAddr: 0x10002FCE8, symSize: 0x34 }
  - { offsetInCU: 0x4516A, offset: 0x78795, size: 0x8, addend: 0x0, symName: __ZNSt3__119__map_value_compareINS_4pairIiN7doctest6StringEEENS_12__value_typeIS4_PFPNS2_9IReporterERKNS2_14ContextOptionsEEEENS_4lessIS4_EELb1EEC2B8ue170006ESF_, symObjAddr: 0x18AD4, symBinAddr: 0x10002FD1C, symSize: 0x14 }
  - { offsetInCU: 0x451A2, offset: 0x787CD, size: 0x8, addend: 0x0, symName: __ZNSt3__16__treeINS_12__value_typeINS_4pairIiN7doctest6StringEEEPFPNS3_9IReporterERKNS3_14ContextOptionsEEEENS_19__map_value_compareIS5_SD_NS_4lessIS5_EELb1EEENS_9allocatorISD_EEEC2ERKSH_, symObjAddr: 0x18AE8, symBinAddr: 0x10002FD30, symSize: 0x7C }
  - { offsetInCU: 0x451DC, offset: 0x78807, size: 0x8, addend: 0x0, symName: __ZNSt3__117__compressed_pairINS_15__tree_end_nodeIPNS_16__tree_node_baseIPvEEEENS_9allocatorINS_11__tree_nodeINS_12__value_typeINS_4pairIiN7doctest6StringEEEPFPNSB_9IReporterERKNSB_14ContextOptionsEEEES3_EEEEEC1B8ue170006ILb1EvEEv, symObjAddr: 0x18B64, symBinAddr: 0x10002FDAC, symSize: 0x2C }
  - { offsetInCU: 0x45210, offset: 0x7883B, size: 0x8, addend: 0x0, symName: __ZNSt3__117__compressed_pairImNS_19__map_value_compareINS_4pairIiN7doctest6StringEEENS_12__value_typeIS5_PFPNS3_9IReporterERKNS3_14ContextOptionsEEEENS_4lessIS5_EELb1EEEEC1B8ue170006IiRKSH_EEOT_OT0_, symObjAddr: 0x18B90, symBinAddr: 0x10002FDD8, symSize: 0x3C }
  - { offsetInCU: 0x45267, offset: 0x78892, size: 0x8, addend: 0x0, symName: __ZNSt3__16__treeINS_12__value_typeINS_4pairIiN7doctest6StringEEEPFPNS3_9IReporterERKNS3_14ContextOptionsEEEENS_19__map_value_compareIS5_SD_NS_4lessIS5_EELb1EEENS_9allocatorISD_EEE10__end_nodeB8ue170006Ev, symObjAddr: 0x18BCC, symBinAddr: 0x10002FE14, symSize: 0x2C }
  - { offsetInCU: 0x4528C, offset: 0x788B7, size: 0x8, addend: 0x0, symName: __ZNSt3__16__treeINS_12__value_typeINS_4pairIiN7doctest6StringEEEPFPNS3_9IReporterERKNS3_14ContextOptionsEEEENS_19__map_value_compareIS5_SD_NS_4lessIS5_EELb1EEENS_9allocatorISD_EEE12__begin_nodeB8ue170006Ev, symObjAddr: 0x18BF8, symBinAddr: 0x10002FE40, symSize: 0x14 }
  - { offsetInCU: 0x452B1, offset: 0x788DC, size: 0x8, addend: 0x0, symName: __ZNSt3__117__compressed_pairINS_15__tree_end_nodeIPNS_16__tree_node_baseIPvEEEENS_9allocatorINS_11__tree_nodeINS_12__value_typeINS_4pairIiN7doctest6StringEEEPFPNSB_9IReporterERKNSB_14ContextOptionsEEEES3_EEEEEC2B8ue170006ILb1EvEEv, symObjAddr: 0x18C0C, symBinAddr: 0x10002FE54, symSize: 0x34 }
  - { offsetInCU: 0x452E5, offset: 0x78910, size: 0x8, addend: 0x0, symName: __ZNSt3__122__compressed_pair_elemINS_15__tree_end_nodeIPNS_16__tree_node_baseIPvEEEELi0ELb0EEC2B8ue170006ENS_16__value_init_tagE, symObjAddr: 0x18C40, symBinAddr: 0x10002FE88, symSize: 0x2C }
  - { offsetInCU: 0x45318, offset: 0x78943, size: 0x8, addend: 0x0, symName: __ZNSt3__122__compressed_pair_elemINS_9allocatorINS_11__tree_nodeINS_12__value_typeINS_4pairIiN7doctest6StringEEEPFPNS5_9IReporterERKNS5_14ContextOptionsEEEEPvEEEELi1ELb1EEC2B8ue170006ENS_16__value_init_tagE, symObjAddr: 0x18C6C, symBinAddr: 0x10002FEB4, symSize: 0x2C }
  - { offsetInCU: 0x4534B, offset: 0x78976, size: 0x8, addend: 0x0, symName: __ZNSt3__115__tree_end_nodeIPNS_16__tree_node_baseIPvEEEC1B8ue170006Ev, symObjAddr: 0x18C98, symBinAddr: 0x10002FEE0, symSize: 0x2C }
  - { offsetInCU: 0x45374, offset: 0x7899F, size: 0x8, addend: 0x0, symName: __ZNSt3__115__tree_end_nodeIPNS_16__tree_node_baseIPvEEEC2B8ue170006Ev, symObjAddr: 0x18CC4, symBinAddr: 0x10002FF0C, symSize: 0x18 }
  - { offsetInCU: 0x4539D, offset: 0x789C8, size: 0x8, addend: 0x0, symName: __ZNSt3__19allocatorINS_11__tree_nodeINS_12__value_typeINS_4pairIiN7doctest6StringEEEPFPNS4_9IReporterERKNS4_14ContextOptionsEEEEPvEEEC2B8ue170006Ev, symObjAddr: 0x18CDC, symBinAddr: 0x10002FF24, symSize: 0x2C }
  - { offsetInCU: 0x453C6, offset: 0x789F1, size: 0x8, addend: 0x0, symName: __ZNSt3__116__non_trivial_ifILb1ENS_9allocatorINS_11__tree_nodeINS_12__value_typeINS_4pairIiN7doctest6StringEEEPFPNS5_9IReporterERKNS5_14ContextOptionsEEEEPvEEEEEC2B8ue170006Ev, symObjAddr: 0x18D08, symBinAddr: 0x10002FF50, symSize: 0x14 }
  - { offsetInCU: 0x453EF, offset: 0x78A1A, size: 0x8, addend: 0x0, symName: __ZNSt3__117__compressed_pairImNS_19__map_value_compareINS_4pairIiN7doctest6StringEEENS_12__value_typeIS5_PFPNS3_9IReporterERKNS3_14ContextOptionsEEEENS_4lessIS5_EELb1EEEEC2B8ue170006IiRKSH_EEOT_OT0_, symObjAddr: 0x18D1C, symBinAddr: 0x10002FF64, symSize: 0x44 }
  - { offsetInCU: 0x45446, offset: 0x78A71, size: 0x8, addend: 0x0, symName: __ZNSt3__122__compressed_pair_elemINS_19__map_value_compareINS_4pairIiN7doctest6StringEEENS_12__value_typeIS5_PFPNS3_9IReporterERKNS3_14ContextOptionsEEEENS_4lessIS5_EELb1EEELi1ELb1EEC2B8ue170006IRKSH_vEEOT_, symObjAddr: 0x18D60, symBinAddr: 0x10002FFA8, symSize: 0x18 }
  - { offsetInCU: 0x45487, offset: 0x78AB2, size: 0x8, addend: 0x0, symName: __ZNSt3__114pointer_traitsIPNS_15__tree_end_nodeIPNS_16__tree_node_baseIPvEEEEE10pointer_toB8ue170006ERS6_, symObjAddr: 0x18D78, symBinAddr: 0x10002FFC0, symSize: 0x14 }
  - { offsetInCU: 0x454AA, offset: 0x78AD5, size: 0x8, addend: 0x0, symName: __ZNSt3__117__compressed_pairINS_15__tree_end_nodeIPNS_16__tree_node_baseIPvEEEENS_9allocatorINS_11__tree_nodeINS_12__value_typeINS_4pairIiN7doctest6StringEEEPFPNSB_9IReporterERKNSB_14ContextOptionsEEEES3_EEEEE5firstB8ue170006Ev, symObjAddr: 0x18D8C, symBinAddr: 0x10002FFD4, symSize: 0x24 }
  - { offsetInCU: 0x454CF, offset: 0x78AFA, size: 0x8, addend: 0x0, symName: __ZNSt3__122__compressed_pair_elemINS_15__tree_end_nodeIPNS_16__tree_node_baseIPvEEEELi0ELb0EE5__getB8ue170006Ev, symObjAddr: 0x18DB0, symBinAddr: 0x10002FFF8, symSize: 0x14 }
  - { offsetInCU: 0x454F4, offset: 0x78B1F, size: 0x8, addend: 0x0, symName: __ZNSt3__13mapINS_4pairIiN7doctest6StringEEEPFPNS2_9IReporterERKNS2_14ContextOptionsEENS_4lessIS4_EENS_9allocatorINS1_IKS4_SB_EEEEED2B8ue170006Ev, symObjAddr: 0x18DC4, symBinAddr: 0x10003000C, symSize: 0x2C }
  - { offsetInCU: 0x4551D, offset: 0x78B48, size: 0x8, addend: 0x0, symName: __ZNSt3__16__treeINS_12__value_typeINS_4pairIiN7doctest6StringEEEPFPNS3_9IReporterERKNS3_14ContextOptionsEEEENS_19__map_value_compareIS5_SD_NS_4lessIS5_EELb1EEENS_9allocatorISD_EEED1Ev, symObjAddr: 0x18DF0, symBinAddr: 0x100030038, symSize: 0x2C }
  - { offsetInCU: 0x45548, offset: 0x78B73, size: 0x8, addend: 0x0, symName: __ZNSt3__16__treeINS_12__value_typeINS_4pairIiN7doctest6StringEEEPFPNS3_9IReporterERKNS3_14ContextOptionsEEEENS_19__map_value_compareIS5_SD_NS_4lessIS5_EELb1EEENS_9allocatorISD_EEED2Ev, symObjAddr: 0x18E1C, symBinAddr: 0x100030064, symSize: 0x38 }
  - { offsetInCU: 0x45573, offset: 0x78B9E, size: 0x8, addend: 0x0, symName: __ZNSt3__16__treeINS_12__value_typeINS_4pairIiN7doctest6StringEEEPFPNS3_9IReporterERKNS3_14ContextOptionsEEEENS_19__map_value_compareIS5_SD_NS_4lessIS5_EELb1EEENS_9allocatorISD_EEE7destroyEPNS_11__tree_nodeISD_PvEE, symObjAddr: 0x18E54, symBinAddr: 0x10003009C, symSize: 0xAC }
  - { offsetInCU: 0x455BD, offset: 0x78BE8, size: 0x8, addend: 0x0, symName: __ZNKSt3__16__treeINS_12__value_typeINS_4pairIiN7doctest6StringEEEPFPNS3_9IReporterERKNS3_14ContextOptionsEEEENS_19__map_value_compareIS5_SD_NS_4lessIS5_EELb1EEENS_9allocatorISD_EEE6__rootB8ue170006Ev, symObjAddr: 0x18F00, symBinAddr: 0x100030148, symSize: 0x28 }
  - { offsetInCU: 0x455E2, offset: 0x78C0D, size: 0x8, addend: 0x0, symName: __ZNSt3__16__treeINS_12__value_typeINS_4pairIiN7doctest6StringEEEPFPNS3_9IReporterERKNS3_14ContextOptionsEEEENS_19__map_value_compareIS5_SD_NS_4lessIS5_EELb1EEENS_9allocatorISD_EEE12__node_allocB8ue170006Ev, symObjAddr: 0x18F28, symBinAddr: 0x100030170, symSize: 0x28 }
  - { offsetInCU: 0x45607, offset: 0x78C32, size: 0x8, addend: 0x0, symName: __ZNSt3__116allocator_traitsINS_9allocatorINS_11__tree_nodeINS_12__value_typeINS_4pairIiN7doctest6StringEEEPFPNS5_9IReporterERKNS5_14ContextOptionsEEEEPvEEEEE7destroyB8ue170006INS4_IKS7_SE_EEvvEEvRSI_PT_, symObjAddr: 0x18F50, symBinAddr: 0x100030198, symSize: 0x28 }
  - { offsetInCU: 0x45642, offset: 0x78C6D, size: 0x8, addend: 0x0, symName: __ZNSt3__122__tree_key_value_typesINS_12__value_typeINS_4pairIiN7doctest6StringEEEPFPNS3_9IReporterERKNS3_14ContextOptionsEEEEE9__get_ptrB8ue170006ERSD_, symObjAddr: 0x18F78, symBinAddr: 0x1000301C0, symSize: 0x24 }
  - { offsetInCU: 0x45666, offset: 0x78C91, size: 0x8, addend: 0x0, symName: __ZNSt3__116allocator_traitsINS_9allocatorINS_11__tree_nodeINS_12__value_typeINS_4pairIiN7doctest6StringEEEPFPNS5_9IReporterERKNS5_14ContextOptionsEEEEPvEEEEE10deallocateB8ue170006ERSI_PSH_m, symObjAddr: 0x18F9C, symBinAddr: 0x1000301E4, symSize: 0x34 }
  - { offsetInCU: 0x456A8, offset: 0x78CD3, size: 0x8, addend: 0x0, symName: __ZNSt3__117__compressed_pairINS_15__tree_end_nodeIPNS_16__tree_node_baseIPvEEEENS_9allocatorINS_11__tree_nodeINS_12__value_typeINS_4pairIiN7doctest6StringEEEPFPNSB_9IReporterERKNSB_14ContextOptionsEEEES3_EEEEE6secondB8ue170006Ev, symObjAddr: 0x18FD0, symBinAddr: 0x100030218, symSize: 0x24 }
  - { offsetInCU: 0x456CD, offset: 0x78CF8, size: 0x8, addend: 0x0, symName: __ZNSt3__122__compressed_pair_elemINS_9allocatorINS_11__tree_nodeINS_12__value_typeINS_4pairIiN7doctest6StringEEEPFPNS5_9IReporterERKNS5_14ContextOptionsEEEEPvEEEELi1ELb1EE5__getB8ue170006Ev, symObjAddr: 0x18FF4, symBinAddr: 0x10003023C, symSize: 0x14 }
  - { offsetInCU: 0x456F2, offset: 0x78D1D, size: 0x8, addend: 0x0, symName: __ZNSt3__112__value_typeINS_4pairIiN7doctest6StringEEEPFPNS2_9IReporterERKNS2_14ContextOptionsEEE11__get_valueB8ue170006Ev, symObjAddr: 0x19008, symBinAddr: 0x100030250, symSize: 0x14 }
  - { offsetInCU: 0x45717, offset: 0x78D42, size: 0x8, addend: 0x0, symName: __ZNSt3__19allocatorINS_11__tree_nodeINS_12__value_typeINS_4pairIiN7doctest6StringEEEPFPNS4_9IReporterERKNS4_14ContextOptionsEEEEPvEEE10deallocateB8ue170006EPSG_m, symObjAddr: 0x1901C, symBinAddr: 0x100030264, symSize: 0x44 }
  - { offsetInCU: 0x45758, offset: 0x78D83, size: 0x8, addend: 0x0, symName: __ZNKSt3__16__treeINS_12__value_typeINS_4pairIiN7doctest6StringEEEPFPNS3_9IReporterERKNS3_14ContextOptionsEEEENS_19__map_value_compareIS5_SD_NS_4lessIS5_EELb1EEENS_9allocatorISD_EEE10__end_nodeB8ue170006Ev, symObjAddr: 0x19060, symBinAddr: 0x1000302A8, symSize: 0x2C }
  - { offsetInCU: 0x4577D, offset: 0x78DA8, size: 0x8, addend: 0x0, symName: __ZNKSt3__117__compressed_pairINS_15__tree_end_nodeIPNS_16__tree_node_baseIPvEEEENS_9allocatorINS_11__tree_nodeINS_12__value_typeINS_4pairIiN7doctest6StringEEEPFPNSB_9IReporterERKNSB_14ContextOptionsEEEES3_EEEEE5firstB8ue170006Ev, symObjAddr: 0x1908C, symBinAddr: 0x1000302D4, symSize: 0x24 }
  - { offsetInCU: 0x457A2, offset: 0x78DCD, size: 0x8, addend: 0x0, symName: __ZNKSt3__122__compressed_pair_elemINS_15__tree_end_nodeIPNS_16__tree_node_baseIPvEEEELi0ELb0EE5__getB8ue170006Ev, symObjAddr: 0x190B0, symBinAddr: 0x1000302F8, symSize: 0x14 }
  - { offsetInCU: 0x457C7, offset: 0x78DF2, size: 0x8, addend: 0x0, symName: __ZN7doctest9QueryDataC2Ev, symObjAddr: 0x190C4, symBinAddr: 0x10003030C, symSize: 0x20 }
  - { offsetInCU: 0x457F3, offset: 0x78E1E, size: 0x8, addend: 0x0, symName: __ZN7doctest12_GLOBAL__N_121FatalConditionHandler15freeAltStackMemEv, symObjAddr: 0x190E4, symBinAddr: 0x10003032C, symSize: 0x40 }
  - { offsetInCU: 0x45807, offset: 0x78E32, size: 0x8, addend: 0x0, symName: __ZNKSt3__113basic_fstreamIcNS_11char_traitsIcEEE7is_openEv, symObjAddr: 0x19124, symBinAddr: 0x10003036C, symSize: 0x2C }
  - { offsetInCU: 0x4582D, offset: 0x78E58, size: 0x8, addend: 0x0, symName: __ZNSt3__113basic_fstreamIcNS_11char_traitsIcEEE5closeEv, symObjAddr: 0x19150, symBinAddr: 0x100030398, symSize: 0x58 }
  - { offsetInCU: 0x45853, offset: 0x78E7E, size: 0x8, addend: 0x0, symName: __ZNSt3__16vectorIPN7doctest9IReporterENS_9allocatorIS3_EEE5clearB8ue170006Ev, symObjAddr: 0x191A8, symBinAddr: 0x1000303F0, symSize: 0x44 }
  - { offsetInCU: 0x45887, offset: 0x78EB2, size: 0x8, addend: 0x0, symName: __ZNKSt3__113basic_filebufIcNS_11char_traitsIcEEE7is_openEv, symObjAddr: 0x191EC, symBinAddr: 0x100030434, symSize: 0x24 }
  - { offsetInCU: 0x458AE, offset: 0x78ED9, size: 0x8, addend: 0x0, symName: __ZNKSt3__16vectorIPN7doctest9IReporterENS_9allocatorIS3_EEE17__annotate_shrinkB8ue170006Em, symObjAddr: 0x19270, symBinAddr: 0x100030458, symSize: 0xB4 }
  - { offsetInCU: 0x458E2, offset: 0x78F0D, size: 0x8, addend: 0x0, symName: __ZNKSt3__111__wrap_iterIPPKN7doctest6detail8TestCaseEE4baseB8ue170006Ev, symObjAddr: 0x1936C, symBinAddr: 0x100030554, symSize: 0x18 }
  - { offsetInCU: 0x45907, offset: 0x78F32, size: 0x8, addend: 0x0, symName: __ZN7doctest12_GLOBAL__N_121FatalConditionHandlerC2Ev, symObjAddr: 0x19384, symBinAddr: 0x10003056C, symSize: 0xD8 }
  - { offsetInCU: 0x4597B, offset: 0x78FA6, size: 0x8, addend: 0x0, symName: __ZN7doctest12_GLOBAL__N_121FatalConditionHandler12handleSignalEi, symObjAddr: 0x1945C, symBinAddr: 0x100030644, symSize: 0xE8 }
  - { offsetInCU: 0x459EA, offset: 0x79015, size: 0x8, addend: 0x0, symName: __ZNSt3__16vectorIN7doctest16SubcaseSignatureENS_9allocatorIS2_EEE8pop_backEv, symObjAddr: 0x19838, symBinAddr: 0x100030A20, symSize: 0x2C }
  - { offsetInCU: 0x45A10, offset: 0x7903B, size: 0x8, addend: 0x0, symName: __ZNSt3__16vectorIN7doctest16SubcaseSignatureENS_9allocatorIS2_EEE17__destruct_at_endB8ue170006EPS2_, symObjAddr: 0x19864, symBinAddr: 0x100030A4C, symSize: 0x4C }
  - { offsetInCU: 0x45A53, offset: 0x7907E, size: 0x8, addend: 0x0, symName: __ZNKSt3__16vectorIN7doctest16SubcaseSignatureENS_9allocatorIS2_EEE17__annotate_shrinkB8ue170006Em, symObjAddr: 0x198B0, symBinAddr: 0x100030A98, symSize: 0xD0 }
  - { offsetInCU: 0x45A87, offset: 0x790B2, size: 0x8, addend: 0x0, symName: __ZN7doctest12_GLOBAL__N_121FatalConditionHandlerD2Ev, symObjAddr: 0x19980, symBinAddr: 0x100030B68, symSize: 0x34 }
  - { offsetInCU: 0x45AB0, offset: 0x790DB, size: 0x8, addend: 0x0, symName: __ZNK7doctest6detail5Timer17getElapsedSecondsEv, symObjAddr: 0x199B4, symBinAddr: 0x100030B9C, symSize: 0x44 }
  - { offsetInCU: 0x45AD5, offset: 0x79100, size: 0x8, addend: 0x0, symName: __ZNSt3__113basic_fstreamIcNS_11char_traitsIcEEED2Ev, symObjAddr: 0x19A6C, symBinAddr: 0x100030C54, symSize: 0x6C }
  - { offsetInCU: 0x45B0C, offset: 0x79137, size: 0x8, addend: 0x0, symName: __ZThn16_NSt3__113basic_fstreamIcNS_11char_traitsIcEEED1Ev, symObjAddr: 0x19AD8, symBinAddr: 0x100030CC0, symSize: 0x1C }
  - { offsetInCU: 0x45B22, offset: 0x7914D, size: 0x8, addend: 0x0, symName: __ZTv0_n24_NSt3__113basic_fstreamIcNS_11char_traitsIcEEED1Ev, symObjAddr: 0x19AF4, symBinAddr: 0x100030CDC, symSize: 0x28 }
  - { offsetInCU: 0x45B38, offset: 0x79163, size: 0x8, addend: 0x0, symName: __ZNSt3__113basic_fstreamIcNS_11char_traitsIcEEED0Ev, symObjAddr: 0x19B1C, symBinAddr: 0x100030D04, symSize: 0x30 }
  - { offsetInCU: 0x45B63, offset: 0x7918E, size: 0x8, addend: 0x0, symName: __ZThn16_NSt3__113basic_fstreamIcNS_11char_traitsIcEEED0Ev, symObjAddr: 0x19B4C, symBinAddr: 0x100030D34, symSize: 0x18 }
  - { offsetInCU: 0x45B79, offset: 0x791A4, size: 0x8, addend: 0x0, symName: __ZTv0_n24_NSt3__113basic_fstreamIcNS_11char_traitsIcEEED0Ev, symObjAddr: 0x19B64, symBinAddr: 0x100030D4C, symSize: 0x20 }
  - { offsetInCU: 0x45B8F, offset: 0x791BA, size: 0x8, addend: 0x0, symName: __ZNSt3__14pairIKNS0_IiN7doctest6StringEEEPFPNS1_9IReporterERKNS1_14ContextOptionsEEED2Ev, symObjAddr: 0x19B84, symBinAddr: 0x100030D6C, symSize: 0x2C }
  - { offsetInCU: 0x45BBA, offset: 0x791E5, size: 0x8, addend: 0x0, symName: __ZNSt3__14pairIiN7doctest6StringEED2Ev, symObjAddr: 0x19BB0, symBinAddr: 0x100030D98, symSize: 0x30 }
  - { offsetInCU: 0x45BE5, offset: 0x79210, size: 0x8, addend: 0x0, symName: __ZN7doctest6detail8TestCaseD2Ev, symObjAddr: 0x19BE0, symBinAddr: 0x100030DC8, symSize: 0x44 }
  - { offsetInCU: 0x45C22, offset: 0x7924D, size: 0x8, addend: 0x0, symName: __ZN7doctest6detail20ExpressionDecomposerlsINSt3__112basic_stringIcNS3_11char_traitsIcEENS3_9allocatorIcEEEEEENS0_14Expression_lhsIT_EEOSB_, symObjAddr: 0x19C24, symBinAddr: 0x100030E0C, symSize: 0x44 }
  - { offsetInCU: 0x45C75, offset: 0x792A0, size: 0x8, addend: 0x0, symName: __ZN7doctest6detail14Expression_lhsINSt3__112basic_stringIcNS2_11char_traitsIcEENS2_9allocatorIcEEEEEeqIRA1_KcEEDTcmcvveqclL_ZNS0_7declvalIS8_EEOT_vEEclsr7doctest6detailE7declvalISF_EEtlNS0_6ResultEEESG_, symObjAddr: 0x19C68, symBinAddr: 0x100030E50, symSize: 0x190 }
  - { offsetInCU: 0x45CC4, offset: 0x792EF, size: 0x8, addend: 0x0, symName: __ZN7doctest6detail6ResultD1Ev, symObjAddr: 0x19DF8, symBinAddr: 0x100030FE0, symSize: 0x2C }
  - { offsetInCU: 0x45CF0, offset: 0x7931B, size: 0x8, addend: 0x0, symName: __ZN7doctest6detail14Expression_lhsINSt3__112basic_stringIcNS2_11char_traitsIcEENS2_9allocatorIcEEEEED1Ev, symObjAddr: 0x19E24, symBinAddr: 0x10003100C, symSize: 0x2C }
  - { offsetInCU: 0x45D2B, offset: 0x79356, size: 0x8, addend: 0x0, symName: __ZN7doctest6detail20ExpressionDecomposerlsIiEENS0_14Expression_lhsIT_EEOS4_, symObjAddr: 0x19E50, symBinAddr: 0x100031038, symSize: 0x38 }
  - { offsetInCU: 0x45D68, offset: 0x79393, size: 0x8, addend: 0x0, symName: __ZN7doctest6detail14Expression_lhsIiEeqIiEEDTcmcvveqclL_ZNS0_7declvalIiEEOT_vEEclsr7doctest6detailE7declvalIS5_EEtlNS0_6ResultEEES6_, symObjAddr: 0x19E88, symBinAddr: 0x100031070, symSize: 0x198 }
  - { offsetInCU: 0x45DCD, offset: 0x793F8, size: 0x8, addend: 0x0, symName: __ZNSt3__14pairINS_12basic_stringIcNS_11char_traitsIcEENS_9allocatorIcEEEEiEC1B8ue170006IRA7_KciLPv0EEEOT_OT0_, symObjAddr: 0x1A020, symBinAddr: 0x100031208, symSize: 0x3C }
  - { offsetInCU: 0x45E40, offset: 0x7946B, size: 0x8, addend: 0x0, symName: __ZN7doctest6detail14Expression_lhsINSt3__112basic_stringIcNS2_11char_traitsIcEENS2_9allocatorIcEEEEEeqIRA6_KcEEDTcmcvveqclL_ZNS0_7declvalIS8_EEOT_vEEclsr7doctest6detailE7declvalISF_EEtlNS0_6ResultEEESG_, symObjAddr: 0x1A154, symBinAddr: 0x100031244, symSize: 0x190 }
  - { offsetInCU: 0x45E9E, offset: 0x794C9, size: 0x8, addend: 0x0, symName: __ZN7doctest6detail20ExpressionDecomposerlsINSt3__14pairINS3_12basic_stringIcNS3_11char_traitsIcEENS3_9allocatorIcEEEEiEEEENS0_14Expression_lhsIT_EEOSD_, symObjAddr: 0x1A2E4, symBinAddr: 0x1000313D4, symSize: 0x44 }
  - { offsetInCU: 0x45EDB, offset: 0x79506, size: 0x8, addend: 0x0, symName: __ZN7doctest6detail14Expression_lhsINSt3__14pairINS2_12basic_stringIcNS2_11char_traitsIcEENS2_9allocatorIcEEEEiEEEeqISA_EEDTcmcvveqclL_ZNS0_7declvalISA_EEOT_vEEclsr7doctest6detailE7declvalISE_EEtlNS0_6ResultEEESF_, symObjAddr: 0x1A328, symBinAddr: 0x100031418, symSize: 0x190 }
  - { offsetInCU: 0x45F2A, offset: 0x79555, size: 0x8, addend: 0x0, symName: __ZN7doctest6detail14Expression_lhsINSt3__14pairINS2_12basic_stringIcNS2_11char_traitsIcEENS2_9allocatorIcEEEEiEEED1Ev, symObjAddr: 0x1A4E4, symBinAddr: 0x1000315A8, symSize: 0x2C }
  - { offsetInCU: 0x45F6C, offset: 0x79597, size: 0x8, addend: 0x0, symName: __ZN7doctest6detail14Expression_lhsINSt3__112basic_stringIcNS2_11char_traitsIcEENS2_9allocatorIcEEEEEeqIRA5_KcEEDTcmcvveqclL_ZNS0_7declvalIS8_EEOT_vEEclsr7doctest6detailE7declvalISF_EEtlNS0_6ResultEEESG_, symObjAddr: 0x1A510, symBinAddr: 0x1000315D4, symSize: 0x190 }
  - { offsetInCU: 0x45FBB, offset: 0x795E6, size: 0x8, addend: 0x0, symName: __ZN7doctest6detail14Expression_lhsINSt3__112basic_stringIcNS2_11char_traitsIcEENS2_9allocatorIcEEEEEC1EOS8_NS_10assertType4EnumE, symObjAddr: 0x1A6A0, symBinAddr: 0x100031764, symSize: 0x3C }
  - { offsetInCU: 0x46002, offset: 0x7962D, size: 0x8, addend: 0x0, symName: __ZN7doctest6detail14Expression_lhsINSt3__112basic_stringIcNS2_11char_traitsIcEENS2_9allocatorIcEEEEEC2EOS8_NS_10assertType4EnumE, symObjAddr: 0x1A6DC, symBinAddr: 0x1000317A0, symSize: 0x40 }
  - { offsetInCU: 0x46049, offset: 0x79674, size: 0x8, addend: 0x0, symName: __ZN7doctest6detail15StringMakerBaseILb1EE7convertINSt3__112basic_stringIcNS4_11char_traitsIcEENS4_9allocatorIcEEEEEENS_6StringERKT_, symObjAddr: 0x1AA8C, symBinAddr: 0x1000319A8, symSize: 0x2C }
  - { offsetInCU: 0x46076, offset: 0x796A1, size: 0x8, addend: 0x0, symName: __ZN7doctest6detail8filldataINSt3__112basic_stringIcNS2_11char_traitsIcEENS2_9allocatorIcEEEEE4fillEPNS2_13basic_ostreamIcS5_EERKS8_, symObjAddr: 0x1AB24, symBinAddr: 0x100031A40, symSize: 0x2C }
  - { offsetInCU: 0x460C2, offset: 0x796ED, size: 0x8, addend: 0x0, symName: __ZN7doctest6detail15StringMakerBaseILb1EE7convertIA1_cEENS_6StringERKT_, symObjAddr: 0x1B3F0, symBinAddr: 0x100031A6C, symSize: 0x2C }
  - { offsetInCU: 0x460F4, offset: 0x7971F, size: 0x8, addend: 0x0, symName: __ZN7doctest6detail8filldataIA1_KcE4fillEPNSt3__113basic_ostreamIcNS5_11char_traitsIcEEEERS3_, symObjAddr: 0x1B4B4, symBinAddr: 0x100031B30, symSize: 0xC8 }
  - { offsetInCU: 0x46127, offset: 0x79752, size: 0x8, addend: 0x0, symName: __ZN7doctest6detail6ResultD2Ev, symObjAddr: 0x1B57C, symBinAddr: 0x100031BF8, symSize: 0x30 }
  - { offsetInCU: 0x46153, offset: 0x7977E, size: 0x8, addend: 0x0, symName: __ZN7doctest6detail14Expression_lhsINSt3__112basic_stringIcNS2_11char_traitsIcEENS2_9allocatorIcEEEEED2Ev, symObjAddr: 0x1B5AC, symBinAddr: 0x100031C28, symSize: 0x2C }
  - { offsetInCU: 0x4617F, offset: 0x797AA, size: 0x8, addend: 0x0, symName: __ZN7doctest6detail14Expression_lhsIiEC1EOiNS_10assertType4EnumE, symObjAddr: 0x1B5D8, symBinAddr: 0x100031C54, symSize: 0x3C }
  - { offsetInCU: 0x461C6, offset: 0x797F1, size: 0x8, addend: 0x0, symName: __ZN7doctest6detail14Expression_lhsIiEC2EOiNS_10assertType4EnumE, symObjAddr: 0x1B614, symBinAddr: 0x100031C90, symSize: 0x30 }
  - { offsetInCU: 0x4620D, offset: 0x79838, size: 0x8, addend: 0x0, symName: __ZNSt3__14pairINS_12basic_stringIcNS_11char_traitsIcEENS_9allocatorIcEEEEiEC2B8ue170006IRA7_KciLPv0EEEOT_OT0_, symObjAddr: 0x1B7BC, symBinAddr: 0x100031E38, symSize: 0x44 }
  - { offsetInCU: 0x4628D, offset: 0x798B8, size: 0x8, addend: 0x0, symName: __ZN7doctest6detail15StringMakerBaseILb1EE7convertIA6_cEENS_6StringERKT_, symObjAddr: 0x1DF0C, symBinAddr: 0x100032004, symSize: 0x2C }
  - { offsetInCU: 0x462BF, offset: 0x798EA, size: 0x8, addend: 0x0, symName: __ZN7doctest6detail8filldataIA6_KcE4fillEPNSt3__113basic_ostreamIcNS5_11char_traitsIcEEEERS3_, symObjAddr: 0x1DFD0, symBinAddr: 0x1000320C8, symSize: 0xCC }
  - { offsetInCU: 0x462F2, offset: 0x7991D, size: 0x8, addend: 0x0, symName: __ZN7doctest6detail14Expression_lhsINSt3__14pairINS2_12basic_stringIcNS2_11char_traitsIcEENS2_9allocatorIcEEEEiEEEC1EOSA_NS_10assertType4EnumE, symObjAddr: 0x1E09C, symBinAddr: 0x100032194, symSize: 0x3C }
  - { offsetInCU: 0x46339, offset: 0x79964, size: 0x8, addend: 0x0, symName: __ZN7doctest6detail14Expression_lhsINSt3__14pairINS2_12basic_stringIcNS2_11char_traitsIcEENS2_9allocatorIcEEEEiEEEC2EOSA_NS_10assertType4EnumE, symObjAddr: 0x1E0D8, symBinAddr: 0x1000321D0, symSize: 0x40 }
  - { offsetInCU: 0x46380, offset: 0x799AB, size: 0x8, addend: 0x0, symName: __ZN7doctest6detail15StringMakerBaseILb0EE7convertINSt3__14pairINS4_12basic_stringIcNS4_11char_traitsIcEENS4_9allocatorIcEEEEiEEEENS_6StringERKT_, symObjAddr: 0x1E494, symBinAddr: 0x100032410, symSize: 0x3C }
  - { offsetInCU: 0x463AA, offset: 0x799D5, size: 0x8, addend: 0x0, symName: __ZN7doctest6detail14Expression_lhsINSt3__14pairINS2_12basic_stringIcNS2_11char_traitsIcEENS2_9allocatorIcEEEEiEEED2Ev, symObjAddr: 0x1E4FC, symBinAddr: 0x10003244C, symSize: 0x2C }
  - { offsetInCU: 0x463D6, offset: 0x79A01, size: 0x8, addend: 0x0, symName: __ZN7doctest6detail15StringMakerBaseILb1EE7convertIA5_cEENS_6StringERKT_, symObjAddr: 0x1E6B0, symBinAddr: 0x100032600, symSize: 0x2C }
  - { offsetInCU: 0x46408, offset: 0x79A33, size: 0x8, addend: 0x0, symName: __ZN7doctest6detail8filldataIA5_KcE4fillEPNSt3__113basic_ostreamIcNS5_11char_traitsIcEEEERS3_, symObjAddr: 0x1E774, symBinAddr: 0x1000326C4, symSize: 0xCC }
  - { offsetInCU: 0x46445, offset: 0x79A70, size: 0x8, addend: 0x0, symName: __ZN7doctest6detail14Expression_lhsINSt3__112basic_stringIcNS2_11char_traitsIcEENS2_9allocatorIcEEEEEeqIRA8_KcEEDTcmcvveqclL_ZNS0_7declvalIS8_EEOT_vEEclsr7doctest6detailE7declvalISF_EEtlNS0_6ResultEEESG_, symObjAddr: 0x1E840, symBinAddr: 0x100032790, symSize: 0x190 }
  - { offsetInCU: 0x464AA, offset: 0x79AD5, size: 0x8, addend: 0x0, symName: __ZN7doctest6detail14Expression_lhsINSt3__112basic_stringIcNS2_11char_traitsIcEENS2_9allocatorIcEEEEEeqIRA16_KcEEDTcmcvveqclL_ZNS0_7declvalIS8_EEOT_vEEclsr7doctest6detailE7declvalISF_EEtlNS0_6ResultEEESG_, symObjAddr: 0x1E9D0, symBinAddr: 0x100032920, symSize: 0x190 }
  - { offsetInCU: 0x464F9, offset: 0x79B24, size: 0x8, addend: 0x0, symName: __ZN7doctest6detail15StringMakerBaseILb1EE7convertIA8_cEENS_6StringERKT_, symObjAddr: 0x1ECE8, symBinAddr: 0x100032C38, symSize: 0x2C }
  - { offsetInCU: 0x4652B, offset: 0x79B56, size: 0x8, addend: 0x0, symName: __ZN7doctest6detail8filldataIA8_KcE4fillEPNSt3__113basic_ostreamIcNS5_11char_traitsIcEEEERS3_, symObjAddr: 0x1EDAC, symBinAddr: 0x100032CFC, symSize: 0xCC }
  - { offsetInCU: 0x4655E, offset: 0x79B89, size: 0x8, addend: 0x0, symName: __ZN7doctest6detail15StringMakerBaseILb1EE7convertIA16_cEENS_6StringERKT_, symObjAddr: 0x1F000, symBinAddr: 0x100032F50, symSize: 0x2C }
  - { offsetInCU: 0x46590, offset: 0x79BBB, size: 0x8, addend: 0x0, symName: __ZN7doctest6detail8filldataIA16_KcE4fillEPNSt3__113basic_ostreamIcNS5_11char_traitsIcEEEERS3_, symObjAddr: 0x1F0C4, symBinAddr: 0x100033014, symSize: 0xCC }
  - { offsetInCU: 0x465C3, offset: 0x79BEE, size: 0x8, addend: 0x0, symName: __ZNK7doctest6detail15MultiLaneAtomicIiE4loadENSt3__112memory_orderE, symObjAddr: 0x1F1D4, symBinAddr: 0x1000330E0, symSize: 0x94 }
  - { offsetInCU: 0x4665A, offset: 0x79C85, size: 0x8, addend: 0x0, symName: __ZNKSt3__113__atomic_baseIiLb0EE4loadB8ue170006ENS_12memory_orderE, symObjAddr: 0x1F268, symBinAddr: 0x100033174, symSize: 0x2C }
  - { offsetInCU: 0x46697, offset: 0x79CC2, size: 0x8, addend: 0x0, symName: __ZNKSt3__16__lessIvvEclB8ue170006IjjEEbRKT_RKT0_, symObjAddr: 0x1F368, symBinAddr: 0x100033274, symSize: 0x34 }
  - { offsetInCU: 0x466F4, offset: 0x79D1F, size: 0x8, addend: 0x0, symName: __ZNKSt3__16__lessIvvEclB8ue170006IddEEbRKT_RKT0_, symObjAddr: 0x1F3F0, symBinAddr: 0x1000332FC, symSize: 0x34 }
  - { offsetInCU: 0x46747, offset: 0x79D72, size: 0x8, addend: 0x0, symName: __ZNSt3__113__atomic_baseIbLb0EE5storeB8ue170006EbNS_12memory_orderE, symObjAddr: 0x1F424, symBinAddr: 0x100033330, symSize: 0x40 }
  - { offsetInCU: 0x46788, offset: 0x79DB3, size: 0x8, addend: 0x0, symName: __ZNSt3__16vectorIN7doctest16SubcaseSignatureENS_9allocatorIS2_EEE9__end_capB8ue170006Ev, symObjAddr: 0x1F4F4, symBinAddr: 0x100033400, symSize: 0x28 }
  - { offsetInCU: 0x467AD, offset: 0x79DD8, size: 0x8, addend: 0x0, symName: __ZNSt3__16vectorIN7doctest16SubcaseSignatureENS_9allocatorIS2_EEE22__construct_one_at_endB8ue170006IJRKS2_EEEvDpOT_, symObjAddr: 0x1F51C, symBinAddr: 0x100033428, symSize: 0x90 }
  - { offsetInCU: 0x467FB, offset: 0x79E26, size: 0x8, addend: 0x0, symName: __ZNSt3__16vectorIN7doctest16SubcaseSignatureENS_9allocatorIS2_EEE21__push_back_slow_pathIRKS2_EEvOT_, symObjAddr: 0x1F5AC, symBinAddr: 0x1000334B8, symSize: 0xD8 }
  - { offsetInCU: 0x46857, offset: 0x79E82, size: 0x8, addend: 0x0, symName: __ZNSt3__117__compressed_pairIPN7doctest16SubcaseSignatureENS_9allocatorIS2_EEE5firstB8ue170006Ev, symObjAddr: 0x1F684, symBinAddr: 0x100033590, symSize: 0x24 }
  - { offsetInCU: 0x4687C, offset: 0x79EA7, size: 0x8, addend: 0x0, symName: __ZNSt3__122__compressed_pair_elemIPN7doctest16SubcaseSignatureELi0ELb0EE5__getB8ue170006Ev, symObjAddr: 0x1F6A8, symBinAddr: 0x1000335B4, symSize: 0x14 }
  - { offsetInCU: 0x468BA, offset: 0x79EE5, size: 0x8, addend: 0x0, symName: __ZNSt3__16vectorIN7doctest16SubcaseSignatureENS_9allocatorIS2_EEE21_ConstructTransactionC1B8ue170006ERS5_m, symObjAddr: 0x1F6BC, symBinAddr: 0x1000335C8, symSize: 0x3C }
  - { offsetInCU: 0x46901, offset: 0x79F2C, size: 0x8, addend: 0x0, symName: __ZNSt3__116allocator_traitsINS_9allocatorIN7doctest16SubcaseSignatureEEEE9constructB8ue170006IS3_JRKS3_EvEEvRS4_PT_DpOT0_, symObjAddr: 0x1F6F8, symBinAddr: 0x100033604, symSize: 0x34 }
  - { offsetInCU: 0x46958, offset: 0x79F83, size: 0x8, addend: 0x0, symName: __ZNSt3__16vectorIN7doctest16SubcaseSignatureENS_9allocatorIS2_EEE21_ConstructTransactionD1B8ue170006Ev, symObjAddr: 0x1F72C, symBinAddr: 0x100033638, symSize: 0x2C }
  - { offsetInCU: 0x46981, offset: 0x79FAC, size: 0x8, addend: 0x0, symName: __ZNSt3__16vectorIN7doctest16SubcaseSignatureENS_9allocatorIS2_EEE21_ConstructTransactionC2B8ue170006ERS5_m, symObjAddr: 0x1F758, symBinAddr: 0x100033664, symSize: 0x4C }
  - { offsetInCU: 0x469C8, offset: 0x79FF3, size: 0x8, addend: 0x0, symName: __ZNSt3__19allocatorIN7doctest16SubcaseSignatureEE9constructB8ue170006IS2_JRKS2_EEEvPT_DpOT0_, symObjAddr: 0x1F7A4, symBinAddr: 0x1000336B0, symSize: 0x30 }
  - { offsetInCU: 0x46A1D, offset: 0x7A048, size: 0x8, addend: 0x0, symName: __ZN7doctest16SubcaseSignatureC1ERKS0_, symObjAddr: 0x1F7D4, symBinAddr: 0x1000336E0, symSize: 0x34 }
  - { offsetInCU: 0x46A52, offset: 0x7A07D, size: 0x8, addend: 0x0, symName: __ZN7doctest16SubcaseSignatureC2ERKS0_, symObjAddr: 0x1F808, symBinAddr: 0x100033714, symSize: 0x48 }
  - { offsetInCU: 0x46A87, offset: 0x7A0B2, size: 0x8, addend: 0x0, symName: __ZNSt3__16vectorIN7doctest16SubcaseSignatureENS_9allocatorIS2_EEE21_ConstructTransactionD2B8ue170006Ev, symObjAddr: 0x1F850, symBinAddr: 0x10003375C, symSize: 0x20 }
  - { offsetInCU: 0x46AB0, offset: 0x7A0DB, size: 0x8, addend: 0x0, symName: __ZNKSt3__16vectorIN7doctest16SubcaseSignatureENS_9allocatorIS2_EEE11__recommendB8ue170006Em, symObjAddr: 0x1F870, symBinAddr: 0x10003377C, symSize: 0xB4 }
  - { offsetInCU: 0x46B03, offset: 0x7A12E, size: 0x8, addend: 0x0, symName: __ZNSt3__114__split_bufferIN7doctest16SubcaseSignatureERNS_9allocatorIS2_EEEC1EmmS5_, symObjAddr: 0x1F924, symBinAddr: 0x100033830, symSize: 0x44 }
  - { offsetInCU: 0x46B58, offset: 0x7A183, size: 0x8, addend: 0x0, symName: __ZNSt3__114__split_bufferIN7doctest16SubcaseSignatureERNS_9allocatorIS2_EEED1Ev, symObjAddr: 0x1FA78, symBinAddr: 0x100033984, symSize: 0x2C }
  - { offsetInCU: 0x46B83, offset: 0x7A1AE, size: 0x8, addend: 0x0, symName: __ZNKSt3__16vectorIN7doctest16SubcaseSignatureENS_9allocatorIS2_EEE8max_sizeEv, symObjAddr: 0x1FAA4, symBinAddr: 0x1000339B0, symSize: 0x60 }
  - { offsetInCU: 0x46BA9, offset: 0x7A1D4, size: 0x8, addend: 0x0, symName: __ZNKSt3__16vectorIN7doctest16SubcaseSignatureENS_9allocatorIS2_EEE20__throw_length_errorB8ue170006Ev, symObjAddr: 0x1FB04, symBinAddr: 0x100033A10, symSize: 0x1C }
  - { offsetInCU: 0x46BD8, offset: 0x7A203, size: 0x8, addend: 0x0, symName: __ZNSt3__116allocator_traitsINS_9allocatorIN7doctest16SubcaseSignatureEEEE8max_sizeB8ue170006IS4_vEEmRKS4_, symObjAddr: 0x1FB20, symBinAddr: 0x100033A2C, symSize: 0x24 }
  - { offsetInCU: 0x46C06, offset: 0x7A231, size: 0x8, addend: 0x0, symName: __ZNKSt3__16vectorIN7doctest16SubcaseSignatureENS_9allocatorIS2_EEE7__allocB8ue170006Ev, symObjAddr: 0x1FB44, symBinAddr: 0x100033A50, symSize: 0x28 }
  - { offsetInCU: 0x46C2B, offset: 0x7A256, size: 0x8, addend: 0x0, symName: __ZNKSt3__19allocatorIN7doctest16SubcaseSignatureEE8max_sizeB8ue170006Ev, symObjAddr: 0x1FB6C, symBinAddr: 0x100033A78, symSize: 0x18 }
  - { offsetInCU: 0x46C50, offset: 0x7A27B, size: 0x8, addend: 0x0, symName: __ZNKSt3__117__compressed_pairIPN7doctest16SubcaseSignatureENS_9allocatorIS2_EEE6secondB8ue170006Ev, symObjAddr: 0x1FB84, symBinAddr: 0x100033A90, symSize: 0x24 }
  - { offsetInCU: 0x46C75, offset: 0x7A2A0, size: 0x8, addend: 0x0, symName: __ZNKSt3__122__compressed_pair_elemINS_9allocatorIN7doctest16SubcaseSignatureEEELi1ELb1EE5__getB8ue170006Ev, symObjAddr: 0x1FBA8, symBinAddr: 0x100033AB4, symSize: 0x14 }
  - { offsetInCU: 0x46C9A, offset: 0x7A2C5, size: 0x8, addend: 0x0, symName: __ZNSt3__114__split_bufferIN7doctest16SubcaseSignatureERNS_9allocatorIS2_EEEC2EmmS5_, symObjAddr: 0x1FBBC, symBinAddr: 0x100033AC8, symSize: 0xE0 }
  - { offsetInCU: 0x46D0D, offset: 0x7A338, size: 0x8, addend: 0x0, symName: __ZNSt3__117__compressed_pairIPN7doctest16SubcaseSignatureERNS_9allocatorIS2_EEEC1B8ue170006IDnS6_EEOT_OT0_, symObjAddr: 0x1FC9C, symBinAddr: 0x100033BA8, symSize: 0x3C }
  - { offsetInCU: 0x46D64, offset: 0x7A38F, size: 0x8, addend: 0x0, symName: __ZNSt3__114__split_bufferIN7doctest16SubcaseSignatureERNS_9allocatorIS2_EEE7__allocB8ue170006Ev, symObjAddr: 0x1FD18, symBinAddr: 0x100033C24, symSize: 0x28 }
  - { offsetInCU: 0x46D89, offset: 0x7A3B4, size: 0x8, addend: 0x0, symName: __ZNSt3__114__split_bufferIN7doctest16SubcaseSignatureERNS_9allocatorIS2_EEE9__end_capB8ue170006Ev, symObjAddr: 0x1FD40, symBinAddr: 0x100033C4C, symSize: 0x28 }
  - { offsetInCU: 0x46DAE, offset: 0x7A3D9, size: 0x8, addend: 0x0, symName: __ZNSt3__117__compressed_pairIPN7doctest16SubcaseSignatureERNS_9allocatorIS2_EEEC2B8ue170006IDnS6_EEOT_OT0_, symObjAddr: 0x1FD68, symBinAddr: 0x100033C74, symSize: 0x48 }
  - { offsetInCU: 0x46E05, offset: 0x7A430, size: 0x8, addend: 0x0, symName: __ZNSt3__122__compressed_pair_elemIRNS_9allocatorIN7doctest16SubcaseSignatureEEELi1ELb0EEC2B8ue170006IS5_vEEOT_, symObjAddr: 0x1FDB0, symBinAddr: 0x100033CBC, symSize: 0x20 }
  - { offsetInCU: 0x46E46, offset: 0x7A471, size: 0x8, addend: 0x0, symName: __ZNSt3__19allocatorIN7doctest16SubcaseSignatureEE8allocateB8ue170006Em, symObjAddr: 0x1FDD0, symBinAddr: 0x100033CDC, symSize: 0x5C }
  - { offsetInCU: 0x46E79, offset: 0x7A4A4, size: 0x8, addend: 0x0, symName: __ZNSt3__117__compressed_pairIPN7doctest16SubcaseSignatureERNS_9allocatorIS2_EEE6secondB8ue170006Ev, symObjAddr: 0x1FE2C, symBinAddr: 0x100033D38, symSize: 0x28 }
  - { offsetInCU: 0x46E9E, offset: 0x7A4C9, size: 0x8, addend: 0x0, symName: __ZNSt3__122__compressed_pair_elemIRNS_9allocatorIN7doctest16SubcaseSignatureEEELi1ELb0EE5__getB8ue170006Ev, symObjAddr: 0x1FE54, symBinAddr: 0x100033D60, symSize: 0x18 }
  - { offsetInCU: 0x46EC3, offset: 0x7A4EE, size: 0x8, addend: 0x0, symName: __ZNSt3__117__compressed_pairIPN7doctest16SubcaseSignatureERNS_9allocatorIS2_EEE5firstB8ue170006Ev, symObjAddr: 0x1FE6C, symBinAddr: 0x100033D78, symSize: 0x24 }
  - { offsetInCU: 0x46EE8, offset: 0x7A513, size: 0x8, addend: 0x0, symName: __ZNSt3__116reverse_iteratorIPN7doctest16SubcaseSignatureEEC1B8ue170006ES3_, symObjAddr: 0x1FFBC, symBinAddr: 0x100033EC8, symSize: 0x34 }
  - { offsetInCU: 0x46F1F, offset: 0x7A54A, size: 0x8, addend: 0x0, symName: __ZNKSt3__116reverse_iteratorIPN7doctest16SubcaseSignatureEE4baseB8ue170006Ev, symObjAddr: 0x1FFF0, symBinAddr: 0x100033EFC, symSize: 0x18 }
  - { offsetInCU: 0x46F44, offset: 0x7A56F, size: 0x8, addend: 0x0, symName: __ZNKSt3__16vectorIN7doctest16SubcaseSignatureENS_9allocatorIS2_EEE14__annotate_newB8ue170006Em, symObjAddr: 0x20044, symBinAddr: 0x100033F50, symSize: 0xC8 }
  - { offsetInCU: 0x46F78, offset: 0x7A5A3, size: 0x8, addend: 0x0, symName: __ZNSt3__129_AllocatorDestroyRangeReverseINS_9allocatorIN7doctest16SubcaseSignatureEEENS_16reverse_iteratorIPS3_EEEC1B8ue170006ERS4_RS7_SA_, symObjAddr: 0x20158, symBinAddr: 0x100034064, symSize: 0x44 }
  - { offsetInCU: 0x46FD3, offset: 0x7A5FE, size: 0x8, addend: 0x0, symName: __ZNSt3__116allocator_traitsINS_9allocatorIN7doctest16SubcaseSignatureEEEE9constructB8ue170006IS3_JS3_EvEEvRS4_PT_DpOT0_, symObjAddr: 0x201E4, symBinAddr: 0x1000340F0, symSize: 0x34 }
  - { offsetInCU: 0x4702A, offset: 0x7A655, size: 0x8, addend: 0x0, symName: __ZNKSt3__116reverse_iteratorIPN7doctest16SubcaseSignatureEEdeB8ue170006Ev, symObjAddr: 0x2023C, symBinAddr: 0x100034148, symSize: 0x28 }
  - { offsetInCU: 0x4705D, offset: 0x7A688, size: 0x8, addend: 0x0, symName: __ZNSt3__116reverse_iteratorIPN7doctest16SubcaseSignatureEEppB8ue170006Ev, symObjAddr: 0x20264, symBinAddr: 0x100034170, symSize: 0x20 }
  - { offsetInCU: 0x47082, offset: 0x7A6AD, size: 0x8, addend: 0x0, symName: __ZNSt3__128__exception_guard_exceptionsINS_29_AllocatorDestroyRangeReverseINS_9allocatorIN7doctest16SubcaseSignatureEEENS_16reverse_iteratorIPS4_EEEEE10__completeB8ue170006Ev, symObjAddr: 0x20284, symBinAddr: 0x100034190, symSize: 0x1C }
  - { offsetInCU: 0x470A7, offset: 0x7A6D2, size: 0x8, addend: 0x0, symName: __ZNSt3__128__exception_guard_exceptionsINS_29_AllocatorDestroyRangeReverseINS_9allocatorIN7doctest16SubcaseSignatureEEENS_16reverse_iteratorIPS4_EEEEED1B8ue170006Ev, symObjAddr: 0x202A0, symBinAddr: 0x1000341AC, symSize: 0x2C }
  - { offsetInCU: 0x470D0, offset: 0x7A6FB, size: 0x8, addend: 0x0, symName: __ZNSt3__128__exception_guard_exceptionsINS_29_AllocatorDestroyRangeReverseINS_9allocatorIN7doctest16SubcaseSignatureEEENS_16reverse_iteratorIPS4_EEEEEC1B8ue170006ES9_, symObjAddr: 0x202CC, symBinAddr: 0x1000341D8, symSize: 0x34 }
  - { offsetInCU: 0x47108, offset: 0x7A733, size: 0x8, addend: 0x0, symName: __ZNSt3__128__exception_guard_exceptionsINS_29_AllocatorDestroyRangeReverseINS_9allocatorIN7doctest16SubcaseSignatureEEENS_16reverse_iteratorIPS4_EEEEEC2B8ue170006ES9_, symObjAddr: 0x20300, symBinAddr: 0x10003420C, symSize: 0x30 }
  - { offsetInCU: 0x47140, offset: 0x7A76B, size: 0x8, addend: 0x0, symName: __ZNSt3__129_AllocatorDestroyRangeReverseINS_9allocatorIN7doctest16SubcaseSignatureEEENS_16reverse_iteratorIPS3_EEEC2B8ue170006ERS4_RS7_SA_, symObjAddr: 0x20330, symBinAddr: 0x10003423C, symSize: 0x38 }
  - { offsetInCU: 0x47196, offset: 0x7A7C1, size: 0x8, addend: 0x0, symName: __ZNSt3__19allocatorIN7doctest16SubcaseSignatureEE9constructB8ue170006IS2_JS2_EEEvPT_DpOT0_, symObjAddr: 0x20368, symBinAddr: 0x100034274, symSize: 0x30 }
  - { offsetInCU: 0x471EB, offset: 0x7A816, size: 0x8, addend: 0x0, symName: __ZN7doctest16SubcaseSignatureC1EOS0_, symObjAddr: 0x20398, symBinAddr: 0x1000342A4, symSize: 0x34 }
  - { offsetInCU: 0x47220, offset: 0x7A84B, size: 0x8, addend: 0x0, symName: __ZN7doctest16SubcaseSignatureC2EOS0_, symObjAddr: 0x203CC, symBinAddr: 0x1000342D8, symSize: 0x48 }
  - { offsetInCU: 0x4725A, offset: 0x7A885, size: 0x8, addend: 0x0, symName: __ZNSt3__119__to_address_helperINS_16reverse_iteratorIPN7doctest16SubcaseSignatureEEEvE6__callB8ue170006ERKS5_, symObjAddr: 0x20414, symBinAddr: 0x100034320, symSize: 0x38 }
  - { offsetInCU: 0x4727D, offset: 0x7A8A8, size: 0x8, addend: 0x0, symName: __ZNKSt3__116reverse_iteratorIPN7doctest16SubcaseSignatureEEptB8ue170006Ev, symObjAddr: 0x2044C, symBinAddr: 0x100034358, symSize: 0x24 }
  - { offsetInCU: 0x472A2, offset: 0x7A8CD, size: 0x8, addend: 0x0, symName: __ZNSt3__128__exception_guard_exceptionsINS_29_AllocatorDestroyRangeReverseINS_9allocatorIN7doctest16SubcaseSignatureEEENS_16reverse_iteratorIPS4_EEEEED2B8ue170006Ev, symObjAddr: 0x20470, symBinAddr: 0x10003437C, symSize: 0x50 }
  - { offsetInCU: 0x472CB, offset: 0x7A8F6, size: 0x8, addend: 0x0, symName: __ZNKSt3__129_AllocatorDestroyRangeReverseINS_9allocatorIN7doctest16SubcaseSignatureEEENS_16reverse_iteratorIPS3_EEEclB8ue170006Ev, symObjAddr: 0x204C0, symBinAddr: 0x1000343CC, symSize: 0xB4 }
  - { offsetInCU: 0x472F1, offset: 0x7A91C, size: 0x8, addend: 0x0, symName: __ZNSt3__116reverse_iteratorINS0_IPN7doctest16SubcaseSignatureEEEEC1B8ue170006ES4_, symObjAddr: 0x205E4, symBinAddr: 0x1000344F0, symSize: 0x3C }
  - { offsetInCU: 0x47328, offset: 0x7A953, size: 0x8, addend: 0x0, symName: __ZNSt3__116reverse_iteratorINS0_IPN7doctest16SubcaseSignatureEEEEppB8ue170006Ev, symObjAddr: 0x206A4, symBinAddr: 0x1000345B0, symSize: 0x30 }
  - { offsetInCU: 0x4734D, offset: 0x7A978, size: 0x8, addend: 0x0, symName: __ZNKSt3__116reverse_iteratorINS0_IPN7doctest16SubcaseSignatureEEEE4baseB8ue170006Ev, symObjAddr: 0x206D4, symBinAddr: 0x1000345E0, symSize: 0x24 }
  - { offsetInCU: 0x47377, offset: 0x7A9A2, size: 0x8, addend: 0x0, symName: __ZNSt3__119__to_address_helperINS_16reverse_iteratorINS1_IPN7doctest16SubcaseSignatureEEEEEvE6__callB8ue170006ERKS6_, symObjAddr: 0x206F8, symBinAddr: 0x100034604, symSize: 0x38 }
  - { offsetInCU: 0x4739A, offset: 0x7A9C5, size: 0x8, addend: 0x0, symName: __ZNKSt3__116reverse_iteratorINS0_IPN7doctest16SubcaseSignatureEEEEptB8ue170006Ev, symObjAddr: 0x20730, symBinAddr: 0x10003463C, symSize: 0x24 }
  - { offsetInCU: 0x473BF, offset: 0x7A9EA, size: 0x8, addend: 0x0, symName: __ZNKSt3__116reverse_iteratorINS0_IPN7doctest16SubcaseSignatureEEEEdeB8ue170006Ev, symObjAddr: 0x20754, symBinAddr: 0x100034660, symSize: 0x34 }
  - { offsetInCU: 0x473F2, offset: 0x7AA1D, size: 0x8, addend: 0x0, symName: __ZNSt3__116reverse_iteratorIPN7doctest16SubcaseSignatureEEmmB8ue170006Ev, symObjAddr: 0x20788, symBinAddr: 0x100034694, symSize: 0x20 }
  - { offsetInCU: 0x47417, offset: 0x7AA42, size: 0x8, addend: 0x0, symName: __ZNSt3__116reverse_iteratorINS0_IPN7doctest16SubcaseSignatureEEEEC2B8ue170006ES4_, symObjAddr: 0x207A8, symBinAddr: 0x1000346B4, symSize: 0x2C }
  - { offsetInCU: 0x4744E, offset: 0x7AA79, size: 0x8, addend: 0x0, symName: __ZNSt3__116reverse_iteratorIPN7doctest16SubcaseSignatureEEC2B8ue170006ES3_, symObjAddr: 0x207D4, symBinAddr: 0x1000346E0, symSize: 0x28 }
